 tbb

 Timestamp is 59c13503 (Tue Sep 19 11:17:23 2017)

 Preferred load address is 0000000180000000

 Start         Length     Name                   Class
 0001:00000000 00000040H .text$di                CODE
 0001:00000040 000359c0H .text$mn                CODE
 0001:00035a00 00000020H .text$mn$00             CODE
 0001:00035a20 000010c0H .text$x                 CODE
 0001:00036ae0 0000006eH .text$yd                CODE
 0002:00000000 00000308H .idata$5                DATA
 0002:00000308 00000010H .00cfg                  DATA
 0002:00000318 00000008H .CRT$XCA                DATA
 0002:00000320 00000018H .CRT$XCU                DATA
 0002:00000338 00000008H .CRT$XCZ                DATA
 0002:00000340 00000008H .CRT$XIA                DATA
 0002:00000348 00000018H .CRT$XIC                DATA
 0002:00000360 00000008H .CRT$XIZ                DATA
 0002:00000368 00000008H .CRT$XPA                DATA
 0002:00000370 00000010H .CRT$XPX                DATA
 0002:00000380 00000008H .CRT$XPXA               DATA
 0002:00000388 00000008H .CRT$XPZ                DATA
 0002:00000390 00000008H .CRT$XTA                DATA
 0002:00000398 00000008H .CRT$XTZ                DATA
 0002:000003a0 0000bd50H .rdata                  DATA
 0002:0000c0f0 000020bcH .rdata$r                DATA
 0002:0000e1ac 000003d4H .rdata$zzzdbg           DATA
 0002:0000e580 00000008H .rtc$IAA                DATA
 0002:0000e588 00000008H .rtc$IZZ                DATA
 0002:0000e590 00000008H .rtc$TAA                DATA
 0002:0000e598 00000008H .rtc$TZZ                DATA
 0002:0000e5a0 00004628H .xdata                  DATA
 0002:00012bc8 000006b8H .xdata$x                DATA
 0002:00013280 00003dc4H .edata                  DATA
 0002:00017044 00000014H .idata$2                DATA
 0002:00017058 00000018H .idata$3                DATA
 0002:00017070 00000308H .idata$4                DATA
 0002:00017378 00000730H .idata$6                DATA
 0003:00000000 00002ae0H .data                   DATA
 0003:00002ae0 00000c40H .data$r                 DATA
 0003:00003720 0000298cH .bss                    DATA
 0004:00000000 00003fc0H .pdata                  DATA
 0005:00000000 00000084H .gfids$x                DATA
 0005:00000084 000000f4H .gfids$y                DATA
 0006:00000000 000000a0H .rsrc$01                DATA
 0006:000000a0 00000558H .rsrc$02                DATA

  Address         Publics by Value              Rva+Base               Lib:Object

 0000:00000000       __dynamic_value_reloc_table 0000000000000000     <absolute>
 0000:00000000       __guard_iat_count          0000000000000000     <absolute>
 0000:00000000       __guard_iat_table          0000000000000000     <absolute>
 0000:00000000       __guard_fids_count         0000000000000000     <absolute>
 0000:00000000       __guard_longjmp_table      0000000000000000     <absolute>
 0000:00000000       __guard_longjmp_count      0000000000000000     <absolute>
 0000:00000000       __guard_fids_table         0000000000000000     <absolute>
 0000:00000100       __guard_flags              0000000000000100     <absolute>
 0000:00000000       __ImageBase                0000000180000000     <linker-defined>
 0001:00000040       ?internal_grow_predicate@hash_map_segment_base@internal@tbb@@QEBA_NXZ 0000000180001040 f   concurrent_hash_map.obj
 0001:00000070       ?note_affinity@task@tbb@@UEAAXG@Z 0000000180001070 f i task.obj
 0001:00000070       ?internal_destroy@reader_writer_lock@interface5@tbb@@AEAAXXZ 0000000180001070 f i reader_writer_lock.obj
 0001:00000070       ?finalize@filter@tbb@@UEAAXPEAX@Z 0000000180001070 f i pipeline.obj
 0001:00000070       ?destroy_condvar_noop@internal@tbb@@YAXPEAU_RTL_CONDITION_VARIABLE@@@Z 0000000180001070 f i condition_variable.obj
 0001:00000070       ?__global_delete@@YAXPEAX_K@Z 0000000180001070 f i * CIL library *:* CIL module *
 0001:00000070       __except_validate_context_record 0000000180001070 f i libvcruntime:jbcxrval.obj
 0001:00000070       _guard_check_icall_nop     0000000180001070 f i LIBCMT:guard_support.obj
 0001:00000070       ?__empty_global_delete@@YAXPEAX_K@Z 0000000180001070 f i concurrent_hash_map.obj
 0001:00000070       ?unregister_master@private_server@rml@internal@tbb@@UEAAXPEAX@Z 0000000180001070 f i private_server.obj
 0001:00000070       ?apply_active@stack_size_control@internal@tbb@@EEBAXXZ 0000000180001070 f i tbb_main.obj
 0001:00000070       ?independent_thread_number_changed@private_server@rml@internal@tbb@@UEAAXH@Z 0000000180001070 f i private_server.obj
 0001:00000070       ?register_master@private_server@rml@internal@tbb@@UEAAXAEAPEAX@Z 0000000180001070 f i private_server.obj
 0001:00000070       ??3@YAXPEAX0@Z             0000000180001070 f i concurrent_queue.obj
 0001:00000070       ?inject_token@pipeline@tbb@@AEAAXAEAVtask@2@@Z 0000000180001070 f i pipeline.obj
 0001:00000080       ??0scoped_lock@spin_mutex@tbb@@QEAA@AEAV12@@Z 0000000180001080 f i concurrent_queue.obj
 0001:00000100       ??1scoped_lock@spin_mutex@tbb@@QEAA@XZ 0000000180001100 f i concurrent_queue.obj
 0001:00000110       ??1binary_semaphore@internal@tbb@@QEAA@XZ 0000000180001110 f i concurrent_queue.obj
 0001:00000120       ??1thread_context@concurrent_monitor@internal@tbb@@QEAA@XZ 0000000180001120 f i concurrent_queue.obj
 0001:00000160       ??1micro_queue_pop_finalizer@internal@tbb@@QEAA@XZ 0000000180001160 f i concurrent_queue.obj
 0001:00000230       ?push@micro_queue@internal@tbb@@QEAAXPEBX_KAEAVconcurrent_queue_base_v3@23@W4copy_specifics@423@@Z 0000000180001230 f   concurrent_queue.obj
 0001:000003f0       ?pop@micro_queue@internal@tbb@@QEAA_NPEAX_KAEAVconcurrent_queue_base_v3@23@@Z 00000001800013f0 f   concurrent_queue.obj
 0001:000005d0       ?assign@micro_queue@internal@tbb@@QEAAAEAU123@AEBU123@AEAVconcurrent_queue_base_v3@23@W4copy_specifics@423@@Z 00000001800015d0 f   concurrent_queue.obj
 0001:00000830       ?make_invalid@micro_queue@internal@tbb@@QEAAX_K@Z 0000000180001830 f   concurrent_queue.obj
 0001:000008e0       ??0concurrent_queue_base_v3@internal@tbb@@IEAA@_K@Z 00000001800018e0 f   concurrent_queue.obj
 0001:00000a10       ??_Econcurrent_queue_base_v3@internal@tbb@@MEAAPEAXI@Z 0000000180001a10 f i * CIL library *:* CIL module *
 0001:00000a10       ??_Gconcurrent_queue_base_v3@internal@tbb@@MEAAPEAXI@Z 0000000180001a10 f i concurrent_queue.obj
 0001:00000a60       ??1concurrent_queue_base_v3@internal@tbb@@MEAA@XZ 0000000180001a60 f   concurrent_queue.obj
 0001:00000a90       ?internal_push@concurrent_queue_base_v3@internal@tbb@@IEAAXPEBX@Z 0000000180001a90 f   concurrent_queue.obj
 0001:00000aa0       ?internal_push_move@concurrent_queue_base_v8@internal@tbb@@IEAAXPEBX@Z 0000000180001aa0 f   concurrent_queue.obj
 0001:00000ab0       ?internal_insert_item@concurrent_queue_base_v3@internal@tbb@@IEAAXPEBXW4copy_specifics@123@@Z 0000000180001ab0 f   concurrent_queue.obj
 0001:00000dd0       ?internal_pop@concurrent_queue_base_v3@internal@tbb@@IEAAXPEAX@Z 0000000180001dd0 f   concurrent_queue.obj
 0001:00001190       ?internal_abort@concurrent_queue_base_v3@internal@tbb@@IEAAXXZ 0000000180002190 f   concurrent_queue.obj
 0001:000011c0       ?internal_pop_if_present@concurrent_queue_base_v3@internal@tbb@@IEAA_NPEAX@Z 00000001800021c0 f   concurrent_queue.obj
 0001:00001270       ?internal_push_if_not_full@concurrent_queue_base_v3@internal@tbb@@IEAA_NPEBX@Z 0000000180002270 f   concurrent_queue.obj
 0001:00001280       ?internal_push_move_if_not_full@concurrent_queue_base_v8@internal@tbb@@IEAA_NPEBX@Z 0000000180002280 f   concurrent_queue.obj
 0001:00001290       ?internal_insert_if_not_full@concurrent_queue_base_v3@internal@tbb@@IEAA_NPEBXW4copy_specifics@123@@Z 0000000180002290 f   concurrent_queue.obj
 0001:00001340       ?internal_size@concurrent_queue_base_v3@internal@tbb@@IEBA_JXZ 0000000180002340 f   concurrent_queue.obj
 0001:00001370       ?internal_empty@concurrent_queue_base_v3@internal@tbb@@IEBA_NXZ 0000000180002370 f   concurrent_queue.obj
 0001:000013b0       ?internal_set_capacity@concurrent_queue_base_v3@internal@tbb@@IEAAX_J_K@Z 00000001800023b0 f   concurrent_queue.obj
 0001:000013b0       ?internal_set_capacity@concurrent_queue_base@internal@tbb@@IEAAX_J_K@Z 00000001800023b0 f   concurrent_queue_v2.obj
 0001:000013d0       ?internal_finish_clear@concurrent_queue_base_v3@internal@tbb@@IEAAXXZ 00000001800023d0 f   concurrent_queue.obj
 0001:00001440       ?internal_throw_exception@concurrent_queue_base_v3@internal@tbb@@IEBAXXZ 0000000180002440 f   concurrent_queue.obj
 0001:00001450       ?internal_assign@concurrent_queue_base_v3@internal@tbb@@IEAAXAEBV123@W4copy_specifics@123@@Z 0000000180002450 f   concurrent_queue.obj
 0001:00001500       ?assign@concurrent_queue_base_v3@internal@tbb@@IEAAXAEBV123@@Z 0000000180002500 f   concurrent_queue.obj
 0001:00001510       ?move_content@concurrent_queue_base_v8@internal@tbb@@IEAAXAEAV123@@Z 0000000180002510 f   concurrent_queue.obj
 0001:00001520       ?initialize@concurrent_queue_iterator_base_v3@internal@tbb@@AEAAXAEBVconcurrent_queue_base_v3@23@_K@Z 0000000180002520 f   concurrent_queue.obj
 0001:00001630       ??0concurrent_queue_iterator_base_v3@internal@tbb@@IEAA@AEBVconcurrent_queue_base_v3@12@@Z 0000000180002630 f   concurrent_queue.obj
 0001:00001650       ??0concurrent_queue_iterator_base_v3@internal@tbb@@IEAA@AEBVconcurrent_queue_base_v3@12@_K@Z 0000000180002650 f   concurrent_queue.obj
 0001:00001670       ?assign@concurrent_queue_iterator_base_v3@internal@tbb@@IEAAXAEBV123@@Z 0000000180002670 f   concurrent_queue.obj
 0001:00001740       ?advance@concurrent_queue_iterator_base_v3@internal@tbb@@IEAAXXZ 0000000180002740 f   concurrent_queue.obj
 0001:00001800       ??1concurrent_queue_iterator_base_v3@internal@tbb@@IEAA@XZ 0000000180002800 f   concurrent_queue.obj
 0001:00001830       ??$notify_relaxed@Upredicate_leq@internal@tbb@@@concurrent_monitor@internal@tbb@@QEAAXAEBUpredicate_leq@12@@Z 0000000180002830 f i concurrent_queue.obj
 0001:00001970       ?acquire_segment@helper@concurrent_vector_base_v3@internal@tbb@@SAAEAVsegment_t@234@AEAV234@_K1_N@Z 0000000180002970 f i concurrent_vector.obj
 0001:00001a10       ??1helper@concurrent_vector_base_v3@internal@tbb@@QEAA@XZ 0000000180002a10 f i concurrent_vector.obj
 0001:00001a40       ?extend_segment_table@helper@concurrent_vector_base_v3@internal@tbb@@SAXAEAV234@_K@Z 0000000180002a40 f   concurrent_vector.obj
 0001:00001be0       ?enable_segment@helper@concurrent_vector_base_v3@internal@tbb@@SA_KAEAV234@_K1_N@Z 0000000180002be0 f   concurrent_vector.obj
 0001:00001dc0       ?cleanup@helper@concurrent_vector_base_v3@internal@tbb@@QEAAXXZ 0000000180002dc0 f   concurrent_vector.obj
 0001:000020a0       ??1concurrent_vector_base_v3@internal@tbb@@IEAA@XZ 00000001800030a0 f   concurrent_vector.obj
 0001:000020d0       ?internal_capacity@concurrent_vector_base_v3@internal@tbb@@IEBA_KXZ 00000001800030d0 f   concurrent_vector.obj
 0001:00002110       ?internal_throw_exception@concurrent_vector_base_v3@internal@tbb@@IEBAX_K@Z 0000000180003110 f   concurrent_vector.obj
 0001:00002150       ?internal_reserve@concurrent_vector_base_v3@internal@tbb@@IEAAX_K00@Z 0000000180003150 f   concurrent_vector.obj
 0001:00002250       ?internal_copy@concurrent_vector_base_v3@internal@tbb@@IEAAXAEBV123@_KP6AXPEAXPEBX1@Z@Z 0000000180003250 f   concurrent_vector.obj
 0001:00002380       ?internal_assign@concurrent_vector_base_v3@internal@tbb@@IEAAXAEBV123@_KP6AXPEAX1@ZP6AX2PEBX1@Z5@Z 0000000180003380 f   concurrent_vector.obj
 0001:000025a0       ?internal_push_back@concurrent_vector_base_v3@internal@tbb@@IEAAPEAX_KAEA_K@Z 00000001800035a0 f   concurrent_vector.obj
 0001:00002650       ?internal_grow_to_at_least@concurrent_vector_base_v3@internal@tbb@@IEAAX_K0P6AXPEAXPEBX0@Z2@Z 0000000180003650 f   concurrent_vector.obj
 0001:00002660       ?internal_grow_to_at_least_with_result@concurrent_vector_base_v3@internal@tbb@@IEAA_K_K0P6AXPEAXPEBX0@Z2@Z 0000000180003660 f   concurrent_vector.obj
 0001:000027e0       ?internal_grow_by@concurrent_vector_base_v3@internal@tbb@@IEAA_K_K0P6AXPEAXPEBX0@Z2@Z 00000001800037e0 f   concurrent_vector.obj
 0001:00002820       ?internal_grow@concurrent_vector_base_v3@internal@tbb@@IEAAX_K00P6AXPEAXPEBX0@Z2@Z 0000000180003820 f   concurrent_vector.obj
 0001:00002b20       ?internal_resize@concurrent_vector_base_v3@internal@tbb@@IEAAX_K00PEBXP6AXPEAX0@ZP6AX210@Z@Z 0000000180003b20 f   concurrent_vector.obj
 0001:00002c40       ?internal_clear@concurrent_vector_base_v3@internal@tbb@@IEAA_KP6AXPEAX_K@Z@Z 0000000180003c40 f   concurrent_vector.obj
 0001:00002cf0       ?internal_compact@concurrent_vector_base_v3@internal@tbb@@IEAAPEAX_KPEAXP6AX10@ZP6AX1PEBX0@Z@Z 0000000180003cf0 f   concurrent_vector.obj
 0001:000030c0       ?internal_swap@concurrent_vector_base_v3@internal@tbb@@IEAAXAEAV123@@Z 00000001800040c0 f   concurrent_vector.obj
 0001:000031c0       ??$spin_wait_while@Usegment_not_used_predicate@helper@concurrent_vector_base_v3@internal@tbb@@@internal@tbb@@YAXUsegment_not_used_predicate@helper@concurrent_vector_base_v3@01@@Z 00000001800041c0 f i concurrent_vector.obj
 0001:00003210       ??$apply@Usafe_init_body@helper@concurrent_vector_base_v3@internal@tbb@@@helper@concurrent_vector_base_v3@internal@tbb@@QEAA_KAEBUsafe_init_body@0123@@Z 0000000180004210 f i concurrent_vector.obj
 0001:00003370       ??$apply@Udestroy_body@helper@concurrent_vector_base_v3@internal@tbb@@@helper@concurrent_vector_base_v3@internal@tbb@@QEAA_KAEBUdestroy_body@0123@@Z 0000000180004370 f i concurrent_vector.obj
 0001:00003490       ??$_Uninitialized_fill_n_unchecked1@PEAVsegment_t@concurrent_vector_base_v3@internal@tbb@@_KV1234@@std@@YAPEAVsegment_t@concurrent_vector_base_v3@internal@tbb@@PEAV1234@_KAEBV1234@U?$integral_constant@_N$0A@@0@@Z 0000000180004490 f i concurrent_vector.obj
 0001:000036f0       ?dynamic_load@internal@tbb@@YAPEAUHINSTANCE__@@PEBDQEBUdynamic_link_descriptor@12@_K@Z 00000001800046f0 f   dynamic_link.obj
 0001:00003810       ?dynamic_link@internal@tbb@@YA_NPEBDQEBUdynamic_link_descriptor@12@_KPEAPEAUHINSTANCE__@@H@Z 0000000180004810 f   dynamic_link.obj
 0001:00007280       __itt_fini_ittlib          0000000180008280 f   itt_notify.obj
 0001:00007350       __itt_init_ittlib          0000000180008350 f   itt_notify.obj
 0001:000076b0       ?initialize_handler_pointers@internal@tbb@@YAXXZ 00000001800086b0 f   cache_aligned_allocator.obj
 0001:000077a0       ?initialize_cache_aligned_allocator@internal@tbb@@YAXXZ 00000001800087a0 f   cache_aligned_allocator.obj
 0001:000078e0       ?NFS_GetLineSize@internal@tbb@@YA_KXZ 00000001800088e0 f   cache_aligned_allocator.obj
 0001:000078f0       ?NFS_Allocate@internal@tbb@@YAPEAX_K0PEAX@Z 00000001800088f0 f   cache_aligned_allocator.obj
 0001:00007950       ?NFS_Free@internal@tbb@@YAXPEAX@Z 0000000180008950 f   cache_aligned_allocator.obj
 0001:000079b0       ?allocate_closure_v3@internal@tbb@@YAPEAX_K@Z 00000001800089b0 f   tbb_thread.obj
 0001:000079b0       ?allocate_via_handler_v3@internal@tbb@@YAPEAX_K@Z 00000001800089b0 f   cache_aligned_allocator.obj
 0001:000079e0       ?deallocate_via_handler_v3@internal@tbb@@YAXPEAX@Z 00000001800089e0 f   cache_aligned_allocator.obj
 0001:000079e0       ?free_closure_v3@internal@tbb@@YAXPEAX@Z 00000001800089e0 f   tbb_thread.obj
 0001:000079f0       ?is_malloc_used_v3@internal@tbb@@YA_NXZ 00000001800089f0 f   cache_aligned_allocator.obj
 0001:00007a30       ??_Gtask@tbb@@UEAAPEAXI@Z  0000000180008a30 f i pipeline.obj
 0001:00007a30       ??_Gempty_task@tbb@@UEAAPEAXI@Z 0000000180008a30 f i arena.obj
 0001:00007a30       ??_Eempty_task@tbb@@UEAAPEAXI@Z 0000000180008a30 f i * CIL library *:* CIL module *
 0001:00007a30       ??_Etask@tbb@@UEAAPEAXI@Z  0000000180008a30 f i * CIL library *:* CIL module *
 0001:00007a60       ??_Efilter@tbb@@UEAAPEAXI@Z 0000000180008a60 f i * CIL library *:* CIL module *
 0001:00007a60       ??_Gfilter@tbb@@UEAAPEAXI@Z 0000000180008a60 f i pipeline.obj
 0001:00007aa0       ??0input_buffer@internal@tbb@@QEAA@_N0@Z 0000000180008aa0 f i pipeline.obj
 0001:00007b20       ?put_token@input_buffer@internal@tbb@@QEAA_NAEAUtask_info@23@_N@Z 0000000180008b20 f i pipeline.obj
 0001:00007c80       ?return_item@input_buffer@internal@tbb@@QEAA_NAEAUtask_info@23@_N@Z 0000000180008c80 f i pipeline.obj
 0001:00007d60       ?grow@input_buffer@internal@tbb@@AEAAXK@Z 0000000180008d60 f   pipeline.obj
 0001:00007e70       ??_Gstage_task@internal@tbb@@UEAAPEAXI@Z 0000000180008e70 f i pipeline.obj
 0001:00007e70       ??_Estage_task@internal@tbb@@UEAAPEAXI@Z 0000000180008e70 f i * CIL library *:* CIL module *
 0001:00007ef0       ?execute@stage_task@internal@tbb@@UEAAPEAVtask@3@XZ 0000000180008ef0 f   pipeline.obj
 0001:000082c0       ?execute@pipeline_root_task@internal@tbb@@EEAAPEAVtask@3@XZ 00000001800092c0 f i pipeline.obj
 0001:000084a0       ??_Epipeline_root_task@internal@tbb@@UEAAPEAXI@Z 00000001800094a0 f i * CIL library *:* CIL module *
 0001:000084a0       ??_Gpipeline_root_task@internal@tbb@@UEAAPEAXI@Z 00000001800094a0 f i pipeline.obj
 0001:000084d0       ??1pipeline_cleaner@internal@tbb@@QEAA@XZ 00000001800094d0 f i pipeline.obj
 0001:00008520       ?clear_filters@pipeline@tbb@@AEAAXXZ 0000000180009520 f   pipeline.obj
 0001:000085d0       ??0pipeline@tbb@@QEAA@XZ   00000001800095d0 f   pipeline.obj
 0001:00008600       ??_Gpipeline@tbb@@UEAAPEAXI@Z 0000000180009600 f i pipeline.obj
 0001:00008600       ??_Epipeline@tbb@@UEAAPEAXI@Z 0000000180009600 f i * CIL library *:* CIL module *
 0001:00008640       ??1pipeline@tbb@@UEAA@XZ   0000000180009640 f   pipeline.obj
 0001:00008650       ?clear@pipeline@tbb@@QEAAXXZ 0000000180009650 f   pipeline.obj
 0001:00008740       ??_Ginput_buffer@internal@tbb@@QEAAPEAXI@Z 0000000180009740 f i pipeline.obj
 0001:000087c0       ?add_filter@pipeline@tbb@@QEAAXAEAVfilter@2@@Z 00000001800097c0 f   pipeline.obj
 0001:00008950       ?run@pipeline@tbb@@QEAAX_KAEAVtask_group_context@2@@Z 0000000180009950 f   pipeline.obj
 0001:00008ab0       ?run@pipeline@tbb@@QEAAX_K@Z 0000000180009ab0 f   pipeline.obj
 0001:00008ba0       ??1filter@tbb@@UEAA@XZ     0000000180009ba0 f   pipeline.obj
 0001:00008c40       ?set_end_of_input@filter@tbb@@IEAAXXZ 0000000180009c40 f   pipeline.obj
 0001:00008c70       ?process_item@thread_bound_filter@tbb@@QEAA?AW4result_type@12@XZ 0000000180009c70 f   pipeline.obj
 0001:00008c80       ?try_process_item@thread_bound_filter@tbb@@QEAA?AW4result_type@12@XZ 0000000180009c80 f   pipeline.obj
 0001:00008c90       ?internal_process_item@thread_bound_filter@tbb@@AEAA?AW4result_type@12@_N@Z 0000000180009c90 f   pipeline.obj
 0001:00008ee0       ??$note_done@Vstage_task@internal@tbb@@@input_buffer@internal@tbb@@QEAAXKAEAVstage_task@12@@Z 0000000180009ee0 f i pipeline.obj
 0001:00009050       ?acquire@scoped_lock@queuing_mutex@tbb@@QEAAXAEAV23@@Z 000000018000a050 f   queuing_mutex.obj
 0001:000090f0       ?try_acquire@scoped_lock@queuing_mutex@tbb@@QEAA_NAEAV23@@Z 000000018000a0f0 f   queuing_mutex.obj
 0001:00009130       ?release@scoped_lock@queuing_mutex@tbb@@QEAAXXZ 000000018000a130 f   queuing_mutex.obj
 0001:000091c0       ?internal_construct@queuing_mutex@tbb@@QEAAXXZ 000000018000a1c0 f   queuing_mutex.obj
 0001:000091f0       ?unblock_or_wait_on_internal_lock@scoped_lock@queuing_rw_mutex@tbb@@AEAAX_K@Z 000000018000a1f0 f i queuing_rw_mutex.obj
 0001:00009250       ?acquire@scoped_lock@queuing_rw_mutex@tbb@@QEAAXAEAV23@_N@Z 000000018000a250 f   queuing_rw_mutex.obj
 0001:000093e0       ?try_acquire@scoped_lock@queuing_rw_mutex@tbb@@QEAA_NAEAV23@_N@Z 000000018000a3e0 f   queuing_rw_mutex.obj
 0001:00009440       ?release@scoped_lock@queuing_rw_mutex@tbb@@QEAAXXZ 000000018000a440 f   queuing_rw_mutex.obj
 0001:00009700       ?downgrade_to_reader@scoped_lock@queuing_rw_mutex@tbb@@QEAA_NXZ 000000018000a700 f   queuing_rw_mutex.obj
 0001:000097c0       ?upgrade_to_writer@scoped_lock@queuing_rw_mutex@tbb@@QEAA_NXZ 000000018000a7c0 f   queuing_rw_mutex.obj
 0001:00009b30       ?internal_construct@queuing_rw_mutex@tbb@@QEAAXXZ 000000018000ab30 f   queuing_rw_mutex.obj
 0001:00009b60       ??$spin_wait_until_eq@EH@internal@tbb@@YAXAEDEH@Z 000000018000ab60 f i queuing_rw_mutex.obj
 0001:00009bc0       ??$spin_wait_while_eq@PEAVscoped_lock@queuing_rw_mutex@tbb@@PEAV123@@internal@tbb@@YAXAEDSEAVscoped_lock@queuing_rw_mutex@1@PEAV231@@Z 000000018000abc0 f i queuing_rw_mutex.obj
 0001:00009c20       ??$spin_wait_while_eq@PEAXPEAX@internal@tbb@@YAXAEDSEAXPEAX@Z 000000018000ac20 f i concurrent_vector_v2.obj
 0001:00009c20       ??$spin_wait_while_eq@PEAVscoped_lock@reader_writer_lock@interface5@tbb@@PEAV1234@@internal@tbb@@YAXAEDSEAVscoped_lock@reader_writer_lock@interface5@1@PEAV2341@@Z 000000018000ac20 f i reader_writer_lock.obj
 0001:00009c20       ??$spin_wait_while_eq@PEAVscoped_lock@queuing_rw_mutex@tbb@@PEAX@internal@tbb@@YAXAEDSEAVscoped_lock@queuing_rw_mutex@1@PEAX@Z 000000018000ac20 f i queuing_rw_mutex.obj
 0001:00009c80       ??1scoped_lock_read@reader_writer_lock@interface5@tbb@@QEAA@XZ 000000018000ac80 f i reader_writer_lock.obj
 0001:00009ce0       ?fetch_and_or@interface5@tbb@@YA_KAEAU?$atomic@_K@2@_K@Z 000000018000ace0 f i reader_writer_lock.obj
 0001:00009d60       ?internal_construct@reader_writer_lock@interface5@tbb@@AEAAXXZ 000000018000ad60 f   reader_writer_lock.obj
 0001:00009d80       ?lock@reader_writer_lock@interface5@tbb@@QEAAXXZ 000000018000ad80 f   reader_writer_lock.obj
 0001:00009e00       ?try_lock@reader_writer_lock@interface5@tbb@@QEAA_NXZ 000000018000ae00 f   reader_writer_lock.obj
 0001:00009e70       ?start_write@reader_writer_lock@interface5@tbb@@AEAA_NPEAVscoped_lock@123@@Z 000000018000ae70 f   reader_writer_lock.obj
 0001:00009fc0       ??_Gscoped_lock@reader_writer_lock@interface5@tbb@@QEAAPEAXI@Z 000000018000afc0 f i reader_writer_lock.obj
 0001:0000a000       ?set_next_writer@reader_writer_lock@interface5@tbb@@AEAAXPEAVscoped_lock@123@@Z 000000018000b000 f   reader_writer_lock.obj
 0001:0000a0f0       ?lock_read@reader_writer_lock@interface5@tbb@@QEAAXXZ 000000018000b0f0 f   reader_writer_lock.obj
 0001:0000a180       ?try_lock_read@reader_writer_lock@interface5@tbb@@QEAA_NXZ 000000018000b180 f   reader_writer_lock.obj
 0001:0000a1e0       ?start_read@reader_writer_lock@interface5@tbb@@AEAAXPEAVscoped_lock_read@123@@Z 000000018000b1e0 f   reader_writer_lock.obj
 0001:0000a2d0       ?unlock@reader_writer_lock@interface5@tbb@@QEAAXXZ 000000018000b2d0 f   reader_writer_lock.obj
 0001:0000a350       ?end_write@reader_writer_lock@interface5@tbb@@AEAAXPEAVscoped_lock@123@@Z 000000018000b350 f   reader_writer_lock.obj
 0001:0000a470       ?internal_construct@scoped_lock@reader_writer_lock@interface5@tbb@@AEAAXAEAV234@@Z 000000018000b470 f   reader_writer_lock.obj
 0001:0000a4d0       ?internal_construct@scoped_lock_read@reader_writer_lock@interface5@tbb@@AEAAXAEAV234@@Z 000000018000b4d0 f   reader_writer_lock.obj
 0001:0000a530       ?internal_destroy@scoped_lock@reader_writer_lock@interface5@tbb@@AEAAXXZ 000000018000b530 f   reader_writer_lock.obj
 0001:0000a570       ?internal_destroy@scoped_lock_read@reader_writer_lock@interface5@tbb@@AEAAXXZ 000000018000b570 f   reader_writer_lock.obj
 0001:0000a5d0       ?internal_acquire_writer@spin_rw_mutex_v3@tbb@@AEAA_NXZ 000000018000b5d0 f   spin_rw_mutex.obj
 0001:0000a5d0       ?internal_acquire_writer@spin_rw_mutex@tbb@@CA_NPEAV12@@Z 000000018000b5d0 f   spin_rw_mutex_v2.obj
 0001:0000a690       ?internal_release_writer@spin_rw_mutex_v3@tbb@@AEAAXXZ 000000018000b690 f   spin_rw_mutex.obj
 0001:0000a6c0       ?internal_acquire_reader@spin_rw_mutex_v3@tbb@@AEAAXXZ 000000018000b6c0 f   spin_rw_mutex.obj
 0001:0000a740       ?internal_upgrade@spin_rw_mutex_v3@tbb@@AEAA_NXZ 000000018000b740 f   spin_rw_mutex.obj
 0001:0000a860       ?internal_downgrade@spin_rw_mutex_v3@tbb@@AEAAXXZ 000000018000b860 f   spin_rw_mutex.obj
 0001:0000a890       ?internal_release_reader@spin_rw_mutex@tbb@@CAXPEAV12@@Z 000000018000b890 f   spin_rw_mutex_v2.obj
 0001:0000a890       ?internal_release_reader@spin_rw_mutex_v3@tbb@@AEAAXXZ 000000018000b890 f   spin_rw_mutex.obj
 0001:0000a8c0       ?internal_try_acquire_writer@spin_rw_mutex@tbb@@CA_NPEAV12@@Z 000000018000b8c0 f   spin_rw_mutex_v2.obj
 0001:0000a8c0       ?internal_try_acquire_writer@spin_rw_mutex_v3@tbb@@AEAA_NXZ 000000018000b8c0 f   spin_rw_mutex.obj
 0001:0000a930       ?internal_try_acquire_reader@spin_rw_mutex_v3@tbb@@AEAA_NXZ 000000018000b930 f   spin_rw_mutex.obj
 0001:0000a970       ?internal_construct@spin_rw_mutex_v3@tbb@@AEAAXXZ 000000018000b970 f   spin_rw_mutex.obj
 0001:0000a9a0       ?internal_release@x86_rtm_rw_mutex@internal@interface8@tbb@@AEAAXAEAVscoped_lock@1234@@Z 000000018000b9a0 f   x86_rtm_rw_mutex.obj
 0001:0000aa00       ?internal_acquire_writer@x86_rtm_rw_mutex@internal@interface8@tbb@@AEAAXAEAVscoped_lock@1234@_N@Z 000000018000ba00 f   x86_rtm_rw_mutex.obj
 0001:0000aae0       ?internal_acquire_reader@x86_rtm_rw_mutex@internal@interface8@tbb@@AEAAXAEAVscoped_lock@1234@_N@Z 000000018000bae0 f   x86_rtm_rw_mutex.obj
 0001:0000abc0       ?internal_upgrade@x86_rtm_rw_mutex@internal@interface8@tbb@@AEAA_NAEAVscoped_lock@1234@@Z 000000018000bbc0 f   x86_rtm_rw_mutex.obj
 0001:0000acf0       ?internal_downgrade@x86_rtm_rw_mutex@internal@interface8@tbb@@AEAA_NAEAVscoped_lock@1234@@Z 000000018000bcf0 f   x86_rtm_rw_mutex.obj
 0001:0000ad30       ?internal_try_acquire_writer@x86_rtm_rw_mutex@internal@interface8@tbb@@AEAA_NAEAVscoped_lock@1234@@Z 000000018000bd30 f   x86_rtm_rw_mutex.obj
 0001:0000adc0       ?internal_construct@x86_rtm_rw_mutex@internal@interface8@tbb@@AEAAXXZ 000000018000bdc0 f   x86_rtm_rw_mutex.obj
 0001:0000adf0       ?internal_acquire@scoped_lock@spin_mutex@tbb@@AEAAXAEAV23@@Z 000000018000bdf0 f   spin_mutex.obj
 0001:0000ae90       ?internal_release@scoped_lock@spin_mutex@tbb@@AEAAXXZ 000000018000be90 f   spin_mutex.obj
 0001:0000aec0       ?internal_try_acquire@scoped_lock@spin_mutex@tbb@@AEAA_NAEAV23@@Z 000000018000bec0 f   spin_mutex.obj
 0001:0000af00       ?internal_construct@spin_mutex@tbb@@QEAAXXZ 000000018000bf00 f   spin_mutex.obj
 0001:0000af30       ?internal_construct@critical_section_v4@internal@tbb@@QEAAXXZ 000000018000bf30 f   critical_section.obj
 0001:0000af60       ?internal_acquire@scoped_lock@mutex@tbb@@AEAAXAEAV23@@Z 000000018000bf60 f   mutex.obj
 0001:0000afc0       ?internal_release@scoped_lock@mutex@tbb@@AEAAXXZ 000000018000bfc0 f   mutex.obj
 0001:0000b000       ?internal_try_acquire@scoped_lock@mutex@tbb@@AEAA_NAEAV23@@Z 000000018000c000 f   mutex.obj
 0001:0000b040       ?internal_construct@mutex@tbb@@AEAAXXZ 000000018000c040 f   mutex.obj
 0001:0000b090       ?internal_destroy@mutex@tbb@@AEAAXXZ 000000018000c090 f   mutex.obj
 0001:0000b090       ?internal_destroy@recursive_mutex@tbb@@AEAAXXZ 000000018000c090 f   recursive_mutex.obj
 0001:0000b0d0       ?internal_acquire@scoped_lock@recursive_mutex@tbb@@AEAAXAEAV23@@Z 000000018000c0d0 f   recursive_mutex.obj
 0001:0000b110       ?internal_release@scoped_lock@recursive_mutex@tbb@@AEAAXXZ 000000018000c110 f   recursive_mutex.obj
 0001:0000b140       ?internal_try_acquire@scoped_lock@recursive_mutex@tbb@@AEAA_NAEAV23@@Z 000000018000c140 f   recursive_mutex.obj
 0001:0000b170       ?internal_construct@recursive_mutex@tbb@@AEAAXXZ 000000018000c170 f   recursive_mutex.obj
 0001:0000b1c0       ?init_condvar_using_event@internal@tbb@@YAXPEAUcondition_variable_using_event@1interface5@2@@Z 000000018000c1c0 f   condition_variable.obj
 0001:0000b200       ?sleep_condition_variable_cs_using_event@internal@tbb@@YAHPEAUcondition_variable_using_event@1interface5@2@PEAU_RTL_CRITICAL_SECTION@@K@Z 000000018000c200 f   condition_variable.obj
 0001:0000b310       ?wake_condition_variable_using_event@internal@tbb@@YAXPEAUcondition_variable_using_event@1interface5@2@@Z 000000018000c310 f   condition_variable.obj
 0001:0000b360       ?wake_all_condition_variable_using_event@internal@tbb@@YAXPEAUcondition_variable_using_event@1interface5@2@@Z 000000018000c360 f   condition_variable.obj
 0001:0000b3b0       ?destroy_condvar_using_event@internal@tbb@@YAXPEAUcondition_variable_using_event@1interface5@2@@Z 000000018000c3b0 f   condition_variable.obj
 0001:0000b450       ?init_condvar_module@internal@tbb@@YAXXZ 000000018000c450 f   condition_variable.obj
 0001:0000b4f0       ?internal_initialize_condition_variable@internal@interface5@tbb@@YAXAEATcondvar_impl_t@123@@Z 000000018000c4f0 f   condition_variable.obj
 0001:0000b590       ?internal_destroy_condition_variable@internal@interface5@tbb@@YAXAEATcondvar_impl_t@123@@Z 000000018000c590 f   condition_variable.obj
 0001:0000b5a0       ?internal_condition_variable_notify_one@internal@interface5@tbb@@YAXAEATcondvar_impl_t@123@@Z 000000018000c5a0 f   condition_variable.obj
 0001:0000b5b0       ?internal_condition_variable_notify_all@internal@interface5@tbb@@YAXAEATcondvar_impl_t@123@@Z 000000018000c5b0 f   condition_variable.obj
 0001:0000b5c0       ?internal_condition_variable_wait@internal@interface5@tbb@@YA_NAEATcondvar_impl_t@123@PEAVmutex@3@PEBVinterval_t@tick_count@3@@Z 000000018000c5c0 f   condition_variable.obj
 0001:0000b650       ?join@tbb_thread_v3@internal@tbb@@QEAAXXZ 000000018000c650 f   tbb_thread.obj
 0001:0000b6f0       ?detach@tbb_thread_v3@internal@tbb@@QEAAXXZ 000000018000c6f0 f   tbb_thread.obj
 0001:0000b740       ?internal_start@tbb_thread_v3@internal@tbb@@AEAAXP6AIPEAX@Z0@Z 000000018000c740 f   tbb_thread.obj
 0001:0000b7c0       ?hardware_concurrency@tbb_thread_v3@internal@tbb@@SAIXZ 000000018000c7c0 f   tbb_thread.obj
 0001:0000b7f0       ?thread_get_id_v3@internal@tbb@@YA?AVid@tbb_thread_v3@12@XZ 000000018000c7f0 f   tbb_thread.obj
 0001:0000b810       ?move_v3@internal@tbb@@YAXAEAVtbb_thread_v3@12@0@Z 000000018000c810 f   tbb_thread.obj
 0001:0000b870       ?yield@private_server@rml@internal@tbb@@UEAAXXZ 000000018000c870 f   private_server.obj
 0001:0000b870       ?thread_yield_v3@internal@tbb@@YAXXZ 000000018000c870 f   tbb_thread.obj
 0001:0000b880       ?thread_sleep_v3@internal@tbb@@YAXAEBVinterval_t@tick_count@2@@Z 000000018000c880 f   tbb_thread.obj
 0001:0000b9b0       ?init@thread_context@concurrent_monitor@internal@tbb@@AEAAXXZ 000000018000c9b0 f   concurrent_monitor.obj
 0001:0000ba00       ?prepare_wait@concurrent_monitor@internal@tbb@@QEAAXAEAVthread_context@123@_K@Z 000000018000ca00 f   concurrent_monitor.obj
 0001:0000bae0       ?cancel_wait@concurrent_monitor@internal@tbb@@QEAAXAEAVthread_context@123@@Z 000000018000cae0 f   concurrent_monitor.obj
 0001:0000bba0       ?notify_all_relaxed@concurrent_monitor@internal@tbb@@QEAAXXZ 000000018000cba0 f   concurrent_monitor.obj
 0001:0000bcc0       ?abort_all_relaxed@concurrent_monitor@internal@tbb@@QEAAXXZ 000000018000ccc0 f   concurrent_monitor.obj
 0001:0000bde0       __local_stdio_printf_options 000000018000cde0 f i private_server.obj
 0001:0000bdf0       fprintf                    000000018000cdf0 f i private_server.obj
 0001:0000be40       ?launch@thread_monitor@internal@rml@@SAPEAXP6AIPEAX@Z0_KPEB_K@Z 000000018000ce40 f i private_server.obj
 0001:0000bf40       ?version@private_server@rml@internal@tbb@@UEBAIXZ 000000018000cf40 f i private_server.obj
 0001:0000bf40       ?execute@empty_task@tbb@@EEAAPEAVtask@2@XZ 000000018000cf40 f i arena.obj
 0001:0000bf40       ?_Get_deleter@_Ref_count_base@std@@UEBAPEAXAEBVtype_info@@@Z 000000018000cf40 f i libcpmt:excptptr.obj
 0001:0000bf40       ?version@market@internal@tbb@@EEBAIXZ 000000018000cf40 f i market.obj
 0001:0000bf50       ?request_close_connection@private_server@rml@internal@tbb@@UEAAX_N@Z 000000018000cf50 f i private_server.obj
 0001:0000bfd0       ?default_concurrency@private_server@rml@internal@tbb@@UEBAIXZ 000000018000cfd0 f i private_server.obj
 0001:0000bff0       ?thread_routine@private_worker@rml@internal@tbb@@CAIPEAX@Z 000000018000cff0 f   private_server.obj
 0001:0000c060       ?start_shutdown@private_worker@rml@internal@tbb@@AEAAXXZ 000000018000d060 f   private_server.obj
 0001:0000c120       ?run@private_worker@rml@internal@tbb@@AEAAXXZ 000000018000d120 f   private_server.obj
 0001:0000c2c0       ??0private_server@rml@internal@tbb@@QEAA@AEAVtbb_client@123@@Z 000000018000d2c0 f   private_server.obj
 0001:0000c450       ??_Eprivate_server@rml@internal@tbb@@EEAAPEAXI@Z 000000018000d450 f i * CIL library *:* CIL module *
 0001:0000c450       ??_Gprivate_server@rml@internal@tbb@@EEAAPEAXI@Z 000000018000d450 f i private_server.obj
 0001:0000c490       ??1private_server@rml@internal@tbb@@EEAA@XZ 000000018000d490 f   private_server.obj
 0001:0000c510       ?wake_some@private_server@rml@internal@tbb@@AEAAXH@Z 000000018000d510 f   private_server.obj
 0001:0000c6c0       ?adjust_job_count_estimate@private_server@rml@internal@tbb@@UEAAXH@Z 000000018000d6c0 f   private_server.obj
 0001:0000c6e0       ?open@tbb_factory@rml@internal@tbb@@QEAA?AW4status_type@factory@2@XZ 000000018000d6e0 f   rml_tbb.obj
 0001:0000c810       ??0exception@std@@QEAA@AEBV01@@Z 000000018000d810 f i tbb_misc.obj
 0001:0000c850       ?what@exception@std@@UEBAPEBDXZ 000000018000d850 f i tbb_misc.obj
 0001:0000c870       ??_Grange_error@std@@UEAAPEAXI@Z 000000018000d870 f i tbb_misc.obj
 0001:0000c870       ??_Gexception@std@@UEAAPEAXI@Z 000000018000d870 f i tbb_misc.obj
 0001:0000c870       ??_Ginvalid_argument@std@@UEAAPEAXI@Z 000000018000d870 f i tbb_misc.obj
 0001:0000c870       ??_Ebad_last_alloc@tbb@@UEAAPEAXI@Z 000000018000d870 f i * CIL library *:* CIL module *
 0001:0000c870       ??_Ebad_alloc@std@@UEAAPEAXI@Z 000000018000d870 f i * CIL library *:* CIL module *
 0001:0000c870       ??_E__non_rtti_object@std@@UEAAPEAXI@Z 000000018000d870 f i libvcruntime:rtti.obj
 0001:0000c870       ??_Ebad_array_new_length@std@@UEAAPEAXI@Z 000000018000d870 f i LIBCMT:throw_bad_alloc.obj
 0001:0000c870       ??_Einvalid_multiple_scheduling@tbb@@UEAAPEAXI@Z 000000018000d870 f i * CIL library *:* CIL module *
 0001:0000c870       ??_Eout_of_range@std@@UEAAPEAXI@Z 000000018000d870 f i * CIL library *:* CIL module *
 0001:0000c870       ??_Glength_error@std@@UEAAPEAXI@Z 000000018000d870 f i tbb_misc.obj
 0001:0000c870       ??_Gbad_last_alloc@tbb@@UEAAPEAXI@Z 000000018000d870 f i tbb_misc.obj
 0001:0000c870       ??_Eruntime_error@std@@UEAAPEAXI@Z 000000018000d870 f i * CIL library *:* CIL module *
 0001:0000c870       ??_Erange_error@std@@UEAAPEAXI@Z 000000018000d870 f i * CIL library *:* CIL module *
 0001:0000c870       ??_Gbad_array_new_length@std@@UEAAPEAXI@Z 000000018000d870 f i LIBCMT:throw_bad_alloc.obj
 0001:0000c870       ??_Eimproper_lock@tbb@@UEAAPEAXI@Z 000000018000d870 f i * CIL library *:* CIL module *
 0001:0000c870       ??_Eexception@std@@UEAAPEAXI@Z 000000018000d870 f i * CIL library *:* CIL module *
 0001:0000c870       ??_Gbad_typeid@std@@UEAAPEAXI@Z 000000018000d870 f i libvcruntime:rtti.obj
 0001:0000c870       ??_Einvalid_argument@std@@UEAAPEAXI@Z 000000018000d870 f i * CIL library *:* CIL module *
 0001:0000c870       ??_Gout_of_range@std@@UEAAPEAXI@Z 000000018000d870 f i tbb_misc.obj
 0001:0000c870       ??_Ebad_typeid@std@@UEAAPEAXI@Z 000000018000d870 f i libvcruntime:rtti.obj
 0001:0000c870       ??_Elength_error@std@@UEAAPEAXI@Z 000000018000d870 f i * CIL library *:* CIL module *
 0001:0000c870       ??_Gmissing_wait@tbb@@UEAAPEAXI@Z 000000018000d870 f i tbb_misc.obj
 0001:0000c870       ??_Gbad_alloc@std@@UEAAPEAXI@Z 000000018000d870 f i tbb_misc.obj
 0001:0000c870       ??_Gruntime_error@std@@UEAAPEAXI@Z 000000018000d870 f i tbb_misc.obj
 0001:0000c870       ??_G__non_rtti_object@std@@UEAAPEAXI@Z 000000018000d870 f i libvcruntime:rtti.obj
 0001:0000c870       ??_Ginvalid_multiple_scheduling@tbb@@UEAAPEAXI@Z 000000018000d870 f i tbb_misc.obj
 0001:0000c870       ??_Gbad_exception@std@@UEAAPEAXI@Z 000000018000d870 f i libcpmt:excptptr.obj
 0001:0000c870       ??_Guser_abort@tbb@@UEAAPEAXI@Z 000000018000d870 f i tbb_misc.obj
 0001:0000c870       ??_Euser_abort@tbb@@UEAAPEAXI@Z 000000018000d870 f i * CIL library *:* CIL module *
 0001:0000c870       ??_Emissing_wait@tbb@@UEAAPEAXI@Z 000000018000d870 f i * CIL library *:* CIL module *
 0001:0000c870       ??_Glogic_error@std@@UEAAPEAXI@Z 000000018000d870 f i tbb_misc.obj
 0001:0000c870       ??_Gimproper_lock@tbb@@UEAAPEAXI@Z 000000018000d870 f i tbb_misc.obj
 0001:0000c870       ??_Ebad_exception@std@@UEAAPEAXI@Z 000000018000d870 f i libcpmt:excptptr.obj
 0001:0000c870       ??_Elogic_error@std@@UEAAPEAXI@Z 000000018000d870 f i * CIL library *:* CIL module *
 0001:0000c8c0       ??0bad_alloc@std@@QEAA@XZ  000000018000d8c0 f i tbb_misc.obj
 0001:0000c8e0       ??1out_of_range@std@@UEAA@XZ 000000018000d8e0 f i tbb_misc.obj
 0001:0000c8e0       ??1range_error@std@@UEAA@XZ 000000018000d8e0 f i tbb_misc.obj
 0001:0000c8e0       ??1missing_wait@tbb@@UEAA@XZ 000000018000d8e0 f i tbb_misc.obj
 0001:0000c8e0       ??1bad_last_alloc@tbb@@UEAA@XZ 000000018000d8e0 f i tbb_misc.obj
 0001:0000c8e0       ??1__non_rtti_object@std@@UEAA@XZ 000000018000d8e0 f i libvcruntime:rtti.obj
 0001:0000c8e0       ??1improper_lock@tbb@@UEAA@XZ 000000018000d8e0 f i tbb_misc.obj
 0001:0000c8e0       ??1bad_typeid@std@@UEAA@XZ 000000018000d8e0 f i libvcruntime:rtti.obj
 0001:0000c8e0       ??1user_abort@tbb@@UEAA@XZ 000000018000d8e0 f i tbb_misc.obj
 0001:0000c8e0       ??1runtime_error@std@@UEAA@XZ 000000018000d8e0 f i tbb_misc.obj
 0001:0000c8e0       ??1length_error@std@@UEAA@XZ 000000018000d8e0 f i tbb_misc.obj
 0001:0000c8e0       ??1bad_array_new_length@std@@UEAA@XZ 000000018000d8e0 f i LIBCMT:throw_bad_alloc.obj
 0001:0000c8e0       ??1invalid_argument@std@@UEAA@XZ 000000018000d8e0 f i tbb_misc.obj
 0001:0000c8e0       ??1bad_exception@std@@UEAA@XZ 000000018000d8e0 f i libcpmt:excptptr.obj
 0001:0000c8e0       ??1bad_alloc@std@@UEAA@XZ  000000018000d8e0 f i tbb_misc.obj
 0001:0000c8e0       ??1invalid_multiple_scheduling@tbb@@UEAA@XZ 000000018000d8e0 f i tbb_misc.obj
 0001:0000c900       _snprintf                  000000018000d900 f i tbb_misc.obj
 0001:0000c960       ?set_assertion_handler@tbb@@YAP6AXPEBDH00@ZP6AX0H00@Z@Z 000000018000d960 f   tbb_misc.obj
 0001:0000c970       ?assertion_failure@tbb@@YAXPEBDH00@Z 000000018000d970 f   tbb_misc.obj
 0001:0000ca20       ?runtime_warning@internal@tbb@@YAXPEBDZZ 000000018000da20 f   tbb_misc.obj
 0001:0000cae0       ??0length_error@std@@QEAA@PEBD@Z 000000018000dae0 f i tbb_misc.obj
 0001:0000cb30       ??0runtime_error@std@@QEAA@AEBV01@@Z 000000018000db30 f i tbb_misc.obj
 0001:0000cb70       ?what@bad_last_alloc@tbb@@UEBAPEBDXZ 000000018000db70 f   tbb_misc.obj
 0001:0000cb80       ?what@improper_lock@tbb@@UEBAPEBDXZ 000000018000db80 f   tbb_misc.obj
 0001:0000cb90       ?what@user_abort@tbb@@UEBAPEBDXZ 000000018000db90 f   tbb_misc.obj
 0001:0000cba0       ?what@invalid_multiple_scheduling@tbb@@UEBAPEBDXZ 000000018000dba0 f   tbb_misc.obj
 0001:0000cbb0       ?what@missing_wait@tbb@@UEBAPEBDXZ 000000018000dbb0 f   tbb_misc.obj
 0001:0000cbc0       ?handle_perror@internal@tbb@@YAXHPEBD@Z 000000018000dbc0 f   tbb_misc.obj
 0001:0000cc60       ?handle_win_error@internal@tbb@@YAXH@Z 000000018000dc60 f   tbb_misc.obj
 0001:0000cd00       ?throw_bad_last_alloc_exception_v4@internal@tbb@@YAXXZ 000000018000dd00 f   tbb_misc.obj
 0001:0000cd40       ?throw_exception_v4@internal@tbb@@YAXW4exception_id@12@@Z 000000018000dd40 f   tbb_misc.obj
 0001:0000d2f0       ??0bad_alloc@std@@QEAA@AEBV01@@Z 000000018000e2f0 f i tbb_misc.obj
 0001:0000d330       ??0bad_last_alloc@tbb@@QEAA@AEBV01@@Z 000000018000e330 f i tbb_misc.obj
 0001:0000d370       ??0invalid_argument@std@@QEAA@AEBV01@@Z 000000018000e370 f i tbb_misc.obj
 0001:0000d3b0       ??0logic_error@std@@QEAA@AEBV01@@Z 000000018000e3b0 f i tbb_misc.obj
 0001:0000d3f0       ??0out_of_range@std@@QEAA@AEBV01@@Z 000000018000e3f0 f i tbb_misc.obj
 0001:0000d430       ??0range_error@std@@QEAA@AEBV01@@Z 000000018000e430 f i tbb_misc.obj
 0001:0000d470       ??0missing_wait@tbb@@QEAA@AEBV01@@Z 000000018000e470 f i tbb_misc.obj
 0001:0000d4b0       ??0invalid_multiple_scheduling@tbb@@QEAA@AEBV01@@Z 000000018000e4b0 f i tbb_misc.obj
 0001:0000d4f0       ??0improper_lock@tbb@@QEAA@AEBV01@@Z 000000018000e4f0 f i tbb_misc.obj
 0001:0000d530       ??0length_error@std@@QEAA@AEBV01@@Z 000000018000e530 f i tbb_misc.obj
 0001:0000d570       ??0user_abort@tbb@@QEAA@AEBV01@@Z 000000018000e570 f i tbb_misc.obj
 0001:0000d5b0       ?PrintExtraVersionInfo@internal@tbb@@YAXPEBD0ZZ 000000018000e5b0 f   tbb_misc.obj
 0001:0000d680       ?PrintRMLVersionInfo@internal@tbb@@YAXPEAXPEBD@Z 000000018000e680 f   tbb_misc.obj
 0001:0000d690       TBB_runtime_interface_version 000000018000e690 f   tbb_misc.obj
 0001:0000d930       ?FindProcessorGroupIndex@internal@tbb@@YAHH@Z 000000018000e930 f   tbb_misc_ex.obj
 0001:0000da10       ?AvailableHwConcurrency@internal@tbb@@YAHXZ 000000018000ea10 f   tbb_misc_ex.obj
 0001:0000dac0       ?local_scheduler_weak@governor@internal@tbb@@SAPEAVgeneric_scheduler@23@XZ 000000018000eac0 f i task.obj
 0001:0000db20       ?allocate@allocate_root_proxy@internal@tbb@@SAAEAVtask@3@_K@Z 000000018000eb20 f   task.obj
 0001:0000dbc0       ?free@allocate_root_proxy@internal@tbb@@SAXAEAVtask@3@@Z 000000018000ebc0 f   task.obj
 0001:0000dc50       ?allocate@allocate_root_with_context_proxy@internal@tbb@@QEBAAEAVtask@3@_K@Z 000000018000ec50 f   task.obj
 0001:0000dd70       ?free@allocate_child_proxy@internal@tbb@@QEBAXAEAVtask@3@@Z 000000018000ed70 f   task.obj
 0001:0000dd70       ?free@allocate_root_with_context_proxy@internal@tbb@@QEBAXAEAVtask@3@@Z 000000018000ed70 f   task.obj
 0001:0000de00       ?allocate@allocate_continuation_proxy@internal@tbb@@QEBAAEAVtask@3@_K@Z 000000018000ee00 f   task.obj
 0001:0000de80       ?free@allocate_continuation_proxy@internal@tbb@@QEBAXAEAVtask@3@@Z 000000018000ee80 f   task.obj
 0001:0000df20       ?allocate@allocate_child_proxy@internal@tbb@@QEBAAEAVtask@3@_K@Z 000000018000ef20 f   task.obj
 0001:0000dfa0       ?allocate@allocate_additional_child_of_proxy@internal@tbb@@QEBAAEAVtask@3@_K@Z 000000018000efa0 f   task.obj
 0001:0000e030       ?free@allocate_additional_child_of_proxy@internal@tbb@@QEBAXAEAVtask@3@@Z 000000018000f030 f   task.obj
 0001:0000e110       ?get_initial_auto_partitioner_divisor@internal@tbb@@YA_KXZ 000000018000f110 f   task.obj
 0001:0000e150       ?resize@affinity_partitioner_base_v3@internal@tbb@@AEAAXI@Z 000000018000f150 f   task.obj
 0001:0000e260       ?internal_set_ref_count@task@tbb@@AEAAXH@Z 000000018000f260 f   task.obj
 0001:0000e2a0       ?internal_decrement_ref_count@task@tbb@@AEAA_JXZ 000000018000f2a0 f   task.obj
 0001:0000e2f0       ?self@task@tbb@@SAAEAV12@XZ 000000018000f2f0 f   task.obj
 0001:0000e350       __acrt_uninitialize_command_line 000000018000f350 f   libucrt:argv_data.obj
 0001:0000e350       ?is_owned_by_current_thread@task@tbb@@QEBA_NXZ 000000018000f350 f   task.obj
 0001:0000e360       ?destroy@task_base@internal@interface5@tbb@@SAXAEAVtask@4@@Z 000000018000f360 f   task.obj
 0001:0000e470       ?spawn_and_wait_for_all@task@tbb@@QEAAXAEAVtask_list@2@@Z 000000018000f470 f   task.obj
 0001:0000e510       ?change_group@task@tbb@@QEAAXAEAVtask_group_context@2@@Z 000000018000f510 f   task.obj
 0001:0000e600       ??1exception_ptr@std@@QEAA@XZ 000000018000f600 f i task_group_context.obj
 0001:0000e610       ?_Current_exception@exception_ptr@std@@SA?AV12@XZ 000000018000f610 f i task_group_context.obj
 0001:0000e630       ?_Copy_exception@exception_ptr@std@@SA?AV12@PEAXPEBX@Z 000000018000f630 f i task_group_context.obj
 0001:0000e6a0       ?current_exception@std@@YA?AVexception_ptr@1@XZ 000000018000f6a0 f i task_group_context.obj
 0001:0000e6c0       ??0captured_exception@tbb@@QEAA@AEBV01@@Z 000000018000f6c0 f i task_group_context.obj
 0001:0000e740       ?throw_self@captured_exception@tbb@@UEAAXXZ 000000018000f740 f i task_group_context.obj
 0001:0000e7c0       ??_Ecaptured_exception@tbb@@UEAAPEAXI@Z 000000018000f7c0 f i * CIL library *:* CIL module *
 0001:0000e7c0       ??_Gcaptured_exception@tbb@@UEAAPEAXI@Z 000000018000f7c0 f i task_group_context.obj
 0001:0000e850       ??0tbb_exception@tbb@@QEAA@AEBV01@@Z 000000018000f850 f i task_group_context.obj
 0001:0000e890       ??_Etbb_exception@tbb@@UEAAPEAXI@Z 000000018000f890 f i * CIL library *:* CIL module *
 0001:0000e890       ??_Gtbb_exception@tbb@@UEAAPEAXI@Z 000000018000f890 f i task_group_context.obj
 0001:0000e900       ??0tbb_exception_ptr@internal@tbb@@QEAA@AEBVcaptured_exception@2@@Z 000000018000f900 f i task_group_context.obj
 0001:0000e990       ?lock@spin_mutex@tbb@@QEAAXXZ 000000018000f990 f i task_group_context.obj
 0001:0000e9f0       ?duplicate_string@tbb@@YAPEADPEBD@Z 000000018000f9f0 f i task_group_context.obj
 0001:0000ea60       ??1captured_exception@tbb@@UEAA@XZ 000000018000fa60 f   task_group_context.obj
 0001:0000eab0       ?set@captured_exception@tbb@@QEAAXPEBD0@Z 000000018000fab0 f   task_group_context.obj
 0001:0000eaf0       ?clear@captured_exception@tbb@@QEAAXXZ 000000018000faf0 f   task_group_context.obj
 0001:0000eb30       ?move@captured_exception@tbb@@UEAAPEAV12@XZ 000000018000fb30 f   task_group_context.obj
 0001:0000ebb0       ?destroy@captured_exception@tbb@@UEAAXXZ 000000018000fbb0 f   task_group_context.obj
 0001:0000ec10       ?allocate@captured_exception@tbb@@SAPEAV12@PEBD0@Z 000000018000fc10 f   task_group_context.obj
 0001:0000ec90       ?name@captured_exception@tbb@@UEBAPEBDXZ 000000018000fc90 f   task_group_context.obj
 0001:0000eca0       ?what@captured_exception@tbb@@UEBAPEBDXZ 000000018000fca0 f   task_group_context.obj
 0001:0000ecb0       ?allocate@tbb_exception_ptr@internal@tbb@@SAPEAV123@XZ 000000018000fcb0 f   task_group_context.obj
 0001:0000ecb0       ?allocate@tbb_exception_ptr@internal@tbb@@SAPEAV123@AEBVtbb_exception@3@@Z 000000018000fcb0 f   task_group_context.obj
 0001:0000ed20       ?allocate@tbb_exception_ptr@internal@tbb@@SAPEAV123@AEAVcaptured_exception@3@@Z 000000018000fd20 f   task_group_context.obj
 0001:0000ed70       ??1task_group_context@tbb@@QEAA@XZ 000000018000fd70 f   task_group_context.obj
 0001:0000efe0       ?init@task_group_context@tbb@@IEAAXXZ 000000018000ffe0 f   task_group_context.obj
 0001:0000f040       ?register_with@task_group_context@tbb@@QEAAXPEAVgeneric_scheduler@internal@2@@Z 0000000180010040 f   task_group_context.obj
 0001:0000f170       ?bind_to@task_group_context@tbb@@QEAAXPEAVgeneric_scheduler@internal@2@@Z 0000000180010170 f   task_group_context.obj
 0001:0000f2e0       ?cancel_group_execution@task_group_context@tbb@@QEAA_NXZ 00000001800102e0 f   task_group_context.obj
 0001:0000f330       ?is_group_execution_cancelled@task_group_context@tbb@@QEBA_NXZ 0000000180010330 f   task_group_context.obj
 0001:0000f340       ?reset@task_group_context@tbb@@QEAAXXZ 0000000180010340 f   task_group_context.obj
 0001:0000f3a0       ?capture_fp_settings@task_group_context@tbb@@QEAAXXZ 00000001800103a0 f   task_group_context.obj
 0001:0000f3e0       ?register_pending_exception@task_group_context@tbb@@QEAAXXZ 00000001800103e0 f   task_group_context.obj
 0001:0000f410       ?set_priority@task_group_context@tbb@@QEAAXW4priority_t@2@@Z 0000000180010410 f   task_group_context.obj
 0001:0000f4d0       ?priority@task_group_context@tbb@@QEBA?AW4priority_t@2@XZ 00000001800104d0 f   task_group_context.obj
 0001:0000f4f0       ??$make_exception_ptr@Vcaptured_exception@tbb@@@std@@YA?AVexception_ptr@0@Vcaptured_exception@tbb@@@Z 00000001800104f0 f i task_group_context.obj
 0001:0000f560       ??$spin_wait_until_eq@U?$atomic@_K@tbb@@I@internal@tbb@@YAXAEDU?$atomic@_K@1@I@Z 0000000180010560 f i task_group_context.obj
 0001:0000f5c0       ??$propagate_task_group_state@_K@market@internal@tbb@@QEAA_NPEQtask_group_context@2@_KAEAV32@_K@Z 00000001800105c0 f i task_group_context.obj
 0001:0000f6c0       ??$propagate_task_group_state@_J@market@internal@tbb@@QEAA_NPEQtask_group_context@2@_JAEAV32@_J@Z 00000001800106c0 f i task_group_context.obj
 0001:0000f7f0       ??$propagate_task_group_state@_K@generic_scheduler@internal@tbb@@QEAAXPEQtask_group_context@2@_KAEAV32@_K@Z 00000001800107f0 f i task_group_context.obj
 0001:0000f8f0       ??$propagate_task_group_state@_J@generic_scheduler@internal@tbb@@QEAAXPEQtask_group_context@2@_JAEAV32@_J@Z 00000001800108f0 f i task_group_context.obj
 0001:0000fa00       ?initialize_cilk_interop@internal@tbb@@YA_NXZ 0000000180010a00 f   governor.obj
 0001:0000fa80       ?release_resources@governor@internal@tbb@@CAXXZ 0000000180010a80 f   governor.obj
 0001:0000fb20       ?create_rml_server@governor@internal@tbb@@CAPEAVtbb_server@rml@23@AEAVtbb_client@523@@Z 0000000180010b20 f   governor.obj
 0001:0000fbd0       ?assume_scheduler@governor@internal@tbb@@SAXPEAVgeneric_scheduler@23@@Z 0000000180010bd0 f   governor.obj
 0001:0000fc10       ?is_set@governor@internal@tbb@@SA_NPEAVgeneric_scheduler@23@@Z 0000000180010c10 f   governor.obj
 0001:0000fc60       ?sign_on@governor@internal@tbb@@SAXPEAVgeneric_scheduler@23@@Z 0000000180010c60 f   governor.obj
 0001:0000fce0       ?init_scheduler@governor@internal@tbb@@SAPEAVgeneric_scheduler@23@H_K_N@Z 0000000180010ce0 f   governor.obj
 0001:0000fe60       ?terminate_scheduler@governor@internal@tbb@@SAXPEAVgeneric_scheduler@23@PEBVtask_scheduler_init@3@@Z 0000000180010e60 f   governor.obj
 0001:0000ff50       ?stack_op_handler@governor@internal@tbb@@SAHW4__cilk_tbb_stack_op@@PEAX@Z 0000000180010f50 f   governor.obj
 0001:0000fff0       ?initialize@task_scheduler_init@tbb@@QEAAXH@Z 0000000180010ff0 f   governor.obj
 0001:00010000       ?initialize@task_scheduler_init@tbb@@QEAAXH_K@Z 0000000180011000 f   governor.obj
 0001:00010300       ?terminate@task_scheduler_init@tbb@@QEAAXXZ 0000000180011300 f   governor.obj
 0001:00010420       ?default_num_threads@task_scheduler_init@tbb@@SAHXZ 0000000180011420 f   governor.obj
 0001:00010440       ??$atomic_do_once@P6A_NXZ@internal@tbb@@YAXAEBQ6A_NXZAEAU?$atomic@W4do_once_state@internal@tbb@@@1@@Z 0000000180011440 f i governor.obj
 0001:00010500       ??1scoped_lock@spin_rw_mutex_v3@tbb@@QEAA@XZ 0000000180011500 f i market.obj
 0001:00010530       ?max_job_count@market@internal@tbb@@EEBAIXZ 0000000180011530 f i market.obj
 0001:00010540       ?min_stack_size@market@internal@tbb@@EEBA_KXZ 0000000180011540 f i market.obj
 0001:00010550       ?policy@market@internal@tbb@@EEBA?AW4policy_type@client@rml@@XZ 0000000180011550 f i market.obj
 0001:00010550       _get_startup_argv_mode     0000000180011550 f i LIBCMT:argv_mode.obj
 0001:00010550       ?length@charNode@@UEBAHXZ  0000000180011550 f i libvcruntime:undname.obj
 0001:00010560       ?recall_by_mandatory_request@arena@internal@tbb@@QEBA_NXZ 0000000180011560 f i market.obj
 0001:00010580       ??0market@internal@tbb@@AEAA@II_K@Z 0000000180011580 f   market.obj
 0001:00010690       ?global_market@market@internal@tbb@@CAAEAV123@_NI_K@Z 0000000180011690 f   market.obj
 0001:00010960       ?release@market@internal@tbb@@QEAAX_N@Z 0000000180011960 f   market.obj
 0001:00010a20       ?set_active_num_workers@market@internal@tbb@@SAXI@Z 0000000180011a20 f   market.obj
 0001:00010cb0       ?create_arena@market@internal@tbb@@SAPEAVarena@23@HH_K@Z 0000000180011cb0 f   market.obj
 0001:00010d60       ?try_destroy_arena@market@internal@tbb@@QEAAXPEAVarena@23@_K@Z 0000000180011d60 f   market.obj
 0001:00010eb0       ?arena_in_need@market@internal@tbb@@AEAAPEAVarena@23@PEAV423@@Z 0000000180011eb0 f   market.obj
 0001:00010f80       ?update_allotment@market@internal@tbb@@AEAAX_J@Z 0000000180011f80 f   market.obj
 0001:000110d0       ?mandatory_concurrency_enable@market@internal@tbb@@QEAA_NPEAVarena@23@@Z 00000001800120d0 f   market.obj
 0001:000111b0       ?mandatory_concurrency_disable@market@internal@tbb@@QEAAXPEAVarena@23@@Z 00000001800121b0 f   market.obj
 0001:00011340       ?adjust_demand@market@internal@tbb@@QEAAXAEAVarena@23@H@Z 0000000180012340 f   market.obj
 0001:00011620       ?process@market@internal@tbb@@EEAAXAEAVjob@rml@@@Z 0000000180012620 f   market.obj
 0001:000116c0       ?cleanup@market@internal@tbb@@EEAAXAEAVjob@rml@@@Z 00000001800126c0 f   market.obj
 0001:000117c0       ?acknowledge_close_connection@market@internal@tbb@@EEAAXXZ 00000001800127c0 f   market.obj
 0001:000117f0       ?create_one_job@market@internal@tbb@@EEAAPEAVjob@rml@@XZ 00000001800127f0 f   market.obj
 0001:00011870       ?update_arena_top_priority@market@internal@tbb@@AEAAXAEAVarena@23@_J@Z 0000000180012870 f   market.obj
 0001:00011980       ?lower_arena_priority@market@internal@tbb@@QEAA_NAEAVarena@23@_J_K@Z 0000000180012980 f   market.obj
 0001:00011a90       ?update_arena_priority@market@internal@tbb@@QEAA_NAEAVarena@23@_J@Z 0000000180012a90 f   market.obj
 0001:00011c30       ?throw_self@tbb_exception_ptr@internal@tbb@@QEAAXXZ 0000000180012c30 f i arena.obj
 0001:00011c60       ??1cpu_ctl_env_helper@internal@tbb@@QEAA@XZ 0000000180012c60 f i arena.obj
 0001:00011c80       ?occupy_free_slot_in_range@arena@internal@tbb@@QEAA_KAEAVgeneric_scheduler@23@_K1@Z 0000000180012c80 f   arena.obj
 0001:00011d60       ?process@arena@internal@tbb@@QEAAXAEAVgeneric_scheduler@23@@Z 0000000180012d60 f   arena.obj
 0001:00011fa0       ??0arena@internal@tbb@@QEAA@AEAVmarket@12@II@Z 0000000180012fa0 f   arena.obj
 0001:00012170       ??1?$padded@Uarena_base@internal@tbb@@$0IA@@internal@tbb@@QEAA@XZ 0000000180013170 f i arena.obj
 0001:000121a0       ?allocate_arena@arena@internal@tbb@@SAAEAV123@AEAVmarket@23@II@Z 00000001800131a0 f   arena.obj
 0001:00012280       ?free_arena@arena@internal@tbb@@QEAAXXZ 0000000180013280 f   arena.obj
 0001:00012420       ?restore_priorities_if_need@arena@internal@tbb@@AEAAXXZ 0000000180013420 f   arena.obj
 0001:000124d0       ?is_out_of_work@arena@internal@tbb@@QEAA_NXZ 00000001800134d0 f   arena.obj
 0001:00012840       ?enqueue_task@arena@internal@tbb@@QEAAXAEAVtask@3@_JAEAVFastRandom@23@@Z 0000000180013840 f   arena.obj
 0001:00012920       ??1nested_arena_context@internal@tbb@@QEAA@XZ 0000000180013920 f i arena.obj
 0001:000129b0       ?nested_arena_entry@generic_scheduler@internal@tbb@@QEAAXPEAVarena@23@_KAEAUnested_arena_context@23@_N@Z 00000001800139b0 f   arena.obj
 0001:00012bc0       ?nested_arena_exit@generic_scheduler@internal@tbb@@QEAAXAEAUnested_arena_context@23@@Z 0000000180013bc0 f   arena.obj
 0001:00012cf0       ??1auto_empty_task@internal@tbb@@QEAA@XZ 0000000180013cf0 f i arena.obj
 0001:00012d20       ?internal_initialize@task_arena_base@internal@interface7@tbb@@IEAAXXZ 0000000180013d20 f   arena.obj
 0001:00012ef0       ?internal_terminate@task_arena_base@internal@interface7@tbb@@IEAAXXZ 0000000180013ef0 f   arena.obj
 0001:00012f30       ?internal_attach@task_arena_base@internal@interface7@tbb@@IEAAXXZ 0000000180013f30 f   arena.obj
 0001:00012fb0       ?internal_enqueue@task_arena_base@internal@interface7@tbb@@IEBAXAEAVtask@4@_J@Z 0000000180013fb0 f   arena.obj
 0001:00013000       ?execute@delegated_task@internal@interface7@tbb@@EEAAPEAVtask@4@XZ 0000000180014000 f i arena.obj
 0001:000130c0       ??_Gdelegated_task@internal@interface7@tbb@@EEAAPEAXI@Z 00000001800140c0 f i arena.obj
 0001:000130c0       ??_Edelegated_task@internal@interface7@tbb@@EEAAPEAXI@Z 00000001800140c0 f i * CIL library *:* CIL module *
 0001:00013120       ?internal_execute@task_arena_base@internal@interface7@tbb@@IEBAXAEAVdelegate_base@234@@Z 0000000180014120 f   arena.obj
 0001:00013820       ?execute@wait_task@internal@interface7@tbb@@EEAAPEAVtask@4@XZ 0000000180014820 f i arena.obj
 0001:00013890       ??_Ewait_task@internal@interface7@tbb@@UEAAPEAXI@Z 0000000180014890 f i * CIL library *:* CIL module *
 0001:00013890       ??_Gwait_task@internal@interface7@tbb@@UEAAPEAXI@Z 0000000180014890 f i arena.obj
 0001:000138c0       ?internal_wait@task_arena_base@internal@interface7@tbb@@IEBAXXZ 00000001800148c0 f   arena.obj
 0001:00013c00       ?internal_current_slot@task_arena_base@internal@interface7@tbb@@KAHXZ 0000000180014c00 f   arena.obj
 0001:00013c30       ?push@?$task_stream@$02@internal@tbb@@QEAAXPEAVtask@3@HAEAVFastRandom@23@@Z 0000000180014c30 f i arena.obj
 0001:00013da0       ??1?$task_stream@$02@internal@tbb@@QEAA@XZ 0000000180014da0 f i arena.obj
 0001:00013e20       ?initialize@?$task_stream@$02@internal@tbb@@QEAAXI@Z 0000000180014e20 f i arena.obj
 0001:00013f10       ??0?$padded@U?$queue_and_mutex@PEAVtask@tbb@@Vspin_mutex@2@@internal@tbb@@$0IA@@internal@tbb@@QEAA@XZ 0000000180014f10 f i arena.obj
 0001:00013f80       ??1?$padded@U?$queue_and_mutex@PEAVtask@tbb@@Vspin_mutex@2@@internal@tbb@@$0IA@@internal@tbb@@QEAA@XZ 0000000180014f80 f i arena.obj
 0001:00013fc0       ?_Growmap@?$deque@PEAVtask@tbb@@V?$tbb_allocator@PEAVtask@tbb@@@2@@std@@IEAAX_K@Z 0000000180014fc0 f i arena.obj
 0001:00014100       ?_Tidy@?$deque@PEAVtask@tbb@@V?$tbb_allocator@PEAVtask@tbb@@@2@@std@@IEAAXXZ 0000000180015100 f i arena.obj
 0001:00014190       ??$advertise_new_work@$01@arena@internal@tbb@@QEAAXXZ 0000000180015190 f i arena.obj
 0001:00014250       ??$on_thread_leaving@$00@arena@internal@tbb@@QEAAXXZ 0000000180015250 f i arena.obj
 0001:000142e0       ??$notify_relaxed@Vdelegated_task@internal@interface7@tbb@@@concurrent_monitor@internal@tbb@@QEAAXAEBVdelegated_task@1interface7@2@@Z 00000001800152e0 f i arena.obj
 0001:00014430       ??$occupy_free_slot@$0A@@arena@internal@tbb@@QEAA_KAEAVgeneric_scheduler@12@@Z 0000000180015430 f i arena.obj
 0001:000144f0       ??$_Uninitialized_default_fill_n1@PEAPEAPEAVtask@tbb@@_KV?$tbb_allocator@PEAPEAVtask@tbb@@@2@@std@@YAXPEAPEAPEAVtask@tbb@@_KAEAU?$_Wrap_alloc@V?$tbb_allocator@PEAPEAVtask@tbb@@@tbb@@@0@U?$integral_constant@_N$0A@@0@@Z 00000001800154f0 f i arena.obj
 0001:00014510       ??$_Uninitialized_copy_al_unchecked1@PEAPEAPEAVtask@tbb@@PEAPEAPEAV12@V?$tbb_allocator@PEAPEAVtask@tbb@@@2@@std@@YAPEAPEAPEAVtask@tbb@@PEAPEAPEAV12@00AEAU?$_Wrap_alloc@V?$tbb_allocator@PEAPEAVtask@tbb@@@tbb@@@0@U_General_ptr_iterator_tag@0@U_Any_tag@0@@Z 0000000180015510 f i arena.obj
 0001:00014550       ?allocate_task_pool@arena_slot@internal@tbb@@QEAAX_K@Z 0000000180015550 f i scheduler.obj
 0001:000145e0       ?internal_pop@mail_outbox@internal@tbb@@AEAAPEAUtask_proxy@23@XZ 00000001800155e0 f i scheduler.obj
 0001:000146a0       ?commit_relocated_tasks@generic_scheduler@internal@tbb@@QEAAX_K@Z 00000001800156a0 f i scheduler.obj
 0001:000146f0       ??1scheduler@internal@tbb@@UEAA@XZ 00000001800156f0 f   scheduler.obj
 0001:00014700       ??0generic_scheduler@internal@tbb@@IEAA@AEAVmarket@12@@Z 0000000180015700 f   scheduler.obj
 0001:00014930       ??_E?$custom_scheduler@UDefaultSchedulerTraits@internal@tbb@@@internal@tbb@@UEAAPEAXI@Z 0000000180015930 f i * CIL library *:* CIL module *
 0001:00014930       ??_E?$custom_scheduler@UIntelSchedulerTraits@internal@tbb@@@internal@tbb@@UEAAPEAXI@Z 0000000180015930 f i * CIL library *:* CIL module *
 0001:00014930       ??_G?$custom_scheduler@UDefaultSchedulerTraits@internal@tbb@@@internal@tbb@@UEAAPEAXI@Z 0000000180015930 f i scheduler.obj
 0001:00014930       ??_Egeneric_scheduler@internal@tbb@@UEAAPEAXI@Z 0000000180015930 f i * CIL library *:* CIL module *
 0001:00014930       ??_Ggeneric_scheduler@internal@tbb@@UEAAPEAXI@Z 0000000180015930 f i scheduler.obj
 0001:00014930       ??_G?$custom_scheduler@UIntelSchedulerTraits@internal@tbb@@@internal@tbb@@UEAAPEAXI@Z 0000000180015930 f i scheduler.obj
 0001:00014960       ?cleanup_local_context_list@generic_scheduler@internal@tbb@@QEAAXXZ 0000000180015960 f   scheduler.obj
 0001:00014a90       ?free_scheduler@generic_scheduler@internal@tbb@@QEAAXXZ 0000000180015a90 f   scheduler.obj
 0001:00014b60       ?allocate_task@generic_scheduler@internal@tbb@@QEAAAEAVtask@3@_KPEAV43@PEAVtask_group_context@3@@Z 0000000180015b60 f   scheduler.obj
 0001:00014ca0       ?free_nonlocal_small_task@generic_scheduler@internal@tbb@@QEAAXAEAVtask@3@@Z 0000000180015ca0 f   scheduler.obj
 0001:00014d40       ?prepare_task_pool@generic_scheduler@internal@tbb@@QEAA_K_K@Z 0000000180015d40 f   scheduler.obj
 0001:00014ec0       ?acquire_task_pool@generic_scheduler@internal@tbb@@QEBAXXZ 0000000180015ec0 f i scheduler.obj
 0001:00014f80       ?release_task_pool@generic_scheduler@internal@tbb@@QEBAXXZ 0000000180015f80 f i scheduler.obj
 0001:00014fc0       ?lock_task_pool@generic_scheduler@internal@tbb@@QEBAPEAPEAVtask@3@PEAUarena_slot@23@@Z 0000000180015fc0 f i scheduler.obj
 0001:00015090       ?prepare_for_spawning@generic_scheduler@internal@tbb@@QEAAPEAVtask@3@PEAV43@@Z 0000000180016090 f i scheduler.obj
 0001:000151e0       ?local_spawn@generic_scheduler@internal@tbb@@QEAAXAEAVtask@3@AEAPEAV43@@Z 00000001800161e0 f   scheduler.obj
 0001:000154d0       ?local_spawn_root_and_wait@generic_scheduler@internal@tbb@@QEAAXAEAVtask@3@AEAPEAV43@@Z 00000001800164d0 f   scheduler.obj
 0001:000155c0       ?spawn@generic_scheduler@internal@tbb@@UEAAXAEAVtask@3@AEAPEAV43@@Z 00000001800165c0 f   scheduler.obj
 0001:00015610       ?spawn_root_and_wait@generic_scheduler@internal@tbb@@UEAAXAEAVtask@3@AEAPEAV43@@Z 0000000180016610 f   scheduler.obj
 0001:00015660       ?enqueue@generic_scheduler@internal@tbb@@UEAAXAEAVtask@3@PEAX@Z 0000000180016660 f   scheduler.obj
 0001:000156c0       ??1auto_indicator@internal@tbb@@QEAA@XZ 00000001800166c0 f i scheduler.obj
 0001:000156d0       ?winnow_task_pool@generic_scheduler@internal@tbb@@QEAAPEAVtask@3@XZ 00000001800166d0 f   scheduler.obj
 0001:00015940       ?reload_tasks@generic_scheduler@internal@tbb@@QEAAPEAVtask@3@AEAPEAV43@AEAPEAPEAV43@_J@Z 0000000180016940 f   scheduler.obj
 0001:00015bc0       ?reload_tasks@generic_scheduler@internal@tbb@@QEAAPEAVtask@3@XZ 0000000180016bc0 f   scheduler.obj
 0001:00015cf0       ?get_task@generic_scheduler@internal@tbb@@QEAAPEAVtask@3@XZ 0000000180016cf0 f i scheduler.obj
 0001:00015e90       ?steal_task@generic_scheduler@internal@tbb@@QEAAPEAVtask@3@AEAUarena_slot@23@@Z 0000000180016e90 f   scheduler.obj
 0001:00015ff0       ?get_mailbox_task@generic_scheduler@internal@tbb@@QEAAPEAVtask@3@XZ 0000000180016ff0 f   scheduler.obj
 0001:000160d0       ?leave_task_pool@generic_scheduler@internal@tbb@@QEAAXXZ 00000001800170d0 f   scheduler.obj
 0001:00016130       ?create_master@generic_scheduler@internal@tbb@@SAPEAV123@PEAVarena@23@@Z 0000000180017130 f   scheduler.obj
 0001:00016380       ?cleanup_master@generic_scheduler@internal@tbb@@QEAAX_N@Z 0000000180017380 f   scheduler.obj
 0001:00016580       ?copy_memory@?$fast_reverse_vector@PEAVtask@tbb@@$0BA@@internal@tbb@@QEBAXPEAPEAVtask@3@@Z 0000000180017580 f i scheduler.obj
 0001:00016640       ??1?$fast_reverse_vector@PEAVtask@tbb@@$0BA@@internal@tbb@@QEAA@XZ 0000000180017640 f i scheduler.obj
 0001:000166a0       ?allocate_scheduler@?$custom_scheduler@UIntelSchedulerTraits@internal@tbb@@@internal@tbb@@SAPEAVgeneric_scheduler@23@AEAVmarket@23@@Z 00000001800176a0 f i scheduler.obj
 0001:00016740       ?wait_for_all@?$custom_scheduler@UIntelSchedulerTraits@internal@tbb@@@internal@tbb@@EEAAXAEAVtask@3@PEAV43@@Z 0000000180017740 f i scheduler.obj
 0001:00016790       ?allocate_scheduler@?$custom_scheduler@UDefaultSchedulerTraits@internal@tbb@@@internal@tbb@@SAPEAVgeneric_scheduler@23@AEAVmarket@23@@Z 0000000180017790 f i scheduler.obj
 0001:00016830       ?wait_for_all@?$custom_scheduler@UDefaultSchedulerTraits@internal@tbb@@@internal@tbb@@EEAAXAEAVtask@3@PEAV43@@Z 0000000180017830 f i scheduler.obj
 0001:00016880       ?local_wait_for_all@?$custom_scheduler@UDefaultSchedulerTraits@internal@tbb@@@internal@tbb@@EEAAXAEAVtask@3@PEAV43@@Z 0000000180017880 f i scheduler.obj
 0001:00016f00       ?receive_or_steal_task@?$custom_scheduler@UDefaultSchedulerTraits@internal@tbb@@@internal@tbb@@UEAAPEAVtask@3@AEA_J@Z 0000000180017f00 f i scheduler.obj
 0001:000174c0       ?local_wait_for_all@?$custom_scheduler@UIntelSchedulerTraits@internal@tbb@@@internal@tbb@@EEAAXAEAVtask@3@PEAV43@@Z 00000001800184c0 f i scheduler.obj
 0001:00017b50       ?receive_or_steal_task@?$custom_scheduler@UIntelSchedulerTraits@internal@tbb@@@internal@tbb@@UEAAPEAVtask@3@AEA_J@Z 0000000180018b50 f i scheduler.obj
 0001:00018070       ??$advertise_new_work@$0A@@arena@internal@tbb@@QEAAXXZ 0000000180019070 f i scheduler.obj
 0001:00018120       ?tally_completion_of_predecessor@?$custom_scheduler@UIntelSchedulerTraits@internal@tbb@@@internal@tbb@@AEAAXAEAVtask@3@AEAPEAV43@@Z 0000000180019120 f i scheduler.obj
 0001:00018230       ?tally_completion_of_predecessor@?$custom_scheduler@UDefaultSchedulerTraits@internal@tbb@@@internal@tbb@@AEAAXAEAVtask@3@AEAPEAV43@@Z 0000000180019230 f i scheduler.obj
 0001:00018360       ?pop@?$task_stream@$02@internal@tbb@@QEAAPEAVtask@3@HAEAI@Z 0000000180019360 f i scheduler.obj
 0001:00018480       ?begin@?$deque@PEAVtask@tbb@@V?$tbb_allocator@PEAVtask@tbb@@@2@@std@@QEAA?AV?$_Deque_iterator@V?$_Deque_val@U?$_Deque_simple_types@PEAVtask@tbb@@@std@@@std@@@2@XZ 0000000180019480 f i scheduler.obj
 0001:000184a0       ?clear@observer_list@internal@tbb@@QEAAXXZ 00000001800194a0 f   observer_proxy.obj
 0001:00018560       ?insert@observer_list@internal@tbb@@QEAAXPEAVobserver_proxy@23@@Z 0000000180019560 f   observer_proxy.obj
 0001:000185c0       ?remove_ref@observer_list@internal@tbb@@QEAAXPEAVobserver_proxy@23@@Z 00000001800195c0 f   observer_proxy.obj
 0001:00018670       ?do_notify_entry_observers@observer_list@internal@tbb@@AEAAXAEAPEAVobserver_proxy@23@_N@Z 0000000180019670 f   observer_proxy.obj
 0001:000187b0       ?do_notify_exit_observers@observer_list@internal@tbb@@AEAAXPEAVobserver_proxy@23@_N@Z 00000001800197b0 f   observer_proxy.obj
 0001:000188f0       ?observe@task_scheduler_observer_v3@internal@tbb@@QEAAX_N@Z 00000001800198f0 f   observer_proxy.obj
 0001:00018b80       ?max_num_workers@market@internal@tbb@@SAIXZ 0000000180019b80 f i tbb_main.obj
 0001:00018c10       ?add_ref@__TBB_InitOnce@internal@tbb@@SAXXZ 0000000180019c10 f   tbb_main.obj
 0001:00018c80       ITT_DoOneTimeInitialization 0000000180019c80 f   tbb_main.obj
 0001:00018d40       ?DoOneTimeInitializations@internal@tbb@@YAXXZ 0000000180019d40 f   tbb_main.obj
 0001:00018f50       DllMain                    0000000180019f50 f   tbb_main.obj
 0001:00019010       ?itt_store_pointer_with_release_v3@internal@tbb@@YAXPEAX0@Z 000000018001a010 f   tbb_main.obj
 0001:00019050       ?itt_load_pointer_with_acquire_v3@internal@tbb@@YAPEAXPEBX@Z 000000018001a050 f   tbb_main.obj
 0001:00019070       ?call_itt_notify_v5@internal@tbb@@YAXHPEAX@Z 000000018001a070 f   tbb_main.obj
 0001:000190c0       ?itt_load_pointer_v3@internal@tbb@@YAPEAXPEBX@Z 000000018001a0c0 f   tbb_main.obj
 0001:000190c0       ??C?$shared_ptr@V__ExceptionPtr@@@std@@QEBAPEAV__ExceptionPtr@@XZ 000000018001a0c0 f   libcpmt:excptptr.obj
 0001:000190d0       ?itt_set_sync_name_v3@internal@tbb@@YAXPEAXPEB_W@Z 000000018001a0d0 f   tbb_main.obj
 0001:000190e0       ?is_first_arg_preferred@control_storage@internal@tbb@@MEBA_N_K0@Z 000000018001a0e0 f i tbb_main.obj
 0001:000190f0       ?active_value@control_storage@internal@tbb@@MEBA_KXZ 000000018001a0f0 f i tbb_main.obj
 0001:00019110       ?default_value@allowed_parallelism_control@internal@tbb@@EEBA_KXZ 000000018001a110 f i tbb_main.obj
 0001:00019140       ?is_first_arg_preferred@allowed_parallelism_control@internal@tbb@@EEBA_N_K0@Z 000000018001a140 f i tbb_main.obj
 0001:00019150       ?apply_active@allowed_parallelism_control@internal@tbb@@EEBAXXZ 000000018001a150 f i tbb_main.obj
 0001:00019160       ?active_value@allowed_parallelism_control@internal@tbb@@EEBA_KXZ 000000018001a160 f i tbb_main.obj
 0001:000191a0       ?default_value@stack_size_control@internal@tbb@@EEBA_KXZ 000000018001a1a0 f i tbb_main.obj
 0001:000191b0       ?internal_create@global_control@interface9@tbb@@AEAAXXZ 000000018001a1b0 f   tbb_main.obj
 0001:00019320       ?internal_destroy@global_control@interface9@tbb@@AEAAXXZ 000000018001a320 f   tbb_main.obj
 0001:000194f0       ?active_value@global_control@interface9@tbb@@CA_KH@Z 000000018001a4f0 f   tbb_main.obj
 0001:000195a0       ?internal_grow_to_at_least@concurrent_vector_base@internal@tbb@@IEAAX_K0P6AXPEAX0@Z@Z 000000018001a5a0 f   concurrent_vector_v2.obj
 0001:000195e0       ?extend_segment@helper@concurrent_vector_base@internal@tbb@@CAXAEAV234@@Z 000000018001a5e0 f   concurrent_vector_v2.obj
 0001:000196a0       ?internal_capacity@concurrent_vector_base@internal@tbb@@IEBA_KXZ 000000018001a6a0 f   concurrent_vector_v2.obj
 0001:000196f0       ?internal_reserve@concurrent_vector_base@internal@tbb@@IEAAX_K00@Z 000000018001a6f0 f   concurrent_vector_v2.obj
 0001:000198a0       ?internal_copy@concurrent_vector_base@internal@tbb@@IEAAXAEBV123@_KP6AXPEAXPEBX1@Z@Z 000000018001a8a0 f   concurrent_vector_v2.obj
 0001:000199f0       ?internal_assign@concurrent_vector_base@internal@tbb@@IEAAXAEBV123@_KP6AXPEAX1@ZP6AX2PEBX1@Z5@Z 000000018001a9f0 f   concurrent_vector_v2.obj
 0001:00019c00       ?internal_push_back@concurrent_vector_base@internal@tbb@@IEAAPEAX_KAEA_K@Z 000000018001ac00 f   concurrent_vector_v2.obj
 0001:00019d50       ?internal_grow_by@concurrent_vector_base@internal@tbb@@IEAA_K_K0P6AXPEAX0@Z@Z 000000018001ad50 f   concurrent_vector_v2.obj
 0001:00019d80       ?internal_grow@concurrent_vector_base@internal@tbb@@IEAAX_K00P6AXPEAX0@Z@Z 000000018001ad80 f   concurrent_vector_v2.obj
 0001:00019f40       ?internal_clear@concurrent_vector_base@internal@tbb@@IEAAXP6AXPEAX_K@Z_N@Z 000000018001af40 f   concurrent_vector_v2.obj
 0001:0001a050       ??1push_finalizer@micro_queue@internal@tbb@@QEAA@XZ 000000018001b050 f i concurrent_queue_v2.obj
 0001:0001a060       ??1pop_finalizer@micro_queue@internal@tbb@@QEAA@XZ 000000018001b060 f i concurrent_queue_v2.obj
 0001:0001a130       ?push@micro_queue@internal@tbb@@QEAAXPEBX_KAEAVconcurrent_queue_base@23@@Z 000000018001b130 f   concurrent_queue_v2.obj
 0001:0001a290       ?pop@micro_queue@internal@tbb@@QEAA_NPEAX_KAEAVconcurrent_queue_base@23@@Z 000000018001b290 f   concurrent_queue_v2.obj
 0001:0001a410       ??0concurrent_queue_base@internal@tbb@@IEAA@_K@Z 000000018001b410 f   concurrent_queue_v2.obj
 0001:0001a4e0       ??_Gconcurrent_queue_base@internal@tbb@@MEAAPEAXI@Z 000000018001b4e0 f i concurrent_queue_v2.obj
 0001:0001a4e0       ??_Econcurrent_queue_base@internal@tbb@@MEAAPEAXI@Z 000000018001b4e0 f i * CIL library *:* CIL module *
 0001:0001a520       ??1concurrent_queue_base@internal@tbb@@MEAA@XZ 000000018001b520 f   concurrent_queue_v2.obj
 0001:0001a590       ?internal_push@concurrent_queue_base@internal@tbb@@IEAAXPEBX@Z 000000018001b590 f   concurrent_queue_v2.obj
 0001:0001a660       ?internal_pop@concurrent_queue_base@internal@tbb@@IEAAXPEAX@Z 000000018001b660 f   concurrent_queue_v2.obj
 0001:0001a6c0       ?internal_pop_if_present@concurrent_queue_base@internal@tbb@@IEAA_NPEAX@Z 000000018001b6c0 f   concurrent_queue_v2.obj
 0001:0001a780       ?internal_push_if_not_full@concurrent_queue_base@internal@tbb@@IEAA_NPEBX@Z 000000018001b780 f   concurrent_queue_v2.obj
 0001:0001a850       ?internal_size@concurrent_queue_base@internal@tbb@@IEBA_JXZ 000000018001b850 f   concurrent_queue_v2.obj
 0001:0001a870       ??0concurrent_queue_iterator_base@internal@tbb@@IEAA@AEBVconcurrent_queue_base@12@@Z 000000018001b870 f   concurrent_queue_v2.obj
 0001:0001a950       ?assign@concurrent_queue_iterator_base@internal@tbb@@IEAAXAEBV123@@Z 000000018001b950 f   concurrent_queue_v2.obj
 0001:0001a9e0       ?advance@concurrent_queue_iterator_base@internal@tbb@@IEAAXXZ 000000018001b9e0 f   concurrent_queue_v2.obj
 0001:0001aa80       ??1concurrent_queue_iterator_base@internal@tbb@@IEAA@XZ 000000018001ba80 f   concurrent_queue_v2.obj
 0001:0001aab0       ?internal_itt_releasing@spin_rw_mutex@tbb@@CAXPEAV12@@Z 000000018001bab0 f   spin_rw_mutex_v2.obj
 0001:0001aac0       ?internal_release_writer@spin_rw_mutex@tbb@@CAXPEAV12@@Z 000000018001bac0 f   spin_rw_mutex_v2.obj
 0001:0001ab00       ?internal_acquire_reader@spin_rw_mutex@tbb@@CAXPEAV12@@Z 000000018001bb00 f   spin_rw_mutex_v2.obj
 0001:0001abb0       ?internal_upgrade@spin_rw_mutex@tbb@@CA_NPEAV12@@Z 000000018001bbb0 f   spin_rw_mutex_v2.obj
 0001:0001acd0       ?internal_downgrade@spin_rw_mutex@tbb@@CAXPEAV12@@Z 000000018001bcd0 f   spin_rw_mutex_v2.obj
 0001:0001ad10       ?internal_try_acquire_reader@spin_rw_mutex@tbb@@CA_NPEAV12@@Z 000000018001bd10 f   spin_rw_mutex_v2.obj
 0001:0001ad90       ?destroy@task@tbb@@QEAAXAEAV12@@Z 000000018001bd90 f   task_v2.obj
 0001:0001ada0       __TBB_machine_fetchadd1    000000018001bda0     atomic_support.obj
 0001:0001ada8       __TBB_machine_fetchstore1  000000018001bda8     atomic_support.obj
 0001:0001adb0       __TBB_machine_cmpswp1      000000018001bdb0     atomic_support.obj
 0001:0001adb8       __TBB_machine_fetchadd2    000000018001bdb8     atomic_support.obj
 0001:0001adc8       __TBB_machine_fetchstore2  000000018001bdc8     atomic_support.obj
 0001:0001add0       __TBB_machine_cmpswp2      000000018001bdd0     atomic_support.obj
 0001:0001ade0       __TBB_machine_pause        000000018001bde0     atomic_support.obj
 0001:0001adf0       __TBB_get_cpu_ctl_env      000000018001bdf0     intel64_misc.obj
 0001:0001adf8       __TBB_set_cpu_ctl_env      000000018001bdf8     intel64_misc.obj
 0001:0001ae00       __TBB_machine_try_lock_elided 000000018001be00     itsx.obj
 0001:0001ae10       __TBB_machine_unlock_elided 000000018001be10     itsx.obj
 0001:0001ae18       __TBB_machine_begin_transaction 000000018001be18     itsx.obj
 0001:0001ae28       __TBB_machine_end_transaction 000000018001be28     itsx.obj
 0001:0001ae30       __TBB_machine_transaction_conflict_abort 000000018001be30     itsx.obj
 0001:0001ae38       __TBB_machine_is_in_transaction 000000018001be38     itsx.obj
 0001:0001ae44       ??$?0AEAPEAUEHExceptionRecord@@_N@?$_Ref_count_obj_alloc@V__ExceptionPtr@@U?$_StaticAllocator@H@@@std@@QEAA@AEBU?$_StaticAllocator@H@@AEAPEAUEHExceptionRecord@@$$QEA_N@Z 000000018001be44 f i libcpmt:excptptr.obj
 0001:0001aec4       ??$allocate_shared@V__ExceptionPtr@@U?$_StaticAllocator@H@@AEAPEAUEHExceptionRecord@@_N@std@@YA?AV?$shared_ptr@V__ExceptionPtr@@@0@AEBU?$_StaticAllocator@H@@AEAPEAUEHExceptionRecord@@$$QEA_N@Z 000000018001bec4 f i libcpmt:excptptr.obj
 0001:0001af50       ??$make_shared@V__ExceptionPtr@@AEAPEAUEHExceptionRecord@@_N@std@@YA?AV?$shared_ptr@V__ExceptionPtr@@@0@AEAPEAUEHExceptionRecord@@$$QEA_N@Z 000000018001bf50 f i libcpmt:excptptr.obj
 0001:0001afec       ??0__ExceptionPtr@@QEAA@PEBUEHExceptionRecord@@_N@Z 000000018001bfec f   libcpmt:excptptr.obj
 0001:0001b170       ??0bad_exception@std@@QEAA@AEBV01@@Z 000000018001c170 f i libcpmt:excptptr.obj
 0001:0001b1b0       ??0bad_exception@std@@QEAA@XZ 000000018001c1b0 f i libcpmt:excptptr.obj
 0001:0001b1d0       ??1_Ref_count_base@std@@UEAA@XZ 000000018001c1d0 f i libcpmt:excptptr.obj
 0001:0001b1dc       ??1__ExceptionPtr@@QEAA@XZ 000000018001c1dc f   libcpmt:excptptr.obj
 0001:0001b2b8       ??4?$shared_ptr@V__ExceptionPtr@@@std@@QEAAAEAV01@$$QEAV01@@Z 000000018001c2b8 f i libcpmt:excptptr.obj
 0001:0001b354       ??_G?$_Ref_count_obj@V__ExceptionPtr@@@std@@UEAAPEAXI@Z 000000018001c354 f i libcpmt:excptptr.obj
 0001:0001b354       ??_E?$_Ref_count_obj@V__ExceptionPtr@@@std@@UEAAPEAXI@Z 000000018001c354 f i libcpmt:excptptr.obj
 0001:0001b354       ??_G?$_Ref_count_obj_alloc@V__ExceptionPtr@@U?$_StaticAllocator@H@@@std@@UEAAPEAXI@Z 000000018001c354 f i libcpmt:excptptr.obj
 0001:0001b354       ??_E?$_Ref_count_obj_alloc@V__ExceptionPtr@@U?$_StaticAllocator@H@@@std@@UEAAPEAXI@Z 000000018001c354 f i libcpmt:excptptr.obj
 0001:0001b380       ??_G?$shared_ptr@V__ExceptionPtr@@@std@@QEAAPEAXI@Z 000000018001c380 f i libcpmt:excptptr.obj
 0001:0001b410       ??_E_Ref_count_base@std@@UEAAPEAXI@Z 000000018001c410 f i libcpmt:excptptr.obj
 0001:0001b410       ??_G_Ref_count_base@std@@UEAAPEAXI@Z 000000018001c410 f i libcpmt:excptptr.obj
 0001:0001b43c       ?_CallCopyCtor@__ExceptionPtr@@AEBAXPEAX0_KQEBU_s_CatchableType@@@Z 000000018001c43c f   libcpmt:excptptr.obj
 0001:0001b528       ?_CallMemberFunction0@@YAXPEAXP6AX0@Z@Z 000000018001c528 f i libcpmt:excptptr.obj
 0001:0001b52c       ?_CallMemberFunction1@@YAXPEAXP6AX0@Z0@Z 000000018001c52c f i libcpmt:excptptr.obj
 0001:0001b538       ?_CallMemberFunction2@@YAXPEAXP6AX0@Z0H@Z 000000018001c538 f i libcpmt:excptptr.obj
 0001:0001b548       ?_CopyException@__ExceptionPtr@@SA?AV?$shared_ptr@V__ExceptionPtr@@@std@@PEBXPEBU_s_ThrowInfo@@_N@Z 000000018001c548 f   libcpmt:excptptr.obj
 0001:0001b660       ?_CurrentException@__ExceptionPtr@@SA?AV?$shared_ptr@V__ExceptionPtr@@@std@@XZ 000000018001c660 f   libcpmt:excptptr.obj
 0001:0001b6ec       ?_Delete_this@?$_Ref_count_obj@V__ExceptionPtr@@@std@@EEAAXXZ 000000018001c6ec f i libcpmt:excptptr.obj
 0001:0001b724       ?_Delete_this@?$_Ref_count_obj_alloc@V__ExceptionPtr@@U?$_StaticAllocator@H@@@std@@EEAAXXZ 000000018001c724 f i libcpmt:excptptr.obj
 0001:0001b758       ?_Destroy@?$_Ref_count_obj@V__ExceptionPtr@@@std@@EEAAXXZ 000000018001c758 f i libcpmt:excptptr.obj
 0001:0001b758       ?_Destroy@?$_Ref_count_obj_alloc@V__ExceptionPtr@@U?$_StaticAllocator@H@@@std@@EEAAXXZ 000000018001c758 f i libcpmt:excptptr.obj
 0001:0001b764       ?_InitBadAllocException@__ExceptionPtr@@CA?AV?$shared_ptr@V__ExceptionPtr@@@std@@XZ 000000018001c764 f   libcpmt:excptptr.obj
 0001:0001b7cc       ?_Reset0@?$_Ptr_base@V__ExceptionPtr@@@std@@QEAAXPEAV__ExceptionPtr@@PEAV_Ref_count_base@2@@Z 000000018001c7cc f i libcpmt:excptptr.obj
 0001:0001b85c       ?_RethrowException@__ExceptionPtr@@QEBAXXZ 000000018001c85c f   libcpmt:excptptr.obj
 0001:0001ba90       ?__ExceptionPtrCopy@@YAXPEAXPEBX@Z 000000018001ca90 f   libcpmt:excptptr.obj
 0001:0001bac0       ?__ExceptionPtrCopyException@@YAXPEAXPEBX1@Z 000000018001cac0 f   libcpmt:excptptr.obj
 0001:0001bb3c       ?__ExceptionPtrCreate@@YAXPEAX@Z 000000018001cb3c f   libcpmt:excptptr.obj
 0001:0001bb4c       ?__ExceptionPtrCurrentException@@YAXPEAX@Z 000000018001cb4c f   libcpmt:excptptr.obj
 0001:0001bbd0       ?__ExceptionPtrDestroy@@YAXPEAX@Z 000000018001cbd0 f   libcpmt:excptptr.obj
 0001:0001bbd8       ?__ExceptionPtrRethrow@@YAXPEBX@Z 000000018001cbd8 f   libcpmt:excptptr.obj
 0001:0001bbec       ?_Xlength_error@std@@YAXPEBD@Z 000000018001cbec f   libcpmt:xthrow.obj
 0001:0001bc20       __security_check_cookie    000000018001cc20 f   LIBCMT:_amdsecgs_.obj
 0001:0001bc44       ??3@YAXPEAX_K@Z            000000018001cc44 f   LIBCMT:delete_scalar_size.obj
 0001:0001bc44       ??_V@YAXPEAX@Z             000000018001cc44 f   LIBCMT:delete_array.obj
 0001:0001bc4c       ??_Gtype_info@@UEAAPEAXI@Z 000000018001cc4c f i LIBCMT:std_type_info_static.obj
 0001:0001bc4c       ??_Etype_info@@UEAAPEAXI@Z 000000018001cc4c f i LIBCMT:std_type_info_static.obj
 0001:0001bc78       __raise_securityfailure    000000018001cc78 f   LIBCMT:gs_report.obj
 0001:0001bcac       __report_gsfailure         000000018001ccac f   LIBCMT:gs_report.obj
 0001:0001bd80       __report_rangecheckfailure 000000018001cd80 f   LIBCMT:gs_report.obj
 0001:0001bd94       __report_securityfailure   000000018001cd94 f   LIBCMT:gs_report.obj
 0001:0001bf14       ??2@YAPEAX_K@Z             000000018001cf14 f   LIBCMT:new_scalar.obj
 0001:0001bf50       ?__scrt_initialize_type_info@@YAXXZ 000000018001cf50 f   LIBCMT:tncleanup.obj
 0001:0001bf60       ?__scrt_uninitialize_type_info@@YAXXZ 000000018001cf60 f   LIBCMT:tncleanup.obj
 0001:0001bf6c       ??_V@YAXPEAX_K@Z           000000018001cf6c f   LIBCMT:delete_array_size.obj
 0001:0001bf74       ??_M@YAXPEAX_K1P6AX0@Z@Z   000000018001cf74 f   LIBCMT:ehvecdtr.obj
 0001:0001bfe0       ?__ArrayUnwind@@YAXPEAX_K1P6AX0@Z@Z 000000018001cfe0 f   LIBCMT:ehvecdtr.obj
 0001:0001c044       ??_U@YAPEAX_K@Z            000000018001d044 f   LIBCMT:new_array.obj
 0001:0001c04c       ??_L@YAXPEAX_K1P6AX0@Z2@Z  000000018001d04c f   LIBCMT:ehvecctr.obj
 0001:0001c0bc       __scrt_acquire_startup_lock 000000018001d0bc f   LIBCMT:utility.obj
 0001:0001c0f8       __scrt_dllmain_after_initialize_c 000000018001d0f8 f   LIBCMT:utility.obj
 0001:0001c12c       __scrt_dllmain_before_initialize_c 000000018001d12c f   LIBCMT:utility.obj
 0001:0001c144       __scrt_dllmain_crt_thread_attach 000000018001d144 f   LIBCMT:utility.obj
 0001:0001c16c       __scrt_dllmain_crt_thread_detach 000000018001d16c f   LIBCMT:utility.obj
 0001:0001c184       __scrt_dllmain_exception_filter 000000018001d184 f   LIBCMT:utility.obj
 0001:0001c1e8       __scrt_dllmain_uninitialize_c 000000018001d1e8 f   LIBCMT:utility.obj
 0001:0001c218       __scrt_dllmain_uninitialize_critical 000000018001d218 f   LIBCMT:utility.obj
 0001:0001c22c       __scrt_initialize_crt      000000018001d22c f   LIBCMT:utility.obj
 0001:0001c278       __scrt_initialize_onexit_tables 000000018001d278 f   LIBCMT:utility.obj
 0001:0001c344       __scrt_is_nonwritable_in_current_image 000000018001d344 f   LIBCMT:utility.obj
 0001:0001c3e0       __scrt_release_startup_lock 000000018001d3e0 f   LIBCMT:utility.obj
 0001:0001c404       __scrt_uninitialize_crt    000000018001d404 f   LIBCMT:utility.obj
 0001:0001c430       _onexit                    000000018001d430 f   LIBCMT:utility.obj
 0001:0001c480       atexit                     000000018001d480 f   LIBCMT:utility.obj
 0001:0001c498       ??3@YAXPEAX@Z              000000018001d498 f   LIBCMT:delete_scalar.obj
 0001:0001c7ec       _DllMainCRTStartup         000000018001d7ec f   LIBCMT:dll_dllmain.obj
 0001:0001c82c       __GSHandlerCheck           000000018001d82c f   LIBCMT:_gshandler_.obj
 0001:0001c84c       __GSHandlerCheckCommon     000000018001d84c f   LIBCMT:_gshandler_.obj
 0001:0001c8c0       __chkstk                   000000018001d8c0 f   LIBCMT:_chkstk_.obj
 0001:0001c8c0       _alloca_probe              000000018001d8c0 f   LIBCMT:_chkstk_.obj
 0001:0001c914       _guard_check_icall         000000018001d914 f i LIBCMT:checkcfg.obj
 0001:0001c91c       ??0bad_array_new_length@std@@QEAA@AEBV01@@Z 000000018001d91c f i LIBCMT:throw_bad_alloc.obj
 0001:0001c95c       ??0bad_array_new_length@std@@QEAA@XZ 000000018001d95c f i LIBCMT:throw_bad_alloc.obj
 0001:0001c97c       ?__scrt_throw_std_bad_alloc@@YAXXZ 000000018001d97c f   LIBCMT:throw_bad_alloc.obj
 0001:0001c99c       ?__scrt_throw_std_bad_array_new_length@@YAXXZ 000000018001d99c f   LIBCMT:throw_bad_alloc.obj
 0001:0001c9bc       __isa_available_init       000000018001d9bc f   LIBCMT:_cpu_disp_.obj
 0001:0001cb84       __scrt_is_ucrt_dll_in_use  000000018001db84 f   LIBCMT:ucrt_detection.obj
 0001:0001cb90       __crt_debugger_hook        000000018001db90 f   LIBCMT:utility_desktop.obj
 0001:0001cb98       __scrt_fastfail            000000018001db98 f   LIBCMT:utility_desktop.obj
 0001:0001cce0       __security_init_cookie     000000018001dce0 f   LIBCMT:gs_support.obj
 0001:0001cd8c       __local_stdio_scanf_options 000000018001dd8c f i LIBCMT:default_local_stdio_options.obj
 0001:0001cd94       __scrt_initialize_default_local_stdio_options 000000018001dd94 f   LIBCMT:default_local_stdio_options.obj
 0001:0001cdb0       __scrt_get_dyn_tls_init_callback 000000018001ddb0 f   LIBCMT:dyn_tls_init.obj
 0001:0001cdb8       _RTC_Initialize            000000018001ddb8 f   LIBCMT:_initsect_.obj
 0001:0001ce04       _RTC_Terminate             000000018001de04 f   LIBCMT:_initsect_.obj
 0001:0001ce50       _purecall                  000000018001de50 f   libvcruntime:purevirt.obj
 0001:0001ce8c       __DestructExceptionObject  000000018001de8c f   libvcruntime:frame.obj
 0001:0001d870       __AdjustPointer            000000018001e870 f   libvcruntime:frame.obj
 0001:0001d894       __BuildCatchObject         000000018001e894 f   libvcruntime:frame.obj
 0001:0001d958       __BuildCatchObjectHelper   000000018001e958 f   libvcruntime:frame.obj
 0001:0001db38       __CxxCallCatchBlock        000000018001eb38 f   libvcruntime:frame.obj
 0001:0001dd24       __FrameUnwindFilter        000000018001ed24 f   libvcruntime:frame.obj
 0001:0001dd70       __FrameUnwindToState       000000018001ed70 f   libvcruntime:frame.obj
 0001:0001df04       __InternalCxxFrameHandler  000000018001ef04 f   libvcruntime:frame.obj
 0001:0001e15c       __TypeMatch                000000018001f15c f   libvcruntime:frame.obj
 0001:0001e29c       __current_exception        000000018001f29c f   libvcruntime:frame.obj
 0001:0001e2b0       __processing_throw         000000018001f2b0 f   libvcruntime:frame.obj
 0001:0001e2c4       __std_terminate            000000018001f2c4 f   libvcruntime:frame.obj
 0001:0001e2d0       strrchr                    000000018001f2d0 f   libvcruntime:strrchr.obj
 0001:0001e410       __std_exception_copy       000000018001f410 f   libvcruntime:std_exception.obj
 0001:0001e4a0       __std_exception_destroy    000000018001f4a0 f   libvcruntime:std_exception.obj
 0001:0001e4c8       __std_type_info_compare    000000018001f4c8 f   libvcruntime:std_type_info.obj
 0001:0001e4f0       __std_type_info_destroy_list 000000018001f4f0 f   libvcruntime:std_type_info.obj
 0001:0001e51c       __std_type_info_name       000000018001f51c f   libvcruntime:std_type_info.obj
 0001:0001e63c       ??0__non_rtti_object@std@@QEAA@AEBV01@@Z 000000018001f63c f i libvcruntime:rtti.obj
 0001:0001e67c       ??0bad_typeid@std@@QEAA@AEBV01@@Z 000000018001f67c f i libvcruntime:rtti.obj
 0001:0001e6bc       ?__construct_from_string_literal@__non_rtti_object@std@@SA?AV12@QEBD@Z 000000018001f6bc f i libvcruntime:rtti.obj
 0001:0001e6d4       ?__construct_from_string_literal@bad_typeid@std@@SA?AV12@QEBD@Z 000000018001f6d4 f i libvcruntime:rtti.obj
 0001:0001e6ec       __RTtypeid                 000000018001f6ec f   libvcruntime:rtti.obj
 0001:0001e7b0       memmove                    000000018001f7b0 f   libvcruntime:memcpy.obj
 0001:0001e7b0       memcpy                     000000018001f7b0 f   libvcruntime:memcpy.obj
 0001:0001ebe8       _CxxThrowException         000000018001fbe8 f   libvcruntime:throw.obj
 0001:0001ecc0       ?_ExecutionInCatch@@YAHPEAU_xDISPATCHER_CONTEXT@@PEBU_s_FuncInfo@@@Z 000000018001fcc0 f   libvcruntime:trnsctrl.obj
 0001:0001ed34       ?_GetEstablisherFrame@@YAPEA_KPEA_KPEAU_xDISPATCHER_CONTEXT@@PEBU_s_FuncInfo@@0@Z 000000018001fd34 f   libvcruntime:trnsctrl.obj
 0001:0001ee00       ?_GetRangeOfTrysToCheck@@YAPEBU_s_TryBlockMapEntry@@PEA_KPEBU_s_FuncInfo@@HHPEAI2PEAU_xDISPATCHER_CONTEXT@@@Z 000000018001fe00 f   libvcruntime:trnsctrl.obj
 0001:0001ef2c       ?__FrameUnwindToEmptyState@@YAXPEA_KPEAU_xDISPATCHER_CONTEXT@@PEBU_s_FuncInfo@@@Z 000000018001ff2c f   libvcruntime:trnsctrl.obj
 0001:0001efc0       ?__SehTransFilter@@YAHPEAU_EXCEPTION_POINTERS@@PEAUEHExceptionRecord@@PEA_KPEAU_CONTEXT@@PEAU_xDISPATCHER_CONTEXT@@PEBU_s_FuncInfo@@PEAH@Z 000000018001ffc0 f   libvcruntime:trnsctrl.obj
 0001:0001f058       _CallSETranslator          0000000180020058 f   libvcruntime:trnsctrl.obj
 0001:0001f0b0       _CreateFrameInfo           00000001800200b0 f   libvcruntime:trnsctrl.obj
 0001:0001f0ec       _FindAndUnlinkFrame        00000001800200ec f   libvcruntime:trnsctrl.obj
 0001:0001f144       _GetImageBase              0000000180020144 f   libvcruntime:trnsctrl.obj
 0001:0001f158       _GetThrowImageBase         0000000180020158 f   libvcruntime:trnsctrl.obj
 0001:0001f16c       _IsExceptionObjectToBeDestroyed 000000018002016c f   libvcruntime:trnsctrl.obj
 0001:0001f19c       _SetImageBase              000000018002019c f   libvcruntime:trnsctrl.obj
 0001:0001f1b4       _SetThrowImageBase         00000001800201b4 f   libvcruntime:trnsctrl.obj
 0001:0001f1cc       _UnwindNestedFrames        00000001800201cc f   libvcruntime:trnsctrl.obj
 0001:0001f2f0       __CxxFrameHandler3         00000001800202f0 f   libvcruntime:trnsctrl.obj
 0001:0001f380       memset                     0000000180020380 f   libvcruntime:memset.obj
 0001:0001f520       __C_specific_handler       0000000180020520 f   libvcruntime:_chandler_.obj
 0001:0001f71c       __vcrt_initialize          000000018002071c f   libvcruntime:initialization.obj
 0001:0001f750       __vcrt_thread_attach       0000000180020750 f   libvcruntime:initialization.obj
 0001:0001f764       __vcrt_thread_detach       0000000180020764 f   libvcruntime:initialization.obj
 0001:0001f778       __vcrt_uninitialize        0000000180020778 f   libvcruntime:initialization.obj
 0001:0001f798       __vcrt_uninitialize_critical 0000000180020798 f   libvcruntime:initialization.obj
 0001:0001f7a8       __vcrt_initialize_pure_virtual_call_handler 00000001800207a8 f   libvcruntime:purevirt_data.obj
 0001:0001f7cc       __vcrt_freefls             00000001800207cc f   libvcruntime:per_thread_data.obj
 0001:0001f7ec       __vcrt_freeptd             00000001800207ec f   libvcruntime:per_thread_data.obj
 0001:0001f83c       __vcrt_getptd              000000018002083c f   libvcruntime:per_thread_data.obj
 0001:0001f858       __vcrt_getptd_noexit       0000000180020858 f   libvcruntime:per_thread_data.obj
 0001:0001f910       __vcrt_initialize_ptd      0000000180020910 f   libvcruntime:per_thread_data.obj
 0001:0001f950       __vcrt_uninitialize_ptd    0000000180020950 f   libvcruntime:per_thread_data.obj
 0001:0001f974       ?__GetCurrentState@@YAHPEA_KPEAU_xDISPATCHER_CONTEXT@@PEBU_s_FuncInfo@@@Z 0000000180020974 f   libvcruntime:ehstate.obj
 0001:0001f99c       ?__GetUnwindTryBlock@@YAHPEA_KPEAU_xDISPATCHER_CONTEXT@@PEBU_s_FuncInfo@@@Z 000000018002099c f   libvcruntime:ehstate.obj
 0001:0001f9c8       ?__SetState@@YAXPEA_KPEAU_xDISPATCHER_CONTEXT@@PEBU_s_FuncInfo@@H@Z 00000001800209c8 f   libvcruntime:ehstate.obj
 0001:0001f9d4       ?__SetUnwindTryBlock@@YAXPEA_KPEAU_xDISPATCHER_CONTEXT@@PEBU_s_FuncInfo@@H@Z 00000001800209d4 f   libvcruntime:ehstate.obj
 0001:0001fa10       ?__StateFromControlPc@@YAHPEBU_s_FuncInfo@@PEAU_xDISPATCHER_CONTEXT@@@Z 0000000180020a10 f   libvcruntime:ehstate.obj
 0001:0001fa18       ?__StateFromIp@@YAHPEBU_s_FuncInfo@@PEAU_xDISPATCHER_CONTEXT@@_J@Z 0000000180020a18 f   libvcruntime:ehstate.obj
 0001:0001faa0       _CallSettingFrame          0000000180020aa0 f   libvcruntime:handlers.obj
 0001:0001faf0       _local_unwind              0000000180020af0 f   libvcruntime:_jmpuwind_.obj
 0001:0001fb20       _NLG_Notify                0000000180020b20 f   libvcruntime:_jmpuwind_.obj
 0001:0001fb40       __NLG_Dispatch2            0000000180020b40 f   libvcruntime:_jmpuwind_.obj
 0001:0001fb50       __NLG_Return2              0000000180020b50 f   libvcruntime:_jmpuwind_.obj
 0001:0001fb54       ??0DName@@QEAA@AEAPEBDD@Z  0000000180020b54 f   libvcruntime:undname.obj
 0001:0001fc34       ??0DName@@QEAA@AEBV0@@Z    0000000180020c34 f i libvcruntime:undname.obj
 0001:0001fc40       ??0DName@@QEAA@D@Z         0000000180020c40 f   libvcruntime:undname.obj
 0001:0001fc78       ??0DName@@QEAA@PEAV0@@Z    0000000180020c78 f   libvcruntime:undname.obj
 0001:0001fd00       ??0DName@@QEAA@PEBD@Z      0000000180020d00 f   libvcruntime:undname.obj
 0001:0001fd48       ??0DName@@QEAA@W4DNameStatus@@@Z 0000000180020d48 f   libvcruntime:undname.obj
 0001:0001fd98       ??0DName@@QEAA@_J@Z        0000000180020d98 f   libvcruntime:undname.obj
 0001:0001fe44       ??0DName@@QEAA@_K@Z        0000000180020e44 f   libvcruntime:undname.obj
 0001:0001fed4       ??0UnDecorator@@QEAA@PEADPEBDHP6APEADJ@ZK@Z 0000000180020ed4 f i libvcruntime:undname.obj
 0001:0001ff48       ??0pcharNode@@QEAA@PEBDH@Z 0000000180020f48 f   libvcruntime:undname.obj
 0001:0001ffd0       ??4DName@@QEAAAEAV0@PEBD@Z 0000000180020fd0 f   libvcruntime:undname.obj
 0001:00020010       ??4DName@@QEAAAEAV0@W4DNameStatus@@@Z 0000000180021010 f   libvcruntime:undname.obj
 0001:0002004c       ??AReplicator@@QEBA?AVDName@@H@Z 000000018002104c f   libvcruntime:undname.obj
 0001:00020094       ??BUnDecorator@@QEAAPEADXZ 0000000180021094 f i libvcruntime:undname.obj
 0001:000202a4       ??YDName@@QEAAAEAV0@AEBV0@@Z 00000001800212a4 f   libvcruntime:undname.obj
 0001:000202e4       ??YDName@@QEAAAEAV0@D@Z    00000001800212e4 f   libvcruntime:undname.obj
 0001:00020368       ??YDName@@QEAAAEAV0@PEBD@Z 0000000180021368 f   libvcruntime:undname.obj
 0001:000203f4       ??YDName@@QEAAAEAV0@W4DNameStatus@@@Z 00000001800213f4 f   libvcruntime:undname.obj
 0001:00020438       ??YReplicator@@QEAAAEAV0@AEBVDName@@@Z 0000000180021438 f   libvcruntime:undname.obj
 0001:00020498       ?append@DName@@AEAAXPEAVDNameNode@@@Z 0000000180021498 f   libvcruntime:undname.obj
 0001:000204fc       ?composeDeclaration@UnDecorator@@CA?AVDName@@AEBV2@@Z 00000001800214fc f i libvcruntime:undname.obj
 0001:00021398       ?doPchar@DName@@AEAAXPEBDH@Z 0000000180022398 f   libvcruntime:undname.obj
 0001:00021444       ?getArgumentList@UnDecorator@@CA?AVDName@@XZ 0000000180022444 f   libvcruntime:undname.obj
 0001:00021588       ?getArgumentTypes@UnDecorator@@CA?AVDName@@XZ 0000000180022588 f   libvcruntime:undname.obj
 0001:00021684       ?getArrayType@UnDecorator@@CA?AVDName@@AEBV2@@Z 0000000180022684 f i libvcruntime:undname.obj
 0001:000218c0       ?getBasedType@UnDecorator@@CA?AVDName@@XZ 00000001800228c0 f   libvcruntime:undname.obj
 0001:00021980       ?getBasicDataType@UnDecorator@@CA?AVDName@@AEBV2@@Z 0000000180022980 f   libvcruntime:undname.obj
 0001:00021dc4       ?getCallingConvention@UnDecorator@@CA?AVDName@@XZ 0000000180022dc4 f   libvcruntime:undname.obj
 0001:00021ec4       ?getDataIndirectType@UnDecorator@@CA?AVDName@@AEBV2@PEBD0H@Z 0000000180022ec4 f   libvcruntime:undname.obj
 0001:000225fc       ?getDataType@UnDecorator@@CA?AVDName@@PEAV2@@Z 00000001800235fc f   libvcruntime:undname.obj
 0001:000226e0       ?getDecoratedName@UnDecorator@@CA?AVDName@@XZ 00000001800236e0 f   libvcruntime:undname.obj
 0001:00022954       ?getDimension@UnDecorator@@CA?AVDName@@_N@Z 0000000180023954 f   libvcruntime:undname.obj
 0001:00022ab0       ?getDispatchTarget@UnDecorator@@CA?AVDName@@XZ 0000000180023ab0 f   libvcruntime:undname.obj
 0001:00022b14       ?getECSUDataType@UnDecorator@@CA?AVDName@@XZ 0000000180023b14 f   libvcruntime:undname.obj
 0001:00022c78       ?getEnumType@UnDecorator@@CA?AVDName@@XZ 0000000180023c78 f i libvcruntime:undname.obj
 0001:00022d60       ?getExtendedDataIndirectType@UnDecorator@@CA?AVDName@@AEAPEBDAEA_NH@Z 0000000180023d60 f   libvcruntime:undname.obj
 0001:00022fa4       ?getExternalDataType@UnDecorator@@CA?AVDName@@AEBV2@@Z 0000000180023fa4 f i libvcruntime:undname.obj
 0001:00023078       ?getFunctionIndirectType@UnDecorator@@CA?AVDName@@AEBV2@@Z 0000000180024078 f   libvcruntime:undname.obj
 0001:00023598       ?getLastChar@DNameStatusNode@@UEBADXZ 0000000180024598 f i libvcruntime:undname.obj
 0001:000235a4       ?getLastChar@charNode@@UEBADXZ 00000001800245a4 f i libvcruntime:undname.obj
 0001:000235a8       ?getLastChar@pDNameNode@@UEBADXZ 00000001800245a8 f i libvcruntime:undname.obj
 0001:000235e4       ?getLastChar@pairNode@@UEBADXZ 00000001800245e4 f i libvcruntime:undname.obj
 0001:0002363c       ?getLastChar@pcharNode@@UEBADXZ 000000018002463c f i libvcruntime:undname.obj
 0001:00023654       ?getMemory@_HeapManager@@QEAAPEAX_KH@Z 0000000180024654 f   libvcruntime:undname.obj
 0001:00023710       ?getNumberOfDimensions@UnDecorator@@CAHXZ 0000000180024710 f   libvcruntime:undname.obj
 0001:00023784       ?getOperatorName@UnDecorator@@CA?AVDName@@_NPEA_N@Z 0000000180024784 f i libvcruntime:undname.obj
 0001:00023ed8       ?getPrimaryDataType@UnDecorator@@CA?AVDName@@AEBV2@@Z 0000000180024ed8 f   libvcruntime:undname.obj
 0001:00024138       ?getPtrRefDataType@UnDecorator@@CA?AVDName@@AEBV2@H@Z 0000000180025138 f   libvcruntime:undname.obj
 0001:00024260       ?getPtrRefType@UnDecorator@@CA?AVDName@@AEBV2@0PEBD@Z 0000000180025260 f   libvcruntime:undname.obj
 0001:00024394       ?getRestrictionSpec@UnDecorator@@CA?AVDName@@XZ 0000000180025394 f   libvcruntime:undname.obj
 0001:000244c0       ?getReturnType@UnDecorator@@CA?AVDName@@PEAV2@@Z 00000001800254c0 f   libvcruntime:undname.obj
 0001:000244f4       ?getScope@UnDecorator@@CA?AVDName@@XZ 00000001800254f4 f   libvcruntime:undname.obj
 0001:000249a0       ?getScopedName@UnDecorator@@CA?AVDName@@XZ 00000001800259a0 f   libvcruntime:undname.obj
 0001:00024ab8       ?getSignedDimension@UnDecorator@@CA?AVDName@@XZ 0000000180025ab8 f   libvcruntime:undname.obj
 0001:00024b34       ?getString@DName@@QEBAPEADPEADH@Z 0000000180025b34 f i libvcruntime:undname.obj
 0001:00024be4       ?getString@DNameStatusNode@@UEBAPEADPEAD0@Z 0000000180025be4 f i libvcruntime:undname.obj
 0001:00024c28       ?getString@charNode@@UEBAPEADPEAD0@Z 0000000180025c28 f i libvcruntime:undname.obj
 0001:00024c3c       ?getString@pDNameNode@@UEBAPEADPEAD0@Z 0000000180025c3c f i libvcruntime:undname.obj
 0001:00024c9c       ?getString@pairNode@@UEBAPEADPEAD0@Z 0000000180025c9c f i libvcruntime:undname.obj
 0001:00024d20       ?getString@pcharNode@@UEBAPEADPEAD0@Z 0000000180025d20 f i libvcruntime:undname.obj
 0001:00024d58       ?getStringEncoding@UnDecorator@@CA?AVDName@@PEADH@Z 0000000180025d58 f   libvcruntime:undname.obj
 0001:00024e18       ?getSymbolName@UnDecorator@@CA?AVDName@@XZ 0000000180025e18 f i libvcruntime:undname.obj
 0001:00024e64       ?getTemplateArgumentList@UnDecorator@@CA?AVDName@@XZ 0000000180025e64 f   libvcruntime:undname.obj
 0001:00025134       ?getTemplateConstant@UnDecorator@@CA?AVDName@@XZ 0000000180026134 f   libvcruntime:undname.obj
 0001:000254dc       ?getTemplateName@UnDecorator@@CA?AVDName@@_N@Z 00000001800264dc f   libvcruntime:undname.obj
 0001:000256b8       ?getThrowTypes@UnDecorator@@CA?AVDName@@XZ 00000001800266b8 f   libvcruntime:undname.obj
 0001:0002577c       ?getTypeEncoding@UnDecorator@@CAHXZ 000000018002677c f i libvcruntime:undname.obj
 0001:00025ae0       ?getVfTableType@UnDecorator@@CA?AVDName@@AEBV2@@Z 0000000180026ae0 f i libvcruntime:undname.obj
 0001:00025cb0       ?getZName@UnDecorator@@CA?AVDName@@_N0@Z 0000000180026cb0 f   libvcruntime:undname.obj
 0001:00025f4c       ?length@DNameStatusNode@@UEBAHXZ 0000000180026f4c f i libvcruntime:undname.obj
 0001:00025f50       ?length@pDNameNode@@UEBAHXZ 0000000180026f50 f i libvcruntime:undname.obj
 0001:00025f8c       ?length@pairNode@@UEBAHXZ  0000000180026f8c f i libvcruntime:undname.obj
 0001:00025ff8       ?length@pcharNode@@UEBAHXZ 0000000180026ff8 f i libvcruntime:undname.obj
 0001:00025ffc       ?make@DNameStatusNode@@SAPEAV1@W4DNameStatus@@@Z 0000000180026ffc f i libvcruntime:undname.obj
 0001:00026084       __unDName                  0000000180027084 f   libvcruntime:undname.obj
 0001:0002617c       sprintf_s                  000000018002717c f i libvcruntime:undname.obj
 0001:000261d0       __vcrt_initialize_locks    00000001800271d0 f   libvcruntime:locks.obj
 0001:00026218       __vcrt_lock                0000000180027218 f   libvcruntime:locks.obj
 0001:00026234       __vcrt_uninitialize_locks  0000000180027234 f   libvcruntime:locks.obj
 0001:0002626c       __vcrt_unlock              000000018002726c f   libvcruntime:locks.obj
 0001:00026450       __vcrt_FlsAlloc            0000000180027450 f   libvcruntime:winapi_downlevel.obj
 0001:000264a4       __vcrt_FlsFree             00000001800274a4 f   libvcruntime:winapi_downlevel.obj
 0001:000264f8       __vcrt_FlsGetValue         00000001800274f8 f   libvcruntime:winapi_downlevel.obj
 0001:0002654c       __vcrt_FlsSetValue         000000018002754c f   libvcruntime:winapi_downlevel.obj
 0001:000265b4       __vcrt_InitializeCriticalSectionEx 00000001800275b4 f   libvcruntime:winapi_downlevel.obj
 0001:0002662c       __vcrt_initialize_winapi_thunks 000000018002762c f   libvcruntime:winapi_downlevel.obj
 0001:00026678       __vcrt_uninitialize_winapi_thunks 0000000180027678 f   libvcruntime:winapi_downlevel.obj
 0001:000266d0       strncpy                    00000001800276d0 f   libucrt:strncpy.obj
 0001:00026834       strncpy_s                  0000000180027834 f   libucrt:strncpy_s.obj
 0001:00026908       _wcsdup                    0000000180027908 f   libucrt:wcsdup.obj
 0001:0002698c       _strdup                    000000018002798c f   libucrt:strdup.obj
 0001:00026a04       malloc                     0000000180027a04 f   libucrt:malloc.obj
 0001:00026a0c       free                       0000000180027a0c f   libucrt:free.obj
 0001:00026b60       _beginthreadex             0000000180027b60 f   libucrt:thread.obj
 0001:00026c34       _endthreadex               0000000180027c34 f   libucrt:thread.obj
 0001:00026c40       __acrt_errno_from_os_error 0000000180027c40 f   libucrt:errno.obj
 0001:00026c88       __acrt_errno_map_os_error  0000000180027c88 f   libucrt:errno.obj
 0001:00026cd8       __doserrno                 0000000180027cd8 f   libucrt:errno.obj
 0001:00026cf8       _errno                     0000000180027cf8 f   libucrt:errno.obj
 0001:00026f48       __acrt_initialize_thread_local_exit_callback 0000000180027f48 f   libucrt:exit.obj
 0001:00026f50       _cexit                     0000000180027f50 f   libucrt:exit.obj
 0001:00026f60       _exit                      0000000180027f60 f   libucrt:exit.obj
 0001:00026f6c       _is_c_termination_complete 0000000180027f6c f   libucrt:exit.obj
 0001:00026f74       exit                       0000000180027f74 f   libucrt:exit.obj
 0001:00026f80       __acrt_initialize_stdio    0000000180027f80 f   libucrt:_file.obj
 0001:000270a0       __acrt_iob_func            00000001800280a0 f   libucrt:_file.obj
 0001:000270b4       __acrt_uninitialize_stdio  00000001800280b4 f   libucrt:_file.obj
 0001:00027110       _lock_file                 0000000180028110 f   libucrt:_file.obj
 0001:0002711c       _unlock_file               000000018002811c f   libucrt:_file.obj
 0001:00027128       ??$?RV<lambda_aa279a7bcb127014629d5b1d62c7325d>@@AEAV<lambda_0a64b6a4deda75c01876f29c44fc5eb3>@@V<lambda_3323e69fbefe9d1a11713e670d47cdfa>@@@?$__crt_seh_guarded_call@H@@QEAAH$$QEAV<lambda_aa279a7bcb127014629d5b1d62c7325d>@@AEAV<lambda_0a64b6a4deda75c01876f29c44fc5eb3>@@$$QEAV<lambda_3323e69fbefe9d1a11713e670d47cdfa>@@@Z 0000000180028128 f i libucrt:output.obj
 0001:00027310       ??$ensure_buffer_is_big_enough@D@formatting_buffer@__crt_stdio_output@@QEAA_N_K@Z 0000000180028310 f i libucrt:output.obj
 0001:000273bc       ??$is_wide_character_specifier@D@__crt_stdio_output@@YA_N_KDW4length_modifier@0@@Z 00000001800283bc f i libucrt:output.obj
 0001:000273ec       ??$type_case_integer_parse_into_buffer@I@?$output_processor@DV?$stream_output_adapter@D@__crt_stdio_output@@V?$standard_base@DV?$stream_output_adapter@D@__crt_stdio_output@@@2@@__crt_stdio_output@@AEAAXII_N@Z 00000001800283ec f i libucrt:output.obj
 0001:000273ec       ??$type_case_integer_parse_into_buffer@I@?$output_processor@DV?$string_output_adapter@D@__crt_stdio_output@@V?$standard_base@DV?$string_output_adapter@D@__crt_stdio_output@@@2@@__crt_stdio_output@@AEAAXII_N@Z 00000001800283ec f i libucrt:output.obj
 0001:000273ec       ??$type_case_integer_parse_into_buffer@I@?$output_processor@DV?$string_output_adapter@D@__crt_stdio_output@@V?$format_validation_base@DV?$string_output_adapter@D@__crt_stdio_output@@@2@@__crt_stdio_output@@AEAAXII_N@Z 00000001800283ec f i libucrt:output.obj
 0001:00027488       ??$type_case_integer_parse_into_buffer@_K@?$output_processor@DV?$string_output_adapter@D@__crt_stdio_output@@V?$format_validation_base@DV?$string_output_adapter@D@__crt_stdio_output@@@2@@__crt_stdio_output@@AEAAX_KI_N@Z 0000000180028488 f i libucrt:output.obj
 0001:00027488       ??$type_case_integer_parse_into_buffer@_K@?$output_processor@DV?$stream_output_adapter@D@__crt_stdio_output@@V?$standard_base@DV?$stream_output_adapter@D@__crt_stdio_output@@@2@@__crt_stdio_output@@AEAAX_KI_N@Z 0000000180028488 f i libucrt:output.obj
 0001:00027488       ??$type_case_integer_parse_into_buffer@_K@?$output_processor@DV?$string_output_adapter@D@__crt_stdio_output@@V?$standard_base@DV?$string_output_adapter@D@__crt_stdio_output@@@2@@__crt_stdio_output@@AEAAX_KI_N@Z 0000000180028488 f i libucrt:output.obj
 0001:00027524       ??$write_multiple_characters@V?$stream_output_adapter@D@__crt_stdio_output@@D@__crt_stdio_output@@YAXAEBV?$stream_output_adapter@D@0@DHQEAH@Z 0000000180028524 f i libucrt:output.obj
 0001:000275a8       ??$write_multiple_characters@V?$string_output_adapter@D@__crt_stdio_output@@D@__crt_stdio_output@@YAXAEBV?$string_output_adapter@D@0@DHQEAH@Z 00000001800285a8 f i libucrt:output.obj
 0001:00027604       ??0?$output_processor@DV?$string_output_adapter@D@__crt_stdio_output@@V?$format_validation_base@DV?$string_output_adapter@D@__crt_stdio_output@@@2@@__crt_stdio_output@@QEAA@AEBV?$string_output_adapter@D@1@_KQEBDQEAU__crt_locale_pointers@@QEAD@Z 0000000180028604 f i libucrt:output.obj
 0001:00027604       ??0?$output_processor@DV?$stream_output_adapter@D@__crt_stdio_output@@V?$standard_base@DV?$stream_output_adapter@D@__crt_stdio_output@@@2@@__crt_stdio_output@@QEAA@AEBV?$stream_output_adapter@D@1@_KQEBDQEAU__crt_locale_pointers@@QEAD@Z 0000000180028604 f i libucrt:output.obj
 0001:00027604       ??0?$output_processor@DV?$string_output_adapter@D@__crt_stdio_output@@V?$standard_base@DV?$string_output_adapter@D@__crt_stdio_output@@@2@@__crt_stdio_output@@QEAA@AEBV?$string_output_adapter@D@1@_KQEBDQEAU__crt_locale_pointers@@QEAD@Z 0000000180028604 f i libucrt:output.obj
 0001:00027680       ??0_LocaleUpdate@@QEAA@QEAU__crt_locale_pointers@@@Z 0000000180028680 f i libucrt:output.obj
 0001:00027800       ?force_decimal_point@__crt_stdio_output@@YAXPEADQEAU__crt_locale_pointers@@@Z 0000000180028800 f i libucrt:output.obj
 0001:00027870       ?parse_int_from_format_string@?$output_processor@DV?$string_output_adapter@D@__crt_stdio_output@@V?$format_validation_base@DV?$string_output_adapter@D@__crt_stdio_output@@@2@@__crt_stdio_output@@AEAA_NQEAH@Z 0000000180028870 f i libucrt:output.obj
 0001:00027870       ?parse_int_from_format_string@?$output_processor@DV?$stream_output_adapter@D@__crt_stdio_output@@V?$standard_base@DV?$stream_output_adapter@D@__crt_stdio_output@@@2@@__crt_stdio_output@@AEAA_NQEAH@Z 0000000180028870 f i libucrt:output.obj
 0001:00027870       ?parse_int_from_format_string@?$output_processor@DV?$string_output_adapter@D@__crt_stdio_output@@V?$standard_base@DV?$string_output_adapter@D@__crt_stdio_output@@@2@@__crt_stdio_output@@AEAA_NQEAH@Z 0000000180028870 f i libucrt:output.obj
 0001:000278f4       ?process@?$output_processor@DV?$stream_output_adapter@D@__crt_stdio_output@@V?$standard_base@DV?$stream_output_adapter@D@__crt_stdio_output@@@2@@__crt_stdio_output@@QEAAHXZ 00000001800288f4 f i libucrt:output.obj
 0001:00027b04       ?process@?$output_processor@DV?$string_output_adapter@D@__crt_stdio_output@@V?$format_validation_base@DV?$string_output_adapter@D@__crt_stdio_output@@@2@@__crt_stdio_output@@QEAAHXZ 0000000180028b04 f i libucrt:output.obj
 0001:00027d18       ?process@?$output_processor@DV?$string_output_adapter@D@__crt_stdio_output@@V?$standard_base@DV?$string_output_adapter@D@__crt_stdio_output@@@2@@__crt_stdio_output@@QEAAHXZ 0000000180028d18 f i libucrt:output.obj
 0001:00027f1c       ?state_case_normal@?$output_processor@DV?$stream_output_adapter@D@__crt_stdio_output@@V?$standard_base@DV?$stream_output_adapter@D@__crt_stdio_output@@@2@@__crt_stdio_output@@AEAA_NXZ 0000000180028f1c f i libucrt:output.obj
 0001:00027f8c       ?state_case_normal@?$output_processor@DV?$string_output_adapter@D@__crt_stdio_output@@V?$format_validation_base@DV?$string_output_adapter@D@__crt_stdio_output@@@2@@__crt_stdio_output@@AEAA_NXZ 0000000180028f8c f i libucrt:output.obj
 0001:00027f8c       ?state_case_normal@?$output_processor@DV?$string_output_adapter@D@__crt_stdio_output@@V?$standard_base@DV?$string_output_adapter@D@__crt_stdio_output@@@2@@__crt_stdio_output@@AEAA_NXZ 0000000180028f8c f i libucrt:output.obj
 0001:00028000       ?state_case_normal_tchar@?$output_processor@DV?$stream_output_adapter@D@__crt_stdio_output@@V?$standard_base@DV?$stream_output_adapter@D@__crt_stdio_output@@@2@@__crt_stdio_output@@AEAA_ND@Z 0000000180029000 f i libucrt:output.obj
 0001:00028094       ?state_case_normal_tchar@?$output_processor@DV?$string_output_adapter@D@__crt_stdio_output@@V?$standard_base@DV?$string_output_adapter@D@__crt_stdio_output@@@2@@__crt_stdio_output@@AEAA_ND@Z 0000000180029094 f i libucrt:output.obj
 0001:00028094       ?state_case_normal_tchar@?$output_processor@DV?$string_output_adapter@D@__crt_stdio_output@@V?$format_validation_base@DV?$string_output_adapter@D@__crt_stdio_output@@@2@@__crt_stdio_output@@AEAA_ND@Z 0000000180029094 f i libucrt:output.obj
 0001:0002812c       ?state_case_size@?$output_processor@DV?$stream_output_adapter@D@__crt_stdio_output@@V?$standard_base@DV?$stream_output_adapter@D@__crt_stdio_output@@@2@@__crt_stdio_output@@AEAA_NXZ 000000018002912c f i libucrt:output.obj
 0001:000282a8       ?state_case_size@?$output_processor@DV?$string_output_adapter@D@__crt_stdio_output@@V?$format_validation_base@DV?$string_output_adapter@D@__crt_stdio_output@@@2@@__crt_stdio_output@@AEAA_NXZ 00000001800292a8 f i libucrt:output.obj
 0001:000282a8       ?state_case_size@?$output_processor@DV?$string_output_adapter@D@__crt_stdio_output@@V?$standard_base@DV?$string_output_adapter@D@__crt_stdio_output@@@2@@__crt_stdio_output@@AEAA_NXZ 00000001800292a8 f i libucrt:output.obj
 0001:00028424       ?state_case_type@?$output_processor@DV?$stream_output_adapter@D@__crt_stdio_output@@V?$standard_base@DV?$stream_output_adapter@D@__crt_stdio_output@@@2@@__crt_stdio_output@@AEAA_NXZ 0000000180029424 f i libucrt:output.obj
 0001:000286a0       ?state_case_type@?$output_processor@DV?$string_output_adapter@D@__crt_stdio_output@@V?$format_validation_base@DV?$string_output_adapter@D@__crt_stdio_output@@@2@@__crt_stdio_output@@AEAA_NXZ 00000001800296a0 f i libucrt:output.obj
 0001:000286a0       ?state_case_type@?$output_processor@DV?$string_output_adapter@D@__crt_stdio_output@@V?$standard_base@DV?$string_output_adapter@D@__crt_stdio_output@@@2@@__crt_stdio_output@@AEAA_NXZ 00000001800296a0 f i libucrt:output.obj
 0001:0002891c       ?type_case_Z@?$output_processor@DV?$string_output_adapter@D@__crt_stdio_output@@V?$format_validation_base@DV?$string_output_adapter@D@__crt_stdio_output@@@2@@__crt_stdio_output@@AEAA_NXZ 000000018002991c f i libucrt:output.obj
 0001:0002891c       ?type_case_Z@?$output_processor@DV?$stream_output_adapter@D@__crt_stdio_output@@V?$standard_base@DV?$stream_output_adapter@D@__crt_stdio_output@@@2@@__crt_stdio_output@@AEAA_NXZ 000000018002991c f i libucrt:output.obj
 0001:0002891c       ?type_case_Z@?$output_processor@DV?$string_output_adapter@D@__crt_stdio_output@@V?$standard_base@DV?$string_output_adapter@D@__crt_stdio_output@@@2@@__crt_stdio_output@@AEAA_NXZ 000000018002991c f i libucrt:output.obj
 0001:0002899c       ?type_case_a@?$output_processor@DV?$string_output_adapter@D@__crt_stdio_output@@V?$standard_base@DV?$string_output_adapter@D@__crt_stdio_output@@@2@@__crt_stdio_output@@AEAA_NXZ 000000018002999c f i libucrt:output.obj
 0001:0002899c       ?type_case_a@?$output_processor@DV?$stream_output_adapter@D@__crt_stdio_output@@V?$standard_base@DV?$stream_output_adapter@D@__crt_stdio_output@@@2@@__crt_stdio_output@@AEAA_NXZ 000000018002999c f i libucrt:output.obj
 0001:0002899c       ?type_case_a@?$output_processor@DV?$string_output_adapter@D@__crt_stdio_output@@V?$format_validation_base@DV?$string_output_adapter@D@__crt_stdio_output@@@2@@__crt_stdio_output@@AEAA_NXZ 000000018002999c f i libucrt:output.obj
 0001:00028bb8       ?type_case_c_tchar@?$output_processor@DV?$string_output_adapter@D@__crt_stdio_output@@V?$standard_base@DV?$string_output_adapter@D@__crt_stdio_output@@@2@@__crt_stdio_output@@AEAA_ND@Z 0000000180029bb8 f i libucrt:output.obj
 0001:00028bb8       ?type_case_c_tchar@?$output_processor@DV?$stream_output_adapter@D@__crt_stdio_output@@V?$standard_base@DV?$stream_output_adapter@D@__crt_stdio_output@@@2@@__crt_stdio_output@@AEAA_ND@Z 0000000180029bb8 f i libucrt:output.obj
 0001:00028bb8       ?type_case_c_tchar@?$output_processor@DV?$string_output_adapter@D@__crt_stdio_output@@V?$format_validation_base@DV?$string_output_adapter@D@__crt_stdio_output@@@2@@__crt_stdio_output@@AEAA_ND@Z 0000000180029bb8 f i libucrt:output.obj
 0001:00028c6c       ?type_case_integer@?$output_processor@DV?$stream_output_adapter@D@__crt_stdio_output@@V?$standard_base@DV?$stream_output_adapter@D@__crt_stdio_output@@@2@@__crt_stdio_output@@AEAA_NI_N@Z 0000000180029c6c f i libucrt:output.obj
 0001:00028c6c       ?type_case_integer@?$output_processor@DV?$string_output_adapter@D@__crt_stdio_output@@V?$format_validation_base@DV?$string_output_adapter@D@__crt_stdio_output@@@2@@__crt_stdio_output@@AEAA_NI_N@Z 0000000180029c6c f i libucrt:output.obj
 0001:00028c6c       ?type_case_integer@?$output_processor@DV?$string_output_adapter@D@__crt_stdio_output@@V?$standard_base@DV?$string_output_adapter@D@__crt_stdio_output@@@2@@__crt_stdio_output@@AEAA_NI_N@Z 0000000180029c6c f i libucrt:output.obj
 0001:00028e0c       ?type_case_n@?$output_processor@DV?$string_output_adapter@D@__crt_stdio_output@@V?$standard_base@DV?$string_output_adapter@D@__crt_stdio_output@@@2@@__crt_stdio_output@@AEAA_NXZ 0000000180029e0c f i libucrt:output.obj
 0001:00028e0c       ?type_case_n@?$output_processor@DV?$stream_output_adapter@D@__crt_stdio_output@@V?$standard_base@DV?$stream_output_adapter@D@__crt_stdio_output@@@2@@__crt_stdio_output@@AEAA_NXZ 0000000180029e0c f i libucrt:output.obj
 0001:00028e0c       ?type_case_n@?$output_processor@DV?$string_output_adapter@D@__crt_stdio_output@@V?$format_validation_base@DV?$string_output_adapter@D@__crt_stdio_output@@@2@@__crt_stdio_output@@AEAA_NXZ 0000000180029e0c f i libucrt:output.obj
 0001:00028ee8       ?type_case_s@?$output_processor@DV?$string_output_adapter@D@__crt_stdio_output@@V?$standard_base@DV?$string_output_adapter@D@__crt_stdio_output@@@2@@__crt_stdio_output@@AEAA_NXZ 0000000180029ee8 f i libucrt:output.obj
 0001:00028ee8       ?type_case_s@?$output_processor@DV?$string_output_adapter@D@__crt_stdio_output@@V?$format_validation_base@DV?$string_output_adapter@D@__crt_stdio_output@@@2@@__crt_stdio_output@@AEAA_NXZ 0000000180029ee8 f i libucrt:output.obj
 0001:00028ee8       ?type_case_s@?$output_processor@DV?$stream_output_adapter@D@__crt_stdio_output@@V?$standard_base@DV?$stream_output_adapter@D@__crt_stdio_output@@@2@@__crt_stdio_output@@AEAA_NXZ 0000000180029ee8 f i libucrt:output.obj
 0001:00028f78       ?validate_stream_is_ansi_if_required@?$__acrt_stdio_char_traits@D@@SA_NQEAU_iobuf@@@Z 0000000180029f78 f i libucrt:output.obj
 0001:00029004       ?write_stored_string_tchar@?$output_processor@DV?$stream_output_adapter@D@__crt_stdio_output@@V?$standard_base@DV?$stream_output_adapter@D@__crt_stdio_output@@@2@@__crt_stdio_output@@AEAA_ND@Z 000000018002a004 f i libucrt:output.obj
 0001:000290dc       ?write_stored_string_tchar@?$output_processor@DV?$string_output_adapter@D@__crt_stdio_output@@V?$format_validation_base@DV?$string_output_adapter@D@__crt_stdio_output@@@2@@__crt_stdio_output@@AEAA_ND@Z 000000018002a0dc f i libucrt:output.obj
 0001:000290dc       ?write_stored_string_tchar@?$output_processor@DV?$string_output_adapter@D@__crt_stdio_output@@V?$standard_base@DV?$string_output_adapter@D@__crt_stdio_output@@@2@@__crt_stdio_output@@AEAA_ND@Z 000000018002a0dc f i libucrt:output.obj
 0001:000291b4       ?write_string@?$stream_output_adapter@D@__crt_stdio_output@@QEBAXQEBDHQEAH1@Z 000000018002a1b4 f i libucrt:output.obj
 0001:000292ac       ?write_string@?$string_output_adapter@D@__crt_stdio_output@@QEBAXQEBDHQEAH1@Z 000000018002a2ac f i libucrt:output.obj
 0001:00029368       __stdio_common_vfprintf    000000018002a368 f   libucrt:output.obj
 0001:000293f4       __stdio_common_vsprintf    000000018002a3f4 f   libucrt:output.obj
 0001:00029628       __stdio_common_vsprintf_s  000000018002a628 f   libucrt:output.obj
 0001:0002968c       abort                      000000018002a68c f   libucrt:abort.obj
 0001:000296e4       __acrt_stdio_flush_nolock  000000018002a6e4 f   libucrt:fflush.obj
 0001:0002975c       _fflush_nolock             000000018002a75c f   libucrt:fflush.obj
 0001:000297a8       _flushall                  000000018002a7a8 f   libucrt:fflush.obj
 0001:00029898       fflush                     000000018002a898 f   libucrt:fflush.obj
 0001:000298dc       ??$?RV<lambda_a81aa23bb2c9577c1e55b9d0b57d9de4>@@AEAV<lambda_9a20e10065b92b5193c3597a66cba9d4>@@V<lambda_cb3a421ff86d8a5f008440ee6b28fa9c>@@@?$__crt_seh_guarded_call@H@@QEAAH$$QEAV<lambda_a81aa23bb2c9577c1e55b9d0b57d9de4>@@AEAV<lambda_9a20e10065b92b5193c3597a66cba9d4>@@$$QEAV<lambda_cb3a421ff86d8a5f008440ee6b28fa9c>@@@Z 000000018002a8dc f i libucrt:fputs.obj
 0001:00029988       fputs                      000000018002a988 f   libucrt:fputs.obj
 0001:00029a88       strerror                   000000018002aa88 f   libucrt:strerror.obj
 0001:00029c20       getenv                     000000018002ac20 f   libucrt:getenv.obj
 0001:00029c28       terminate                  000000018002ac28 f   libucrt:terminate.obj
 0001:00029c50       __acrt_initialize_new_handler 000000018002ac50 f   libucrt:new_handler.obj
 0001:00029c58       _callnewh                  000000018002ac58 f   libucrt:new_handler.obj
 0001:00029c98       _query_new_handler         000000018002ac98 f   libucrt:new_handler.obj
 0001:00029ccc       _seh_filter_dll            000000018002accc f   libucrt:exception_filter.obj
 0001:00029ce0       _seh_filter_exe            000000018002ace0 f   libucrt:exception_filter.obj
 0001:0002a02c       __acrt_allocate_buffer_for_argv 000000018002b02c f   libucrt:argv_parsing.obj
 0001:0002a090       _configure_narrow_argv     000000018002b090 f   libucrt:argv_parsing.obj
 0001:0002a508       __dcrt_get_or_create_narrow_environment_nolock 000000018002b508 f   libucrt:environment_initialization.obj
 0001:0002a510       __dcrt_uninitialize_environments_nolock 000000018002b510 f   libucrt:environment_initialization.obj
 0001:0002a548       _initialize_narrow_environment 000000018002b548 f   libucrt:environment_initialization.obj
 0001:0002a550       ??$?RV<lambda_b8c45f8f788dd370798f47cfe8ac3a86>@@AEAV<lambda_4e60a939b0d047cfe11ddc22648dfba9>@@V<lambda_332c3edc96d0294ec56c57d38c1cdfd5>@@@?$__crt_seh_guarded_call@H@@QEAAH$$QEAV<lambda_b8c45f8f788dd370798f47cfe8ac3a86>@@AEAV<lambda_4e60a939b0d047cfe11ddc22648dfba9>@@$$QEAV<lambda_332c3edc96d0294ec56c57d38c1cdfd5>@@@Z 000000018002b550 f i libucrt:onexit.obj
 0001:0002a58c       ??$?RV<lambda_e24bbb7b643b32fcea6fa61b31d4c984>@@AEAV<lambda_275893d493268fdec8709772e3fcec0e>@@V<lambda_9d71df4d7cf3f480f8d633942495c3b0>@@@?$__crt_seh_guarded_call@H@@QEAAH$$QEAV<lambda_e24bbb7b643b32fcea6fa61b31d4c984>@@AEAV<lambda_275893d493268fdec8709772e3fcec0e>@@$$QEAV<lambda_9d71df4d7cf3f480f8d633942495c3b0>@@@Z 000000018002b58c f i libucrt:onexit.obj
 0001:0002a908       _crt_atexit                000000018002b908 f   libucrt:onexit.obj
 0001:0002a918       _execute_onexit_table      000000018002b918 f   libucrt:onexit.obj
 0001:0002a954       _initialize_onexit_table   000000018002b954 f   libucrt:onexit.obj
 0001:0002a994       _register_onexit_function  000000018002b994 f   libucrt:onexit.obj
 0001:0002ab10       __acrt_initialize          000000018002bb10 f   libucrt:initialization.obj
 0001:0002ab24       __acrt_thread_attach       000000018002bb24 f   libucrt:initialization.obj
 0001:0002ab38       __acrt_thread_detach       000000018002bb38 f   libucrt:initialization.obj
 0001:0002ab48       __acrt_uninitialize        000000018002bb48 f   libucrt:initialization.obj
 0001:0002ab5c       __acrt_uninitialize_critical 000000018002bb5c f   libucrt:initialization.obj
 0001:0002ab6c       _initterm                  000000018002bb6c f   libucrt:initterm.obj
 0001:0002abe4       _initterm_e                000000018002bbe4 f   libucrt:initterm.obj
 0001:0002ac30       strcpy_s                   000000018002bc30 f   libucrt:strcpy_s.obj
 0001:0002ac90       _free_base                 000000018002bc90 f   libucrt:free_base.obj
 0001:0002acd0       _malloc_base               000000018002bcd0 f   libucrt:malloc_base.obj
 0001:0002ad30       _calloc_base               000000018002bd30 f   libucrt:calloc_base.obj
 0001:0002ada8       ??$is_overflow_condition@K@__crt_strtox@@YA_NIK@Z 000000018002bda8 f i libucrt:atox.obj
 0001:0002add4       ??$parse_integer@KV?$c_string_character_source@D@__crt_strtox@@@__crt_strtox@@YAKQEAU__crt_locale_pointers@@V?$c_string_character_source@D@0@H_N@Z 000000018002bdd4 f i libucrt:atox.obj
 0001:0002b0e8       atol                       000000018002c0e8 f   libucrt:atox.obj
 0001:0002b114       __acrt_call_reportfault    000000018002c114 f   libucrt:invalid_parameter.obj
 0001:0002b270       __acrt_initialize_invalid_parameter_handler 000000018002c270 f   libucrt:invalid_parameter.obj
 0001:0002b278       _invalid_parameter         000000018002c278 f   libucrt:invalid_parameter.obj
 0001:0002b320       _invalid_parameter_noinfo  000000018002c320 f   libucrt:invalid_parameter.obj
 0001:0002b340       _invoke_watson             000000018002c340 f   libucrt:invalid_parameter.obj
 0001:0002b388       wcscpy_s                   000000018002c388 f   libucrt:wcscpy_s.obj
 0001:0002b3f0       ??$?RV<lambda_46352004c1216016012b18bd6f87e700>@@AEAV<lambda_3bd07e1a1191394380780325891bf33f>@@V<lambda_334532d3f185bcaa59b5be82d7d22bff>@@@?$__crt_seh_guarded_call@X@@QEAAX$$QEAV<lambda_46352004c1216016012b18bd6f87e700>@@AEAV<lambda_3bd07e1a1191394380780325891bf33f>@@$$QEAV<lambda_334532d3f185bcaa59b5be82d7d22bff>@@@Z 000000018002c3f0 f i libucrt:per_thread_data.obj
 0001:0002b450       ??$?RV<lambda_5e887d1dcbef67a5eb4283622ba103bf>@@AEAV<lambda_4466841279450cc726390878d4a41900>@@V<lambda_341c25c0346d94847f1f3c463c57e077>@@@?$__crt_seh_guarded_call@X@@QEAAX$$QEAV<lambda_5e887d1dcbef67a5eb4283622ba103bf>@@AEAV<lambda_4466841279450cc726390878d4a41900>@@$$QEAV<lambda_341c25c0346d94847f1f3c463c57e077>@@@Z 000000018002c450 f i libucrt:per_thread_data.obj
 0001:0002b498       ??$?RV<lambda_72d1df2b273a38828b1ce30cbf4cdab5>@@AEAV<lambda_876a65b173b8412d3a47c70a915b0cf4>@@V<lambda_41932305e351933ebe8f8be3ed8bb5dc>@@@?$__crt_seh_guarded_call@X@@QEAAX$$QEAV<lambda_72d1df2b273a38828b1ce30cbf4cdab5>@@AEAV<lambda_876a65b173b8412d3a47c70a915b0cf4>@@$$QEAV<lambda_41932305e351933ebe8f8be3ed8bb5dc>@@@Z 000000018002c498 f i libucrt:per_thread_data.obj
 0001:0002b4d8       ??$?RV<lambda_fb3a7dec4e47f37f22dae91bb15c9095>@@AEAV<lambda_698284760c8add0bfb0756c19673e34b>@@V<lambda_dfb8eca1e75fef3034a8fb18dd509707>@@@?$__crt_seh_guarded_call@X@@QEAAX$$QEAV<lambda_fb3a7dec4e47f37f22dae91bb15c9095>@@AEAV<lambda_698284760c8add0bfb0756c19673e34b>@@$$QEAV<lambda_dfb8eca1e75fef3034a8fb18dd509707>@@@Z 000000018002c4d8 f i libucrt:per_thread_data.obj
 0001:0002b768       __acrt_freeptd             000000018002c768 f   libucrt:per_thread_data.obj
 0001:0002b7ac       __acrt_getptd              000000018002c7ac f   libucrt:per_thread_data.obj
 0001:0002b840       __acrt_getptd_noexit       000000018002c840 f   libucrt:per_thread_data.obj
 0001:0002b8e0       __acrt_initialize_ptd      000000018002c8e0 f   libucrt:per_thread_data.obj
 0001:0002b91c       __acrt_uninitialize_ptd    000000018002c91c f   libucrt:per_thread_data.obj
 0001:0002bae0       __acrt_CompareStringEx     000000018002cae0 f   libucrt:winapi_thunks.obj
 0001:0002bbd0       __acrt_FlsAlloc            000000018002cbd0 f   libucrt:winapi_thunks.obj
 0001:0002bc28       __acrt_FlsFree             000000018002cc28 f   libucrt:winapi_thunks.obj
 0001:0002bc80       __acrt_FlsGetValue         000000018002cc80 f   libucrt:winapi_thunks.obj
 0001:0002bcd8       __acrt_FlsSetValue         000000018002ccd8 f   libucrt:winapi_thunks.obj
 0001:0002bd40       __acrt_InitializeCriticalSectionEx 000000018002cd40 f   libucrt:winapi_thunks.obj
 0001:0002bdb8       __acrt_LCMapStringEx       000000018002cdb8 f   libucrt:winapi_thunks.obj
 0001:0002bea8       __acrt_LocaleNameToLCID    000000018002cea8 f   libucrt:winapi_thunks.obj
 0001:0002bf10       __acrt_RoInitialize        000000018002cf10 f   libucrt:winapi_thunks.obj
 0001:0002bf5c       __acrt_RoUninitialize      000000018002cf5c f   libucrt:winapi_thunks.obj
 0001:0002bf9c       __acrt_initialize_winapi_thunks 000000018002cf9c f   libucrt:winapi_thunks.obj
 0001:0002bfd4       __acrt_is_packaged_app     000000018002cfd4 f   libucrt:winapi_thunks.obj
 0001:0002c05c       __acrt_uninitialize_winapi_thunks 000000018002d05c f   libucrt:winapi_thunks.obj
 0001:0002c0a0       __acrt_initialize_locks    000000018002d0a0 f   libucrt:locks.obj
 0001:0002c0e8       __acrt_lock                000000018002d0e8 f   libucrt:locks.obj
 0001:0002c104       __acrt_uninitialize_locks  000000018002d104 f   libucrt:locks.obj
 0001:0002c13c       __acrt_unlock              000000018002d13c f   libucrt:locks.obj
 0001:0002c158       _fcloseall                 000000018002d158 f   libucrt:closeall.obj
 0001:0002c20c       __acrt_stdio_free_buffer_nolock 000000018002d20c f   libucrt:_freebuf.obj
 0001:0002c434       __acrt_initialize_lowio    000000018002d434 f   libucrt:ioinit.obj
 0001:0002c470       __acrt_uninitialize_lowio  000000018002d470 f   libucrt:ioinit.obj
 0001:0002c4b0       isdigit                    000000018002d4b0 f i libucrt:_ctype.obj
 0001:0002c574       _tolower_l                 000000018002d574 f   libucrt:tolower_toupper.obj
 0001:0002c6b4       tolower                    000000018002d6b4 f   libucrt:tolower_toupper.obj
 0001:0002c6e0       ??$make_c_string_character_source@D$$T@__crt_strtox@@YA?AV?$c_string_character_source@D@0@QEBD$$T@Z 000000018002d6e0 f i libucrt:atox.obj
 0001:0002c6e0       ??$make_c_string_character_source@DPEAPEAD@__crt_strtox@@YA?AV?$c_string_character_source@D@0@QEBDQEAPEAD@Z 000000018002d6e0 f i libucrt:strtox.obj
 0001:0002c6f4       strtol                     000000018002d6f4 f   libucrt:strtox.obj
 0001:0002c724       _mbtowc_l                  000000018002d724 f   libucrt:mbtowc.obj
 0001:0002c86c       mbtowc                     000000018002d86c f   libucrt:mbtowc.obj
 0001:0002c874       _wctomb_s_l                000000018002d874 f   libucrt:wctomb.obj
 0001:0002c9f8       wctomb_s                   000000018002d9f8 f   libucrt:wctomb.obj
 0001:0002ca0c       strnlen                    000000018002da0c f   libucrt:strnlen.obj
 0001:0002cb68       wcsnlen                    000000018002db68 f   libucrt:strnlen.obj
 0001:0002cd58       __acrt_update_locale_info  000000018002dd58 f   libucrt:locale_update.obj
 0001:0002cd8c       __acrt_update_multibyte_info 000000018002dd8c f   libucrt:locale_update.obj
 0001:0002cdc0       ?__acrt_fp_classify@@YA?AW4__acrt_fp_class@@AEBN@Z 000000018002ddc0 f i libucrt:cvt.obj
 0001:0002d7f8       __acrt_fp_format           000000018002e7f8 f   libucrt:cvt.obj
 0001:0002da3c       _fileno                    000000018002ea3c f   libucrt:fileno.obj
 0001:0002da64       _fputc_nolock              000000018002ea64 f   libucrt:fputc.obj
 0001:0002da7c       _get_printf_count_output   000000018002ea7c f   libucrt:printf_count_output.obj
 0001:0002da94       __acrt_stdio_begin_temporary_buffering_nolock 000000018002ea94 f   libucrt:_sftbuf.obj
 0001:0002db64       __acrt_stdio_end_temporary_buffering_nolock 000000018002eb64 f   libucrt:_sftbuf.obj
 0001:0002dba0       __acrt_set_locale_changed  000000018002eba0 f   libucrt:wsetlocale.obj
 0001:0002dbac       __acrt_uninitialize_locale 000000018002ebac f   libucrt:wsetlocale.obj
 0001:0002dbf4       ??$?RV<lambda_c36588078e9f5dfd39652860aa6b3aaf>@@AEAV<lambda_ec61778202f4f5fc7e7711acc23c3bca>@@V<lambda_dc9d2797ccde5d239b4a0efae8ebd7db>@@@?$__crt_seh_guarded_call@P6AXH@Z@@QEAAP6AXH@Z$$QEAV<lambda_c36588078e9f5dfd39652860aa6b3aaf>@@AEAV<lambda_ec61778202f4f5fc7e7711acc23c3bca>@@$$QEAV<lambda_dc9d2797ccde5d239b4a0efae8ebd7db>@@@Z 000000018002ebf4 f i libucrt:signal.obj
 0001:0002dc3c       __acrt_get_sigabrt_handler 000000018002ec3c f   libucrt:signal.obj
 0001:0002dc6c       __acrt_initialize_signal_handlers 000000018002ec6c f   libucrt:signal.obj
 0001:0002dc8c       raise                      000000018002ec8c f   libucrt:signal.obj
 0001:0002df28       ??$?RV<lambda_b521505b218e5242e90febf6bfebc422>@@AEAV<lambda_6978c1fb23f02e42e1d9e99668cc68aa>@@V<lambda_314360699dd331753a4119843814e9a7>@@@?$__crt_seh_guarded_call@H@@QEAAH$$QEAV<lambda_b521505b218e5242e90febf6bfebc422>@@AEAV<lambda_6978c1fb23f02e42e1d9e99668cc68aa>@@$$QEAV<lambda_314360699dd331753a4119843814e9a7>@@@Z 000000018002ef28 f i libucrt:commit.obj
 0001:0002dfb4       _commit                    000000018002efb4 f   libucrt:commit.obj
 0001:0002e5e8       _write                     000000018002f5e8 f   libucrt:write.obj
 0001:0002e6d4       _write_nolock              000000018002f6d4 f   libucrt:write.obj
 0001:0002e9b8       _fwrite_nolock             000000018002f9b8 f   libucrt:fwrite.obj
 0001:0002eb54       __sys_errlist              000000018002fb54 f   libucrt:syserr.obj
 0001:0002eb5c       __sys_nerr                 000000018002fb5c f   libucrt:syserr.obj
 0001:0002eb64       _strnicoll                 000000018002fb64 f   libucrt:strnicol.obj
 0001:0002eb7c       _strnicoll_l               000000018002fb7c f   libucrt:strnicol.obj
 0001:0002f158       ?expand_if_necessary@?$argument_list@D@?A0xca0879c4@@AEAAHXZ 0000000180030158 f i libucrt:argv_wildcards.obj
 0001:0002f220       __acrt_expand_narrow_argv_wildcards 0000000180030220 f   libucrt:argv_wildcards.obj
 0001:0002f228       ??$?RV<lambda_99476a1ad63dd22509b5d3e65b0ffc95>@@AEAV<lambda_ad1ced32f4ac17aa236e5ef05d6b3b7c>@@V<lambda_f7424dd8d45958661754dc4f2697e9c3>@@@?$__crt_seh_guarded_call@X@@QEAAX$$QEAV<lambda_99476a1ad63dd22509b5d3e65b0ffc95>@@AEAV<lambda_ad1ced32f4ac17aa236e5ef05d6b3b7c>@@$$QEAV<lambda_f7424dd8d45958661754dc4f2697e9c3>@@@Z 0000000180030228 f i libucrt:mbctype.obj
 0001:0002f924       __acrt_initialize_multibyte 0000000180030924 f   libucrt:mbctype.obj
 0001:0002f94c       __acrt_update_thread_multibyte_data 000000018003094c f   libucrt:mbctype.obj
 0001:0002fa0c       _setmbcp_nolock            0000000180030a0c f   libucrt:mbctype.obj
 0001:0002fd2c       _ismbblead                 0000000180030d2c f   libucrt:ismbbyte.obj
 0001:0002fd40       __acrt_initialize_command_line 0000000180030d40 f   libucrt:argv_data.obj
 0001:0002fd68       __dcrt_get_narrow_environment_from_os 0000000180030d68 f   libucrt:get_environment_from_os.obj
 0001:00030248       __dcrt_set_variable_in_narrow_environment_nolock 0000000180031248 f   libucrt:setenv.obj
 0001:00030250       _recalloc                  0000000180031250 f   libucrt:recalloc.obj
 0001:00030258       _recalloc_base             0000000180031258 f   libucrt:recalloc.obj
 0001:000302f0       __acrt_initialize_heap     00000001800312f0 f   libucrt:heap_handle.obj
 0001:0003030c       __acrt_uninitialize_heap   000000018003130c f   libucrt:heap_handle.obj
 0001:00030318       __acrt_execute_initializers 0000000180031318 f   libucrt:shared_initialization.obj
 0001:000303ac       __acrt_execute_uninitializers 00000001800313ac f   libucrt:shared_initialization.obj
 0001:000303fc       __acrt_has_user_matherr    00000001800313fc f   libucrt:matherr.obj
 0001:0003041c       __acrt_initialize_user_matherr 000000018003141c f   libucrt:matherr.obj
 0001:00030424       __acrt_invoke_user_matherr 0000000180031424 f   libucrt:matherr.obj
 0001:0003046c       _query_new_mode            000000018003146c f   libucrt:new_mode.obj
 0001:00030474       __pctype_func              0000000180031474 f   libucrt:ctype.obj
 0001:000304a4       _isctype_l                 00000001800314a4 f   libucrt:isctype.obj
 0001:000305b4       __acrt_add_locale_ref      00000001800315b4 f   libucrt:locale_refcounting.obj
 0001:00030640       __acrt_free_locale         0000000180031640 f   libucrt:locale_refcounting.obj
 0001:000307b8       __acrt_locale_add_lc_time_reference 00000001800317b8 f   libucrt:locale_refcounting.obj
 0001:000307e0       __acrt_locale_free_lc_time_if_unreferenced 00000001800317e0 f   libucrt:locale_refcounting.obj
 0001:00030818       __acrt_locale_release_lc_time_reference 0000000180031818 f   libucrt:locale_refcounting.obj
 0001:00030840       __acrt_release_locale_ref  0000000180031840 f   libucrt:locale_refcounting.obj
 0001:000308e8       __acrt_update_thread_locale_data 00000001800318e8 f   libucrt:locale_refcounting.obj
 0001:00030958       _updatetlocinfoEx_nolock   0000000180031958 f   libucrt:locale_refcounting.obj
 0001:00030a88       __acrt_DownlevelLocaleNameToLCID 0000000180031a88 f   libucrt:lcidtoname_downlevel.obj
 0001:00030abc       _fclose_nolock             0000000180031abc f   libucrt:fclose.obj
 0001:00030b40       fclose                     0000000180031b40 f   libucrt:fclose.obj
 0001:00030bac       __acrt_lowio_create_handle_array 0000000180031bac f   libucrt:osfinfo.obj
 0001:00030c44       __acrt_lowio_destroy_handle_array 0000000180031c44 f   libucrt:osfinfo.obj
 0001:00030c94       __acrt_lowio_ensure_fh_exists 0000000180031c94 f   libucrt:osfinfo.obj
 0001:00030d4c       __acrt_lowio_lock_fh       0000000180031d4c f   libucrt:osfinfo.obj
 0001:00030d70       __acrt_lowio_unlock_fh     0000000180031d70 f   libucrt:osfinfo.obj
 0001:00030d94       _free_osfhnd               0000000180031d94 f   libucrt:osfinfo.obj
 0001:00030e50       _get_osfhandle             0000000180031e50 f   libucrt:osfinfo.obj
 0001:00030ec8       _isleadbyte_l              0000000180031ec8 f i libucrt:_wctype.obj
 0001:00031264       __acrt_LCMapStringA        0000000180032264 f   libucrt:lcmapstringa.obj
 0001:000312fc       __acrt_fp_strflt_to_string 00000001800322fc f   libucrt:_fptostr.obj
 0001:000313c0       ?divide@__crt_strtox@@YA_KAEAUbig_integer@1@AEBU21@@Z 00000001800323c0 f i libucrt:cfout.obj
 0001:00031890       __acrt_fltout              0000000180032890 f   libucrt:cfout.obj
 0001:00032d88       __acrt_stdio_flush_and_write_narrow_nolock 0000000180033d88 f   libucrt:_flsbuf.obj
 0001:00032e70       _isatty                    0000000180033e70 f   libucrt:isatty.obj
 0001:00032ed0       __acrt_locale_free_monetary 0000000180033ed0 f   libucrt:initmon.obj
 0001:00032fdc       __acrt_locale_free_numeric 0000000180033fdc f   libucrt:initnum.obj
 0001:000330a0       __acrt_locale_free_time    00000001800340a0 f   libucrt:inittime.obj
 0001:000331a8       __acrt_GetStringTypeA      00000001800341a8 f   libucrt:getstringtypea.obj
 0001:000334e8       _lseeki64                  00000001800344e8 f   libucrt:lseek.obj
 0001:000334f0       _lseeki64_nolock           00000001800344f0 f   libucrt:lseek.obj
 0001:000334f8       _putwch_nolock             00000001800344f8 f   libucrt:putwch.obj
 0001:00033554       __ascii_strnicmp           0000000180034554 f   libucrt:strnicmp.obj
 0001:0003359c       _strnicmp                  000000018003459c f   libucrt:strnicmp.obj
 0001:000335ec       _strnicmp_l                00000001800345ec f   libucrt:strnicmp.obj
 0001:00033a5c       __acrt_CompareStringA      0000000180034a5c f   libucrt:comparestringa.obj
 0001:00033bc0       qsort                      0000000180034bc0 f   libucrt:qsort.obj
 0001:00033ef4       strpbrk                    0000000180034ef4 f   libucrt:strpbrk.obj
 0001:00033f94       _mbsdec                    0000000180034f94 f   libucrt:mbsdec.obj
 0001:00033f9c       _mbsdec_l                  0000000180034f9c f   libucrt:mbsdec.obj
 0001:0003404c       _msize                     000000018003504c f   libucrt:msize.obj
 0001:00034088       _realloc_base              0000000180035088 f   libucrt:realloc_base.obj
 0001:0003410c       ??$?RV<lambda_bfedae4ebbf01fab1bb6dcc6a9e276e0>@@AEAV<lambda_2fe9b910cf3cbf4a0ab98a02ba45b3ec>@@V<lambda_237c231691f317818eb88cc1d5d642d6>@@@?$__crt_seh_guarded_call@H@@QEAAH$$QEAV<lambda_bfedae4ebbf01fab1bb6dcc6a9e276e0>@@AEAV<lambda_2fe9b910cf3cbf4a0ab98a02ba45b3ec>@@$$QEAV<lambda_237c231691f317818eb88cc1d5d642d6>@@@Z 000000018003510c f i libucrt:close.obj
 0001:00034180       _close                     0000000180035180 f   libucrt:close.obj
 0001:00034224       _close_nolock              0000000180035224 f   libucrt:close.obj
 0001:000342e0       ?__acrt_stdio_free_stream@@YAXV__crt_stdio_stream@@@Z 00000001800352e0 f   libucrt:stream.obj
 0001:00034324       _query_app_type            0000000180035324 f   libucrt:report_runtime_error.obj
 0001:0003432c       __strncnt                  000000018003532c f   libucrt:strncnt.obj
 0001:00034344       fegetenv                   0000000180035344 f   libucrt:fegetenv.obj
 0001:00034364       fesetenv                   0000000180035364 f   libucrt:fesetenv.obj
 0001:000343b0       feholdexcept               00000001800353b0 f   libucrt:feholdexcept.obj
 0001:00034400       ceil                       0000000180035400 f   libucrt:ceil.obj
 0001:000344d0       log10                      00000001800354d0 f   libucrt:log10.obj
 0001:00034a7c       __acrt_stdio_allocate_buffer_nolock 0000000180035a7c f   libucrt:_getbuf.obj
 0001:00034ae0       __dcrt_lowio_initialize_console_output 0000000180035ae0 f   libucrt:initcon.obj
 0001:00034b1c       __dcrt_terminate_console_output 0000000180035b1c f   libucrt:initcon.obj
 0001:00034b3c       _getfpcontrolword          0000000180035b3c f   libucrt:_fenvutils.obj
 0001:00034b54       _getfpstatusword           0000000180035b54 f   libucrt:_fenvutils.obj
 0001:00034b68       _setfpcontrolword          0000000180035b68 f   libucrt:_fenvutils.obj
 0001:00034b74       _setfpstatusword           0000000180035b74 f   libucrt:_fenvutils.obj
 0001:00034bc4       _clearfp                   0000000180035bc4 f   libucrt:ieee.obj
 0001:00034c18       _controlfp                 0000000180035c18 f   libucrt:ieee.obj
 0001:00034c24       _statusfp                  0000000180035c24 f   libucrt:ieee.obj
 0001:00035028       _handle_error              0000000180036028 f   libucrt:libm_error.obj
 0001:00035150       _handle_nan                0000000180036150 f   libucrt:libm_error.obj
 0001:00035170       __acrt_initialize_fma3     0000000180036170 f   libucrt:fma3_available.obj
 0001:000351e0       _log10_special             00000001800361e0 f   libucrt:log_special.obj
 0001:000352b0       _get_fpsr                  00000001800362b0 f   libucrt:fpsr.obj
 0001:000352c0       _set_fpsr                  00000001800362c0 f   libucrt:fpsr.obj
 0001:000352ca       _fclrf                     00000001800362ca f   libucrt:fpsr.obj
 0001:000352de       _frnd                      00000001800362de f   libucrt:fpsr.obj
 0001:00035300       _raise_exc                 0000000180036300 f   libucrt:fpexcept.obj
 0001:00035328       _raise_exc_ex              0000000180036328 f   libucrt:fpexcept.obj
 0001:00035630       _set_errno_from_matherr    0000000180036630 f   libucrt:fpexcept.obj
 0001:00035660       _clrfp                     0000000180036660 f   libucrt:fpctrl.obj
 0001:00035680       _ctrlfp                    0000000180036680 f   libucrt:fpctrl.obj
 0001:000356fc       _set_statfp                00000001800366fc f   libucrt:fpctrl.obj
 0001:0003571c       _statfp                    000000018003671c f   libucrt:fpctrl.obj
 0001:0003572e       IsProcessorFeaturePresent  000000018003672e f   kernel32:KERNEL32.dll
 0001:00035734       RtlUnwindEx                0000000180036734 f   kernel32:KERNEL32.dll
 0001:00035740       _FindPESection             0000000180036740 f   LIBCMT:pesect.obj
 0001:00035790       _IsNonwritableInCurrentImage 0000000180036790 f   LIBCMT:pesect.obj
 0001:000357e0       _ValidateImageBase         00000001800367e0 f   LIBCMT:pesect.obj
 0001:00035820       memcmp                     0000000180036820 f   libvcruntime:memcmp.obj
 0001:000358e8       strchr                     00000001800368e8 f   libvcruntime:strchr.obj
 0001:00035974       __GSHandlerCheck_EH        0000000180036974 f   LIBCMT:gshandlereh.obj
 0001:00035a10       _guard_dispatch_icall_nop  0000000180036a10 f   LIBCMT:_guard_dispatch_.obj
 0002:00000000       __imp_SetEvent             0000000180038000     kernel32:KERNEL32.dll
 0002:00000008       __imp_WaitForSingleObjectEx 0000000180038008     kernel32:KERNEL32.dll
 0002:00000010       __imp_CloseHandle          0000000180038010     kernel32:KERNEL32.dll
 0002:00000018       __imp_SwitchToThread       0000000180038018     kernel32:KERNEL32.dll
 0002:00000020       __imp_GetModuleFileNameA   0000000180038020     kernel32:KERNEL32.dll
 0002:00000028       __imp_SetErrorMode         0000000180038028     kernel32:KERNEL32.dll
 0002:00000030       __imp_GetModuleHandleExA   0000000180038030     kernel32:KERNEL32.dll
 0002:00000038       __imp_GetLastError         0000000180038038     kernel32:KERNEL32.dll
 0002:00000040       __imp_LoadLibraryA         0000000180038040     kernel32:KERNEL32.dll
 0002:00000048       __imp_GetProcAddress       0000000180038048     kernel32:KERNEL32.dll
 0002:00000050       __imp_FreeLibrary          0000000180038050     kernel32:KERNEL32.dll
 0002:00000058       __imp_EnterCriticalSection 0000000180038058     kernel32:KERNEL32.dll
 0002:00000060       __imp_LeaveCriticalSection 0000000180038060     kernel32:KERNEL32.dll
 0002:00000068       __imp_InitializeCriticalSection 0000000180038068     kernel32:KERNEL32.dll
 0002:00000070       __imp_GetEnvironmentVariableA 0000000180038070     kernel32:KERNEL32.dll
 0002:00000078       __imp_GetCurrentThreadId   0000000180038078     kernel32:KERNEL32.dll
 0002:00000080       __imp_lstrcmpA             0000000180038080     kernel32:KERNEL32.dll
 0002:00000088       __imp_TlsSetValue          0000000180038088     kernel32:KERNEL32.dll
 0002:00000090       __imp_ReleaseSemaphore     0000000180038090     kernel32:KERNEL32.dll
 0002:00000098       __imp_TlsAlloc             0000000180038098     kernel32:KERNEL32.dll
 0002:000000a0       __imp_CreateSemaphoreW     00000001800380a0     kernel32:KERNEL32.dll
 0002:000000a8       __imp_TlsGetValue          00000001800380a8     kernel32:KERNEL32.dll
 0002:000000b0       __imp_TlsFree              00000001800380b0     kernel32:KERNEL32.dll
 0002:000000b8       __imp_TryEnterCriticalSection 00000001800380b8     kernel32:KERNEL32.dll
 0002:000000c0       __imp_InitializeCriticalSectionAndSpinCount 00000001800380c0     kernel32:KERNEL32.dll
 0002:000000c8       __imp_DeleteCriticalSection 00000001800380c8     kernel32:KERNEL32.dll
 0002:000000d0       __imp_SetLastError         00000001800380d0     kernel32:KERNEL32.dll
 0002:000000d8       __imp_QueryPerformanceFrequency 00000001800380d8     kernel32:KERNEL32.dll
 0002:000000e0       __imp_ResetEvent           00000001800380e0     kernel32:KERNEL32.dll
 0002:000000e8       __imp_CreateEventA         00000001800380e8     kernel32:KERNEL32.dll
 0002:000000f0       __imp_Sleep                00000001800380f0     kernel32:KERNEL32.dll
 0002:000000f8       __imp_QueryPerformanceCounter 00000001800380f8     kernel32:KERNEL32.dll
 0002:00000100       __imp_ResumeThread         0000000180038100     kernel32:KERNEL32.dll
 0002:00000108       __imp_FormatMessageA       0000000180038108     kernel32:KERNEL32.dll
 0002:00000110       __imp_GetCurrentProcess    0000000180038110     kernel32:KERNEL32.dll
 0002:00000118       __imp_GetProcessAffinityMask 0000000180038118     kernel32:KERNEL32.dll
 0002:00000120       __imp_GetCurrentThread     0000000180038120     kernel32:KERNEL32.dll
 0002:00000128       __imp_GetNativeSystemInfo  0000000180038128     kernel32:KERNEL32.dll
 0002:00000130       __imp_RtlPcToFileHeader    0000000180038130     kernel32:KERNEL32.dll
 0002:00000138       __imp_EncodePointer        0000000180038138     kernel32:KERNEL32.dll
 0002:00000140       __imp_DecodePointer        0000000180038140     kernel32:KERNEL32.dll
 0002:00000148       __imp_RaiseException       0000000180038148     kernel32:KERNEL32.dll
 0002:00000150       __imp_RtlCaptureContext    0000000180038150     kernel32:KERNEL32.dll
 0002:00000158       __imp_RtlLookupFunctionEntry 0000000180038158     kernel32:KERNEL32.dll
 0002:00000160       __imp_RtlVirtualUnwind     0000000180038160     kernel32:KERNEL32.dll
 0002:00000168       __imp_UnhandledExceptionFilter 0000000180038168     kernel32:KERNEL32.dll
 0002:00000170       __imp_SetUnhandledExceptionFilter 0000000180038170     kernel32:KERNEL32.dll
 0002:00000178       __imp_TerminateProcess     0000000180038178     kernel32:KERNEL32.dll
 0002:00000180       __imp_IsProcessorFeaturePresent 0000000180038180     kernel32:KERNEL32.dll
 0002:00000188       __imp_InitializeSListHead  0000000180038188     kernel32:KERNEL32.dll
 0002:00000190       __imp_IsDebuggerPresent    0000000180038190     kernel32:KERNEL32.dll
 0002:00000198       __imp_GetStartupInfoW      0000000180038198     kernel32:KERNEL32.dll
 0002:000001a0       __imp_GetModuleHandleW     00000001800381a0     kernel32:KERNEL32.dll
 0002:000001a8       __imp_GetCurrentProcessId  00000001800381a8     kernel32:KERNEL32.dll
 0002:000001b0       __imp_GetSystemTimeAsFileTime 00000001800381b0     kernel32:KERNEL32.dll
 0002:000001b8       __imp_InterlockedPushEntrySList 00000001800381b8     kernel32:KERNEL32.dll
 0002:000001c0       __imp_InterlockedFlushSList 00000001800381c0     kernel32:KERNEL32.dll
 0002:000001c8       __imp_RtlUnwindEx          00000001800381c8     kernel32:KERNEL32.dll
 0002:000001d0       __imp_LoadLibraryExW       00000001800381d0     kernel32:KERNEL32.dll
 0002:000001d8       __imp_CreateThread         00000001800381d8     kernel32:KERNEL32.dll
 0002:000001e0       __imp_ExitThread           00000001800381e0     kernel32:KERNEL32.dll
 0002:000001e8       __imp_FreeLibraryAndExitThread 00000001800381e8     kernel32:KERNEL32.dll
 0002:000001f0       __imp_GetModuleHandleExW   00000001800381f0     kernel32:KERNEL32.dll
 0002:000001f8       __imp_ExitProcess          00000001800381f8     kernel32:KERNEL32.dll
 0002:00000200       __imp_MultiByteToWideChar  0000000180038200     kernel32:KERNEL32.dll
 0002:00000208       __imp_WideCharToMultiByte  0000000180038208     kernel32:KERNEL32.dll
 0002:00000210       __imp_HeapFree             0000000180038210     kernel32:KERNEL32.dll
 0002:00000218       __imp_HeapAlloc            0000000180038218     kernel32:KERNEL32.dll
 0002:00000220       __imp_CompareStringW       0000000180038220     kernel32:KERNEL32.dll
 0002:00000228       __imp_LCMapStringW         0000000180038228     kernel32:KERNEL32.dll
 0002:00000230       __imp_GetStdHandle         0000000180038230     kernel32:KERNEL32.dll
 0002:00000238       __imp_GetFileType          0000000180038238     kernel32:KERNEL32.dll
 0002:00000240       __imp_GetACP               0000000180038240     kernel32:KERNEL32.dll
 0002:00000248       __imp_FlushFileBuffers     0000000180038248     kernel32:KERNEL32.dll
 0002:00000250       __imp_WriteFile            0000000180038250     kernel32:KERNEL32.dll
 0002:00000258       __imp_GetConsoleCP         0000000180038258     kernel32:KERNEL32.dll
 0002:00000260       __imp_GetConsoleMode       0000000180038260     kernel32:KERNEL32.dll
 0002:00000268       __imp_FindClose            0000000180038268     kernel32:KERNEL32.dll
 0002:00000270       __imp_FindFirstFileExA     0000000180038270     kernel32:KERNEL32.dll
 0002:00000278       __imp_FindNextFileA        0000000180038278     kernel32:KERNEL32.dll
 0002:00000280       __imp_IsValidCodePage      0000000180038280     kernel32:KERNEL32.dll
 0002:00000288       __imp_GetOEMCP             0000000180038288     kernel32:KERNEL32.dll
 0002:00000290       __imp_GetCPInfo            0000000180038290     kernel32:KERNEL32.dll
 0002:00000298       __imp_GetCommandLineA      0000000180038298     kernel32:KERNEL32.dll
 0002:000002a0       __imp_GetCommandLineW      00000001800382a0     kernel32:KERNEL32.dll
 0002:000002a8       __imp_GetEnvironmentStringsW 00000001800382a8     kernel32:KERNEL32.dll
 0002:000002b0       __imp_FreeEnvironmentStringsW 00000001800382b0     kernel32:KERNEL32.dll
 0002:000002b8       __imp_SetEnvironmentVariableA 00000001800382b8     kernel32:KERNEL32.dll
 0002:000002c0       __imp_GetProcessHeap       00000001800382c0     kernel32:KERNEL32.dll
 0002:000002c8       __imp_GetStringTypeW       00000001800382c8     kernel32:KERNEL32.dll
 0002:000002d0       __imp_SetStdHandle         00000001800382d0     kernel32:KERNEL32.dll
 0002:000002d8       __imp_SetFilePointerEx     00000001800382d8     kernel32:KERNEL32.dll
 0002:000002e0       __imp_WriteConsoleW        00000001800382e0     kernel32:KERNEL32.dll
 0002:000002e8       __imp_HeapSize             00000001800382e8     kernel32:KERNEL32.dll
 0002:000002f0       __imp_HeapReAlloc          00000001800382f0     kernel32:KERNEL32.dll
 0002:000002f8       __imp_CreateFileW          00000001800382f8     kernel32:KERNEL32.dll
 0002:00000300       \177KERNEL32_NULL_THUNK_DATA 0000000180038300     kernel32:KERNEL32.dll
 0002:00000308       __guard_check_icall_fptr   0000000180038308     LIBCMT:guard_support.obj
 0002:00000310       __guard_dispatch_icall_fptr 0000000180038310     LIBCMT:guard_support.obj
 0002:00000318       __xc_a                     0000000180038318     LIBCMT:initializers.obj
 0002:00000338       __xc_z                     0000000180038338     LIBCMT:initializers.obj
 0002:00000340       __xi_a                     0000000180038340     LIBCMT:initializers.obj
 0002:00000348       __acrt_stdio_initializer   0000000180038348     libucrt:stdio_initializer.obj
 0002:00000350       __acrt_multibyte_initializer 0000000180038350     libucrt:multibyte_initializer.obj
 0002:00000358       __acrt_tran_fma3_initializer 0000000180038358     libucrt:fma3_initializer.obj
 0002:00000360       __xi_z                     0000000180038360     LIBCMT:initializers.obj
 0002:00000368       __xp_a                     0000000180038368     LIBCMT:initializers.obj
 0002:00000370       __acrt_locale_terminator   0000000180038370     libucrt:locale_initializer.obj
 0002:00000378       __dcrt_console_output_terminator 0000000180038378     libucrt:console_output_initializer.obj
 0002:00000380       __acrt_stdio_terminator    0000000180038380     libucrt:stdio_initializer.obj
 0002:00000388       __xp_z                     0000000180038388     LIBCMT:initializers.obj
 0002:00000390       __xt_a                     0000000180038390     LIBCMT:initializers.obj
 0002:00000398       __xt_z                     0000000180038398     LIBCMT:initializers.obj
 0002:000004e8       ??_7exception@std@@6B@     00000001800384e8     libcpmt:excptptr.obj
 0002:00000500       ??_7bad_exception@std@@6B@ 0000000180038500     libcpmt:excptptr.obj
 0002:00000510       ??_C@_0O@DPKOEFFH@bad?5exception?$AA@ 0000000180038510     libcpmt:excptptr.obj
 0002:00000528       ??_7bad_alloc@std@@6B@     0000000180038528     libcpmt:excptptr.obj
 0002:00000540       ??_7_Ref_count_base@std@@6B@ 0000000180038540     libcpmt:excptptr.obj
 0002:00000568       ??_7?$_Ref_count_obj_alloc@V__ExceptionPtr@@U?$_StaticAllocator@H@@@std@@6B@ 0000000180038568     libcpmt:excptptr.obj
 0002:00000590       ??_7?$_Ref_count_obj@V__ExceptionPtr@@@std@@6B@ 0000000180038590     libcpmt:excptptr.obj
 0002:000005b8       ??_7logic_error@std@@6B@   00000001800385b8     libcpmt:xthrow.obj
 0002:000005d0       ??_7invalid_argument@std@@6B@ 00000001800385d0     libcpmt:xthrow.obj
 0002:000005e8       ??_7length_error@std@@6B@  00000001800385e8     libcpmt:xthrow.obj
 0002:00000600       ??_7out_of_range@std@@6B@  0000000180038600     libcpmt:xthrow.obj
 0002:00000618       ??_7runtime_error@std@@6B@ 0000000180038618     libcpmt:xthrow.obj
 0002:00000630       ??_7type_info@@6B@         0000000180038630     LIBCMT:std_type_info_static.obj
 0002:00000648       _pRawDllMain               0000000180038648     LIBCMT:dll_dllmain.obj
 0002:00000648       _pDefaultRawDllMain        0000000180038648     LIBCMT:dll_dllmain.obj
 0002:00000658       ??_7bad_array_new_length@std@@6B@ 0000000180038658     LIBCMT:throw_bad_alloc.obj
 0002:00000668       ??_C@_0BF@KINCDENJ@bad?5array?5new?5length?$AA@ 0000000180038668     LIBCMT:throw_bad_alloc.obj
 0002:00000680       _pDestructExceptionObject  0000000180038680     libvcruntime:frame.obj
 0002:00000690       ??_7bad_typeid@std@@6B@    0000000180038690     libvcruntime:rtti.obj
 0002:000006a8       ??_7__non_rtti_object@std@@6B@ 00000001800386a8     libvcruntime:rtti.obj
 0002:000006b8       ??_C@_0CB@CGKGGDFI@Access?5violation?5?9?5no?5RTTI?5data?$CB@ 00000001800386b8     libvcruntime:rtti.obj
 0002:000006e0       ??_C@_0CH@OLLMPELC@Attempted?5a?5typeid?5of?5nullptr?5po@ 00000001800386e0     libvcruntime:rtti.obj
 0002:00000708       ??_C@_0CB@EEENAAHH@Bad?5read?5pointer?5?9?5no?5RTTI?5data?$CB@ 0000000180038708     libvcruntime:rtti.obj
 0002:00000b30       ??_C@_08EHJDFFNH@__based?$CI?$AA@ 0000000180038b30     libvcruntime:undname.obj
 0002:00000b40       ??_C@_07KOLFKCDI@__cdecl?$AA@ 0000000180038b40     libvcruntime:undname.obj
 0002:00000b48       ??_C@_08GHMPAG@__pascal?$AA@ 0000000180038b48     libvcruntime:undname.obj
 0002:00000b58       ??_C@_09IFJBGAPI@__stdcall?$AA@ 0000000180038b58     libvcruntime:undname.obj
 0002:00000b68       ??_C@_0L@NPHFGOKO@__thiscall?$AA@ 0000000180038b68     libvcruntime:undname.obj
 0002:00000b78       ??_C@_0L@JMKHOMEK@__fastcall?$AA@ 0000000180038b78     libvcruntime:undname.obj
 0002:00000b88       ??_C@_0N@BCKKPABJ@__vectorcall?$AA@ 0000000180038b88     libvcruntime:undname.obj
 0002:00000b98       ??_C@_09HIJEGCPM@__clrcall?$AA@ 0000000180038b98     libvcruntime:undname.obj
 0002:00000ba4       ??_C@_06GHPCKEAG@__eabi?$AA@ 0000000180038ba4     libvcruntime:undname.obj
 0002:00000bb0       ??_C@_07JOMMBBKO@__ptr64?$AA@ 0000000180038bb0     libvcruntime:undname.obj
 0002:00000bb8       ??_C@_0L@PILCLIHE@__restrict?$AA@ 0000000180038bb8     libvcruntime:undname.obj
 0002:00000bc8       ??_C@_0M@GFIIJFMG@__unaligned?$AA@ 0000000180038bc8     libvcruntime:undname.obj
 0002:00000bd8       ??_C@_09DHDLOLLB@restrict?$CI?$AA@ 0000000180038bd8     libvcruntime:undname.obj
 0002:00000be4       ??_C@_04NIHEBCM@?5new?$AA@ 0000000180038be4     libvcruntime:undname.obj
 0002:00000bf0       ??_C@_07FPCDHGMM@?5delete?$AA@ 0000000180038bf0     libvcruntime:undname.obj
 0002:00000bf8       ??_C@_01NEMOKFLO@?$DN?$AA@ 0000000180038bf8     libvcruntime:undname.obj
 0002:00000bfc       ??_C@_02GPIOPFAK@?$DO?$DO?$AA@ 0000000180038bfc     libvcruntime:undname.obj
 0002:00000c00       ??_C@_02FODMEDOG@?$DM?$DM?$AA@ 0000000180038c00     libvcruntime:undname.obj
 0002:00000c04       ??_C@_01DCLJPIOD@?$CB?$AA@ 0000000180038c04     libvcruntime:undname.obj
 0002:00000c08       ??_C@_02EGOFBIJA@?$DN?$DN?$AA@ 0000000180038c08     libvcruntime:undname.obj
 0002:00000c0c       ??_C@_02FDNJECIE@?$CB?$DN?$AA@ 0000000180038c0c     libvcruntime:undname.obj
 0002:00000c10       ??_C@_02GPECMEKF@?$FL?$FN?$AA@ 0000000180038c10     libvcruntime:undname.obj
 0002:00000c18       ??_C@_08LHJFAFGD@operator?$AA@ 0000000180038c18     libvcruntime:undname.obj
 0002:00000c24       ??_C@_02HBOOOICD@?9?$DO?$AA@ 0000000180038c24     libvcruntime:undname.obj
 0002:00000c28       ??_C@_01NBENCBCI@?$CK?$AA@ 0000000180038c28     libvcruntime:undname.obj
 0002:00000c2c       ??_C@_02ECNGHCIF@?$CL?$CL?$AA@ 0000000180038c2c     libvcruntime:undname.obj
 0002:00000c30       ??_C@_02BAABKJLB@?9?9?$AA@ 0000000180038c30     libvcruntime:undname.obj
 0002:00000c34       ??_C@_01JOAMLHOP@?9?$AA@   0000000180038c34     libvcruntime:undname.obj
 0002:00000c38       ??_C@_01MIFGBAGJ@?$CL?$AA@ 0000000180038c38     libvcruntime:undname.obj
 0002:00000c3c       ??_C@_01HNPIGOCE@?$CG?$AA@ 0000000180038c3c     libvcruntime:undname.obj
 0002:00000c40       ??_C@_03MNHNFDLC@?9?$DO?$CK?$AA@ 0000000180038c40     libvcruntime:undname.obj
 0002:00000c44       ??_C@_01KMDKNFGN@?1?$AA@   0000000180038c44     libvcruntime:undname.obj
 0002:00000c48       ??_C@_01FGNFDNOH@?$CF?$AA@ 0000000180038c48     libvcruntime:undname.obj
 0002:00000c4c       ??_C@_01MNNFJEPP@?$DM?$AA@ 0000000180038c4c     libvcruntime:undname.obj
 0002:00000c50       ??_C@_02EHCHHCKH@?$DM?$DN?$AA@ 0000000180038c50     libvcruntime:undname.obj
 0002:00000c54       ??_C@_01PPODPGHN@?$DO?$AA@ 0000000180038c54     libvcruntime:undname.obj
 0002:00000c58       ??_C@_02EEKDKGMJ@?$DO?$DN?$AA@ 0000000180038c58     libvcruntime:undname.obj
 0002:00000c5c       ??_C@_01IHBHIGKO@?0?$AA@   0000000180038c5c     libvcruntime:undname.obj
 0002:00000c60       ??_C@_02HCKGKOFO@?$CI?$CJ?$AA@ 0000000180038c60     libvcruntime:undname.obj
 0002:00000c64       ??_C@_01PJKLJHI@?$HO?$AA@  0000000180038c64     libvcruntime:undname.obj
 0002:00000c68       ??_C@_01JKBOJNNK@?$FO?$AA@ 0000000180038c68     libvcruntime:undname.obj
 0002:00000c6c       ??_C@_01DNKMNLPK@?$HM?$AA@ 0000000180038c6c     libvcruntime:undname.obj
 0002:00000c70       ??_C@_02PPKAJPJL@?$CG?$CG?$AA@ 0000000180038c70     libvcruntime:undname.obj
 0002:00000c74       ??_C@_02NONPIBCD@?$HM?$HM?$AA@ 0000000180038c74     libvcruntime:undname.obj
 0002:00000c78       ??_C@_02FPIMKNGF@?$CK?$DN?$AA@ 0000000180038c78     libvcruntime:undname.obj
 0002:00000c7c       ??_C@_02FOEOMHFC@?$CL?$DN?$AA@ 0000000180038c7c     libvcruntime:undname.obj
 0002:00000c80       ??_C@_02FKMDLLOA@?9?$DN?$AA@ 0000000180038c80     libvcruntime:undname.obj
 0002:00000c84       ??_C@_02FJEHGPIO@?1?$DN?$AA@ 0000000180038c84     libvcruntime:undname.obj
 0002:00000c88       ??_C@_02FENAOKFI@?$CF?$DN?$AA@ 0000000180038c88     libvcruntime:undname.obj
 0002:00000c8c       ??_C@_03IKFCCPFF@?$DO?$DO?$DN?$AA@ 0000000180038c8c     libvcruntime:undname.obj
 0002:00000c90       ??_C@_03CDNPDDLA@?$DM?$DM?$DN?$AA@ 0000000180038c90     libvcruntime:undname.obj
 0002:00000c94       ??_C@_02FGJGFEAB@?$CG?$DN?$AA@ 0000000180038c94     libvcruntime:undname.obj
 0002:00000c98       ??_C@_02DHLNPPGH@?$HM?$DN?$AA@ 0000000180038c98     libvcruntime:undname.obj
 0002:00000c9c       ??_C@_02MHEGNOJ@?$FO?$DN?$AA@ 0000000180038c9c     libvcruntime:undname.obj
 0002:00000ca0       ??_C@_09IFPLHPGF@?$GAvftable?8?$AA@ 0000000180038ca0     libvcruntime:undname.obj
 0002:00000cb0       ??_C@_09BLBHBJP@?$GAvbtable?8?$AA@ 0000000180038cb0     libvcruntime:undname.obj
 0002:00000cc0       ??_C@_07FEEIOKP@?$GAvcall?8?$AA@ 0000000180038cc0     libvcruntime:undname.obj
 0002:00000cc8       ??_C@_08LLFFHHDJ@?$GAtypeof?8?$AA@ 0000000180038cc8     libvcruntime:undname.obj
 0002:00000cd8       ??_C@_0BF@KDPPACIK@?$GAlocal?5static?5guard?8?$AA@ 0000000180038cd8     libvcruntime:undname.obj
 0002:00000cf0       ??_C@_08OBABFOLI@?$GAstring?8?$AA@ 0000000180038cf0     libvcruntime:undname.obj
 0002:00000d00       ??_C@_0BD@JDLKDPAB@?$GAvbase?5destructor?8?$AA@ 0000000180038d00     libvcruntime:undname.obj
 0002:00000d18       ??_C@_0BN@DEGPLNFK@?$GAvector?5deleting?5destructor?8?$AA@ 0000000180038d18     libvcruntime:undname.obj
 0002:00000d38       ??_C@_0BO@OBMKPJIG@?$GAdefault?5constructor?5closure?8?$AA@ 0000000180038d38     libvcruntime:undname.obj
 0002:00000d58       ??_C@_0BN@IMDCHIKM@?$GAscalar?5deleting?5destructor?8?$AA@ 0000000180038d58     libvcruntime:undname.obj
 0002:00000d78       ??_C@_0BO@PFGOCPJJ@?$GAvector?5constructor?5iterator?8?$AA@ 0000000180038d78     libvcruntime:undname.obj
 0002:00000d98       ??_C@_0BN@LFPFMEDL@?$GAvector?5destructor?5iterator?8?$AA@ 0000000180038d98     libvcruntime:undname.obj
 0002:00000db8       ??_C@_0CE@IKBNEHA@?$GAvector?5vbase?5constructor?5iterat@ 0000000180038db8     libvcruntime:undname.obj
 0002:00000de0       ??_C@_0BL@NILFHHPC@?$GAvirtual?5displacement?5map?8?$AA@ 0000000180038de0     libvcruntime:undname.obj
 0002:00000e00       ??_C@_0CB@JONCMFFK@?$GAeh?5vector?5constructor?5iterator?8@ 0000000180038e00     libvcruntime:undname.obj
 0002:00000e28       ??_C@_0CA@GCEOPDGL@?$GAeh?5vector?5destructor?5iterator?8?$AA@ 0000000180038e28     libvcruntime:undname.obj
 0002:00000e48       ??_C@_0CH@OOJPLCPH@?$GAeh?5vector?5vbase?5constructor?5ite@ 0000000180038e48     libvcruntime:undname.obj
 0002:00000e70       ??_C@_0BL@LLKPOHJI@?$GAcopy?5constructor?5closure?8?$AA@ 0000000180038e70     libvcruntime:undname.obj
 0002:00000e90       ??_C@_0BA@KBCDOMBN@?$GAudt?5returning?8?$AA@ 0000000180038e90     libvcruntime:undname.obj
 0002:00000ea0       ??_C@_03KLGMFNMG@?$GAEH?$AA@ 0000000180038ea0     libvcruntime:undname.obj
 0002:00000ea4       ??_C@_05KHLCHHI@?$GARTTI?$AA@ 0000000180038ea4     libvcruntime:undname.obj
 0002:00000eb0       ??_C@_0BA@KKLDJDLB@?$GAlocal?5vftable?8?$AA@ 0000000180038eb0     libvcruntime:undname.obj
 0002:00000ec0       ??_C@_0CE@IIHCMGGL@?$GAlocal?5vftable?5constructor?5closu@ 0000000180038ec0     libvcruntime:undname.obj
 0002:00000ee4       ??_C@_06FHBGPFGH@?5new?$FL?$FN?$AA@ 0000000180038ee4     libvcruntime:undname.obj
 0002:00000ef0       ??_C@_09LBNFPBCA@?5delete?$FL?$FN?$AA@ 0000000180038ef0     libvcruntime:undname.obj
 0002:00000f00       ??_C@_0P@HJKNJFNN@?$GAomni?5callsig?8?$AA@ 0000000180038f00     libvcruntime:undname.obj
 0002:00000f10       ??_C@_0BL@CNOONJFP@?$GAplacement?5delete?5closure?8?$AA@ 0000000180038f10     libvcruntime:undname.obj
 0002:00000f30       ??_C@_0BN@CKNJLHMB@?$GAplacement?5delete?$FL?$FN?5closure?8?$AA@ 0000000180038f30     libvcruntime:undname.obj
 0002:00000f50       ??_C@_0CG@CFDHKGGD@?$GAmanaged?5vector?5constructor?5iter@ 0000000180038f50     libvcruntime:undname.obj
 0002:00000f78       ??_C@_0CF@IMGKMJNO@?$GAmanaged?5vector?5destructor?5itera@ 0000000180038f78     libvcruntime:undname.obj
 0002:00000fa0       ??_C@_0CG@HLDDJMAG@?$GAeh?5vector?5copy?5constructor?5iter@ 0000000180038fa0     libvcruntime:undname.obj
 0002:00000fc8       ??_C@_0CM@FCBBDIGB@?$GAeh?5vector?5vbase?5copy?5constructo@ 0000000180038fc8     libvcruntime:undname.obj
 0002:00000ff8       ??_C@_0BL@CLIPGLGB@?$GAdynamic?5initializer?5for?5?8?$AA@ 0000000180038ff8     libvcruntime:undname.obj
 0002:00001018       ??_C@_0CB@PDBIFEP@?$GAdynamic?5atexit?5destructor?5for?5?8@ 0000000180039018     libvcruntime:undname.obj
 0002:00001040       ??_C@_0CD@CGAJBKEJ@?$GAvector?5copy?5constructor?5iterato@ 0000000180039040     libvcruntime:undname.obj
 0002:00001068       ??_C@_0CJ@GJELGAMM@?$GAvector?5vbase?5copy?5constructor?5i@ 0000000180039068     libvcruntime:undname.obj
 0002:00001098       ??_C@_0CL@FGIJHLCE@?$GAmanaged?5vector?5copy?5constructor@ 0000000180039098     libvcruntime:undname.obj
 0002:000010c8       ??_C@_0BM@PMGGMLDN@?$GAlocal?5static?5thread?5guard?8?$AA@ 00000001800390c8     libvcruntime:undname.obj
 0002:000010e8       ??_C@_0N@BDNMDMOL@operator?5?$CC?$CC?5?$AA@ 00000001800390e8     libvcruntime:undname.obj
 0002:000010f8       ??_C@_0BC@DAFEJGAK@?5Type?5Descriptor?8?$AA@ 00000001800390f8     libvcruntime:undname.obj
 0002:00001110       ??_C@_0BM@LDKODKLH@?5Base?5Class?5Descriptor?5at?5?$CI?$AA@ 0000000180039110     libvcruntime:undname.obj
 0002:00001130       ??_C@_0BD@LGICGFMM@?5Base?5Class?5Array?8?$AA@ 0000000180039130     libvcruntime:undname.obj
 0002:00001148       ??_C@_0BN@MECKDCOJ@?5Class?5Hierarchy?5Descriptor?8?$AA@ 0000000180039148     libvcruntime:undname.obj
 0002:00001168       ??_C@_0BK@CFCOFLF@?5Complete?5Object?5Locator?8?$AA@ 0000000180039168     libvcruntime:undname.obj
 0002:00001184       ??_C@_04HEJADOOB@CV?3?5?$AA@ 0000000180039184     libvcruntime:undname.obj
 0002:0000118c       ??_C@_02MOLJINC@?3?3?$AA@  000000018003918c     libvcruntime:undname.obj
 0002:00001190       ??_C@_0BE@JAEOCHPE@template?9parameter?9?$AA@ 0000000180039190     libvcruntime:undname.obj
 0002:000011a8       ??_C@_0O@KHGCOMHP@generic?9type?9?$AA@ 00000001800391a8     libvcruntime:undname.obj
 0002:000011b8       ??_C@_01NLNLIGKH@?$GA?$AA@ 00000001800391b8     libvcruntime:undname.obj
 0002:000011bc       ??_C@_01GEODFPGF@?8?$AA@   00000001800391bc     libvcruntime:undname.obj
 0002:000011c0       ??_C@_0BG@JNJLAMPM@?$GAanonymous?5namespace?8?$AA@ 00000001800391c0     libvcruntime:undname.obj
 0002:000011d8       ??_C@_02OHHJMEON@?8?8?$AA@ 00000001800391d8     libvcruntime:undname.obj
 0002:000011e0       ??_C@_0BN@IBLMMFAP@?$GAnon?9type?9template?9parameter?$AA@ 00000001800391e0     libvcruntime:undname.obj
 0002:00001200       ??_C@_04GKJNKENE@void?$AA@ 0000000180039200     libvcruntime:undname.obj
 0002:00001208       ??_C@_0BE@EODMJLIF@?$GAtemplate?9parameter?$AA@ 0000000180039208     libvcruntime:undname.obj
 0002:0000121c       ??_C@_04HIBGFPH@NULL?$AA@  000000018003921c     libvcruntime:undname.obj
 0002:00001228       ??_C@_0BK@IHCCFNEL@?$GAtemplate?9type?9parameter?9?$AA@ 0000000180039228     libvcruntime:undname.obj
 0002:00001248       ??_C@_0BK@OFCNNNKO@?$GAgeneric?9class?9parameter?9?$AA@ 0000000180039248     libvcruntime:undname.obj
 0002:00001268       ??_C@_0BL@NGJBLFIL@?$GAgeneric?9method?9parameter?9?$AA@ 0000000180039268     libvcruntime:undname.obj
 0002:00001284       ??_C@_03OPGICMGF@?$HN?8?5?$AA@ 0000000180039284     libvcruntime:undname.obj
 0002:00001288       ??_C@_02IGFCGPIL@?$HN?8?$AA@ 0000000180039288     libvcruntime:undname.obj
 0002:0000128c       ??_C@_01CLKCMJKC@?5?$AA@   000000018003928c     libvcruntime:undname.obj
 0002:00001290       ??_C@_0N@CBHHHENL@?$GAvtordispex?$HL?$AA@ 0000000180039290     libvcruntime:undname.obj
 0002:000012a0       ??_C@_0L@GHPFDFH@?$GAvtordisp?$HL?$AA@ 00000001800392a0     libvcruntime:undname.obj
 0002:000012b0       ??_C@_0L@HNGCOGAE@?$GAadjustor?$HL?$AA@ 00000001800392b0     libvcruntime:undname.obj
 0002:000012c0       ??_C@_0CB@KJDOOODE@?$GAlocal?5static?5destructor?5helper?8@ 00000001800392c0     libvcruntime:undname.obj
 0002:000012e8       ??_C@_0DB@ILEFOCIJ@?$GAtemplate?5static?5data?5member?5con@ 00000001800392e8     libvcruntime:undname.obj
 0002:00001320       ??_C@_0DA@HGFJFBBE@?$GAtemplate?5static?5data?5member?5des@ 0000000180039320     libvcruntime:undname.obj
 0002:00001350       ??_C@_07PGOEDBHP@static?5?$AA@ 0000000180039350     libvcruntime:undname.obj
 0002:00001358       ??_C@_08NIEOINHE@virtual?5?$AA@ 0000000180039358     libvcruntime:undname.obj
 0002:00001368       ??_C@_09LAPHOOG@private?3?5?$AA@ 0000000180039368     libvcruntime:undname.obj
 0002:00001378       ??_C@_0M@GAIFPFIP@protected?3?5?$AA@ 0000000180039378     libvcruntime:undname.obj
 0002:00001388       ??_C@_08GPDDCMKI@public?3?5?$AA@ 0000000180039388     libvcruntime:undname.obj
 0002:00001398       ??_C@_08KJLFOPNE@?$FLthunk?$FN?3?$AA@ 0000000180039398     libvcruntime:undname.obj
 0002:000013a8       ??_C@_0M@DHNBOJMP@extern?5?$CCC?$CC?5?$AA@ 00000001800393a8     libvcruntime:undname.obj
 0002:000013b4       ??_C@_02KCKGHPCA@?$CJ?5?$AA@ 00000001800393b4     libvcruntime:undname.obj
 0002:000013b8       ??_C@_05CIHEBHNO@char?5?$AA@ 00000001800393b8     libvcruntime:undname.obj
 0002:000013c0       ??_C@_06EHJMALKF@short?5?$AA@ 00000001800393c0     libvcruntime:undname.obj
 0002:000013c8       ??_C@_04LAHKHJMA@int?5?$AA@ 00000001800393c8     libvcruntime:undname.obj
 0002:000013d0       ??_C@_05CJIMAING@long?5?$AA@ 00000001800393d0     libvcruntime:undname.obj
 0002:000013d8       ??_C@_09EBBEKKIH@unsigned?5?$AA@ 00000001800393d8     libvcruntime:undname.obj
 0002:000013e4       ??_C@_05BEFAKPML@void?5?$AA@ 00000001800393e4     libvcruntime:undname.obj
 0002:000013f0       ??_C@_08PABEKFH@volatile?$AA@ 00000001800393f0     libvcruntime:undname.obj
 0002:00001400       ??_C@_0BA@LKIJLKPP@std?3?3nullptr_t?5?$AA@ 0000000180039400     libvcruntime:undname.obj
 0002:00001410       ??_C@_0P@GCOCNKDM@std?3?3nullptr_t?$AA@ 0000000180039410     libvcruntime:undname.obj
 0002:00001420       ??_C@_0L@EGPHHEKN@?$DMellipsis?$DO?$AA@ 0000000180039420     libvcruntime:undname.obj
 0002:0000142c       ??_C@_04EENFHACM@?0?4?4?4?$AA@ 000000018003942c     libvcruntime:undname.obj
 0002:00001438       ??_C@_0M@ELJOJFFH@?0?$DMellipsis?$DO?$AA@ 0000000180039438     libvcruntime:undname.obj
 0002:00001448       ??_C@_07HDJPLPEK@?5throw?$CI?$AA@ 0000000180039448     libvcruntime:undname.obj
 0002:00001450       ??_C@_03PBJBJNON@cpu?$AA@  0000000180039450     libvcruntime:undname.obj
 0002:00001454       ??_C@_03DCBBJBAA@amp?$AA@  0000000180039454     libvcruntime:undname.obj
 0002:00001458       ??_C@_02KEGNLNML@?0?5?$AA@ 0000000180039458     libvcruntime:undname.obj
 0002:0000145c       ??_C@_04ENMBGAPA@char?$AA@ 000000018003945c     libvcruntime:undname.obj
 0002:00001464       ??_C@_05BFKKPKCG@short?$AA@ 0000000180039464     libvcruntime:undname.obj
 0002:0000146c       ??_C@_03JBIPMCLC@int?$AA@  000000018003946c     libvcruntime:undname.obj
 0002:00001470       ??_C@_04GOKPGOLB@long?$AA@ 0000000180039470     libvcruntime:undname.obj
 0002:00001478       ??_C@_05KNFBNCOH@float?$AA@ 0000000180039478     libvcruntime:undname.obj
 0002:00001480       ??_C@_06BNJCAIGJ@double?$AA@ 0000000180039480     libvcruntime:undname.obj
 0002:00001488       ??_C@_04DDKJGDCM@bool?$AA@ 0000000180039488     libvcruntime:undname.obj
 0002:00001490       ??_C@_06EBGKOKIG@__int8?$AA@ 0000000180039490     libvcruntime:undname.obj
 0002:00001498       ??_C@_07ICFHOGAF@__int16?$AA@ 0000000180039498     libvcruntime:undname.obj
 0002:000014a0       ??_C@_07OFLPPHGP@__int32?$AA@ 00000001800394a0     libvcruntime:undname.obj
 0002:000014a8       ??_C@_07LFCOJCAC@__int64?$AA@ 00000001800394a8     libvcruntime:undname.obj
 0002:000014b0       ??_C@_08GAHOLHEO@__int128?$AA@ 00000001800394b0     libvcruntime:undname.obj
 0002:000014c0       ??_C@_09EEKGDCPH@?$DMunknown?$DO?$AA@ 00000001800394c0     libvcruntime:undname.obj
 0002:000014d0       ??_C@_08HBIPOFJB@char16_t?$AA@ 00000001800394d0     libvcruntime:undname.obj
 0002:000014e0       ??_C@_08IECNCBKG@char32_t?$AA@ 00000001800394e0     libvcruntime:undname.obj
 0002:000014f0       ??_C@_07CLGGIAMF@wchar_t?$AA@ 00000001800394f0     libvcruntime:undname.obj
 0002:000014f8       ??_C@_06GCICPBLB@__w64?5?$AA@ 00000001800394f8     libvcruntime:undname.obj
 0002:00001500       ??_C@_07NFANNNEC@UNKNOWN?$AA@ 0000000180039500     libvcruntime:undname.obj
 0002:00001508       ??_C@_07EDHNAJHC@signed?5?$AA@ 0000000180039508     libvcruntime:undname.obj
 0002:00001510       ??_C@_05BNCCCJPP@const?$AA@ 0000000180039510     libvcruntime:undname.obj
 0002:00001518       ??_C@_09EFNPDFFP@?5volatile?$AA@ 0000000180039518     libvcruntime:undname.obj
 0002:00001528       ??_C@_0P@GCIFDJCJ@?$GAunknown?5ecsu?8?$AA@ 0000000180039528     libvcruntime:undname.obj
 0002:00001538       ??_C@_06MOJHIBMG@union?5?$AA@ 0000000180039538     libvcruntime:undname.obj
 0002:00001540       ??_C@_07DIBCDNGL@struct?5?$AA@ 0000000180039540     libvcruntime:undname.obj
 0002:00001548       ??_C@_06LJBABKPM@class?5?$AA@ 0000000180039548     libvcruntime:undname.obj
 0002:00001550       ??_C@_08KOFANOFK@coclass?5?$AA@ 0000000180039550     libvcruntime:undname.obj
 0002:00001560       ??_C@_0N@DLIEFKNA@cointerface?5?$AA@ 0000000180039560     libvcruntime:undname.obj
 0002:00001570       ??_C@_05LJGMCFOG@enum?5?$AA@ 0000000180039570     libvcruntime:undname.obj
 0002:00001578       ??_C@_09GAIEOBLP@volatile?5?$AA@ 0000000180039578     libvcruntime:undname.obj
 0002:00001584       ??_C@_06LIJLOJAG@const?5?$AA@ 0000000180039584     libvcruntime:undname.obj
 0002:0000158c       ??_C@_02KJPKDIBN@?$CG?5?$AA@ 000000018003958c     libvcruntime:undname.obj
 0002:00001590       ??_C@_03PCKGMOPB@?$CG?$CG?5?$AA@ 0000000180039590     libvcruntime:undname.obj
 0002:00001598       ??_C@_0M@EALIELKG@cli?3?3array?$DM?$AA@ 0000000180039598     libvcruntime:undname.obj
 0002:000015a8       ??_C@_0O@GKABPPIF@cli?3?3pin_ptr?$DM?$AA@ 00000001800395a8     libvcruntime:undname.obj
 0002:000015b8       ??_C@_02GOGNNPBN@?$CJ?$FL?$AA@ 00000001800395b8     libvcruntime:undname.obj
 0002:000015bc       ??_C@_06EEGAIFAK@?$HLflat?$HN?$AA@ 00000001800395bc     libvcruntime:undname.obj
 0002:000015c4       ??_C@_05JIBOFOHK@?$HLfor?5?$AA@ 00000001800395c4     libvcruntime:undname.obj
 0002:000015cc       ??_C@_02MDINNEEG@s?5?$AA@  00000001800395cc     libvcruntime:undname.obj
 0002:000015d8       ??_7charNode@@6B@          00000001800395d8     libvcruntime:undname.obj
 0002:000015f8       ??_7pcharNode@@6B@         00000001800395f8     libvcruntime:undname.obj
 0002:00001618       ??_7pDNameNode@@6B@        0000000180039618     libvcruntime:undname.obj
 0002:00001638       ??_7DNameStatusNode@@6B@   0000000180039638     libvcruntime:undname.obj
 0002:00001658       ??_7pairNode@@6B@          0000000180039658     libvcruntime:undname.obj
 0002:00001670       ??_C@_04OKOHEJBO@?5?$DP?$DP?5?$AA@ 0000000180039670     libvcruntime:undname.obj
 0002:00001698       ??_C@_1BC@DNHGCMLG@?$AAa?$AAd?$AAv?$AAa?$AAp?$AAi?$AA3?$AA2?$AA?$AA@ 0000000180039698     libvcruntime:winapi_downlevel.obj
 0002:000016b0       ??_C@_1DM@KHCHBNEB@?$AAa?$AAp?$AAi?$AA?9?$AAm?$AAs?$AA?9?$AAw?$AAi?$AAn?$AA?9?$AAc?$AAo?$AAr?$AAe?$AA?9?$AAf?$AAi?$AAb?$AAe?$AAr?$AAs?$AA?9?$AAl?$AA1?$AA?9?$AA1?$AA?9?$AA1?$AA?$AA@ 00000001800396b0     libvcruntime:winapi_downlevel.obj
 0002:000016f0       ??_C@_1DK@LPPGFMPP@?$AAa?$AAp?$AAi?$AA?9?$AAm?$AAs?$AA?9?$AAw?$AAi?$AAn?$AA?9?$AAc?$AAo?$AAr?$AAe?$AA?9?$AAs?$AAy?$AAn?$AAc?$AAh?$AA?9?$AAl?$AA1?$AA?9?$AA2?$AA?9?$AA0?$AA?$AA@ 00000001800396f0     libvcruntime:winapi_downlevel.obj
 0002:00001730       ??_C@_1BC@GDMECMAK@?$AAk?$AAe?$AAr?$AAn?$AAe?$AAl?$AA3?$AA2?$AA?$AA@ 0000000180039730     libvcruntime:winapi_downlevel.obj
 0002:00001750       ??_C@_08KNHFBNJ@FlsAlloc?$AA@ 0000000180039750     libvcruntime:winapi_downlevel.obj
 0002:00001768       ??_C@_07PEJMOBNF@FlsFree?$AA@ 0000000180039768     libvcruntime:winapi_downlevel.obj
 0002:00001778       ??_C@_0M@GDNOONDI@FlsGetValue?$AA@ 0000000180039778     libvcruntime:winapi_downlevel.obj
 0002:00001790       ??_C@_0M@JCPCPOEF@FlsSetValue?$AA@ 0000000180039790     libvcruntime:winapi_downlevel.obj
 0002:000017a8       ??_C@_0BM@HCFOFFN@InitializeCriticalSectionEx?$AA@ 00000001800397a8     libvcruntime:winapi_downlevel.obj
 0002:00001938       ??_C@_1BI@BGOHAHKC@?$AAm?$AAs?$AAc?$AAo?$AAr?$AAe?$AAe?$AA?4?$AAd?$AAl?$AAl?$AA?$AA@ 0000000180039938     libucrt:exit.obj
 0002:00001950       ??_C@_0P@MIGLKIOC@CorExitProcess?$AA@ 0000000180039950     libucrt:exit.obj
 0002:00001960       standard_lookup_table      0000000180039960     libucrt:output.obj
 0002:000019c0       format_validation_lookup_table 00000001800399c0     libucrt:output.obj
 0002:00001a1c       ??_C@_06OJHGLDPL@?$CInull?$CJ?$AA@ 0000000180039a1c     libucrt:output.obj
 0002:00001a28       ??_C@_1O@CEDCILHN@?$AA?$CI?$AAn?$AAu?$AAl?$AAl?$AA?$CJ?$AA?$AA@ 0000000180039a28     libucrt:output.obj
 0002:00001a40       ??_C@_0EA@FCLIIPNN@Visual?5C?$CL?$CL?5CRT?3?5Not?5enough?5memor@ 0000000180039a40     libucrt:strerror.obj
 0002:00001a80       __acrt_exception_action_table 0000000180039a80     libucrt:exception_filter.obj
 0002:00001b40       __acrt_signal_action_table_count 0000000180039b40     libucrt:exception_filter.obj
 0002:00001b48       __acrt_signal_action_first_fpe_index 0000000180039b48     libucrt:exception_filter.obj
 0002:00001b50       __acrt_signal_action_fpe_count 0000000180039b50     libucrt:exception_filter.obj
 0002:00001cf0       ??_C@_1EG@CNNIPFIM@?$AAa?$AAp?$AAi?$AA?9?$AAm?$AAs?$AA?9?$AAw?$AAi?$AAn?$AA?9?$AAa?$AAp?$AAp?$AAm?$AAo?$AAd?$AAe?$AAl?$AA?9?$AAr?$AAu?$AAn?$AAt?$AAi?$AAm?$AAe?$AA?9?$AAl?$AA1?$AA?9?$AA1@ 0000000180039cf0     libucrt:winapi_thunks.obj
 0002:00001d40       ??_C@_1EA@JGEFHKEI@?$AAa?$AAp?$AAi?$AA?9?$AAm?$AAs?$AA?9?$AAw?$AAi?$AAn?$AA?9?$AAc?$AAo?$AAr?$AAe?$AA?9?$AAd?$AAa?$AAt?$AAe?$AAt?$AAi?$AAm?$AAe?$AA?9?$AAl?$AA1?$AA?9?$AA1?$AA?9?$AA1?$AA?$AA@ 0000000180039d40     libucrt:winapi_thunks.obj
 0002:00001d80       ??_C@_1DI@GCIAAENM@?$AAa?$AAp?$AAi?$AA?9?$AAm?$AAs?$AA?9?$AAw?$AAi?$AAn?$AA?9?$AAc?$AAo?$AAr?$AAe?$AA?9?$AAf?$AAi?$AAl?$AAe?$AA?9?$AAl?$AA2?$AA?9?$AA1?$AA?9?$AA1?$AA?$AA@ 0000000180039d80     libucrt:winapi_thunks.obj
 0002:00001dc0       ??_C@_1EI@MPIAOHOC@?$AAa?$AAp?$AAi?$AA?9?$AAm?$AAs?$AA?9?$AAw?$AAi?$AAn?$AA?9?$AAc?$AAo?$AAr?$AAe?$AA?9?$AAl?$AAo?$AAc?$AAa?$AAl?$AAi?$AAz?$AAa?$AAt?$AAi?$AAo?$AAn?$AA?9?$AAl?$AA1?$AA?9@ 0000000180039dc0     libucrt:winapi_thunks.obj
 0002:00001e10       ??_C@_1FK@FPHCKFIE@?$AAa?$AAp?$AAi?$AA?9?$AAm?$AAs?$AA?9?$AAw?$AAi?$AAn?$AA?9?$AAc?$AAo?$AAr?$AAe?$AA?9?$AAl?$AAo?$AAc?$AAa?$AAl?$AAi?$AAz?$AAa?$AAt?$AAi?$AAo?$AAn?$AA?9?$AAo?$AAb?$AAs@ 0000000180039e10     libucrt:winapi_thunks.obj
 0002:00001e70       ??_C@_1EM@DILCGIIO@?$AAa?$AAp?$AAi?$AA?9?$AAm?$AAs?$AA?9?$AAw?$AAi?$AAn?$AA?9?$AAc?$AAo?$AAr?$AAe?$AA?9?$AAp?$AAr?$AAo?$AAc?$AAe?$AAs?$AAs?$AAt?$AAh?$AAr?$AAe?$AAa?$AAd?$AAs?$AA?9?$AAl@ 0000000180039e70     libucrt:winapi_thunks.obj
 0002:00001ec0       ??_C@_1DM@LNCGDDPN@?$AAa?$AAp?$AAi?$AA?9?$AAm?$AAs?$AA?9?$AAw?$AAi?$AAn?$AA?9?$AAc?$AAo?$AAr?$AAe?$AA?9?$AAs?$AAt?$AAr?$AAi?$AAn?$AAg?$AA?9?$AAl?$AA1?$AA?9?$AA1?$AA?9?$AA0?$AA?$AA@ 0000000180039ec0     libucrt:winapi_thunks.obj
 0002:00001f00       ??_C@_1DO@FPAPJEMD@?$AAa?$AAp?$AAi?$AA?9?$AAm?$AAs?$AA?9?$AAw?$AAi?$AAn?$AA?9?$AAc?$AAo?$AAr?$AAe?$AA?9?$AAs?$AAy?$AAs?$AAi?$AAn?$AAf?$AAo?$AA?9?$AAl?$AA1?$AA?9?$AA2?$AA?9?$AA1?$AA?$AA@ 0000000180039f00     libucrt:winapi_thunks.obj
 0002:00001f40       ??_C@_1DK@NDHNAHIO@?$AAa?$AAp?$AAi?$AA?9?$AAm?$AAs?$AA?9?$AAw?$AAi?$AAn?$AA?9?$AAc?$AAo?$AAr?$AAe?$AA?9?$AAw?$AAi?$AAn?$AAr?$AAt?$AA?9?$AAl?$AA1?$AA?9?$AA1?$AA?9?$AA0?$AA?$AA@ 0000000180039f40     libucrt:winapi_thunks.obj
 0002:00001f80       ??_C@_1DM@KGHDGBCM@?$AAa?$AAp?$AAi?$AA?9?$AAm?$AAs?$AA?9?$AAw?$AAi?$AAn?$AA?9?$AAc?$AAo?$AAr?$AAe?$AA?9?$AAx?$AAs?$AAt?$AAa?$AAt?$AAe?$AA?9?$AAl?$AA2?$AA?9?$AA1?$AA?9?$AA0?$AA?$AA@ 0000000180039f80     libucrt:winapi_thunks.obj
 0002:00001fc0       ??_C@_1EO@IJIOEFOH@?$AAa?$AAp?$AAi?$AA?9?$AAm?$AAs?$AA?9?$AAw?$AAi?$AAn?$AA?9?$AAr?$AAt?$AAc?$AAo?$AAr?$AAe?$AA?9?$AAn?$AAt?$AAu?$AAs?$AAe?$AAr?$AA?9?$AAw?$AAi?$AAn?$AAd?$AAo?$AAw?$AA?9@ 0000000180039fc0     libucrt:winapi_thunks.obj
 0002:00002010       ??_C@_1FG@HHGEKANL@?$AAa?$AAp?$AAi?$AA?9?$AAm?$AAs?$AA?9?$AAw?$AAi?$AAn?$AA?9?$AAs?$AAe?$AAc?$AAu?$AAr?$AAi?$AAt?$AAy?$AA?9?$AAs?$AAy?$AAs?$AAt?$AAe?$AAm?$AAf?$AAu?$AAn?$AAc?$AAt?$AAi@ 000000018003a010     libucrt:winapi_thunks.obj
 0002:00002070       ??_C@_1FG@NCKKOLKO@?$AAe?$AAx?$AAt?$AA?9?$AAm?$AAs?$AA?9?$AAw?$AAi?$AAn?$AA?9?$AAk?$AAe?$AAr?$AAn?$AAe?$AAl?$AA3?$AA2?$AA?9?$AAp?$AAa?$AAc?$AAk?$AAa?$AAg?$AAe?$AA?9?$AAc?$AAu?$AAr?$AAr@ 000000018003a070     libucrt:winapi_thunks.obj
 0002:000020d0       ??_C@_1EG@DBIOJECG@?$AAe?$AAx?$AAt?$AA?9?$AAm?$AAs?$AA?9?$AAw?$AAi?$AAn?$AA?9?$AAn?$AAt?$AAu?$AAs?$AAe?$AAr?$AA?9?$AAd?$AAi?$AAa?$AAl?$AAo?$AAg?$AAb?$AAo?$AAx?$AA?9?$AAl?$AA1?$AA?9?$AA1@ 000000018003a0d0     libucrt:winapi_thunks.obj
 0002:00002120       ??_C@_1EO@FIHMJCLF@?$AAe?$AAx?$AAt?$AA?9?$AAm?$AAs?$AA?9?$AAw?$AAi?$AAn?$AA?9?$AAn?$AAt?$AAu?$AAs?$AAe?$AAr?$AA?9?$AAw?$AAi?$AAn?$AAd?$AAo?$AAw?$AAs?$AAt?$AAa?$AAt?$AAi?$AAo?$AAn?$AA?9@ 000000018003a120     libucrt:winapi_thunks.obj
 0002:00002170       ??_C@_1O@BCCLBEOE@?$AAu?$AAs?$AAe?$AAr?$AA3?$AA2?$AA?$AA@ 000000018003a170     libucrt:winapi_thunks.obj
 0002:00002188       ??_C@_0BA@IHGNDAEB@CompareStringEx?$AA@ 000000018003a188     libucrt:winapi_thunks.obj
 0002:000021c0       ??_C@_0BE@JOGNEJCI@GetCurrentPackageId?$AA@ 000000018003a1c0     libucrt:winapi_thunks.obj
 0002:000021e8       ??_C@_0O@KKBNKAPF@LCMapStringEx?$AA@ 000000018003a1e8     libucrt:winapi_thunks.obj
 0002:00002200       ??_C@_0BB@HBDEELFH@LocaleNameToLCID?$AA@ 000000018003a200     libucrt:winapi_thunks.obj
 0002:00002218       ??_C@_0N@PPOMPGGK@RoInitialize?$AA@ 000000018003a218     libucrt:winapi_thunks.obj
 0002:00002230       ??_C@_0P@LLFHBIJD@RoUninitialize?$AA@ 000000018003a230     libucrt:winapi_thunks.obj
 0002:00002240       ??_C@_03OEIAHPBN@INF?$AA@  000000018003a240     libucrt:cvt.obj
 0002:00002244       ??_C@_03OJHLLCGB@inf?$AA@  000000018003a244     libucrt:cvt.obj
 0002:00002248       ??_C@_03LKNCIKJB@NAN?$AA@  000000018003a248     libucrt:cvt.obj
 0002:0000224c       ??_C@_03LHCJEHON@nan?$AA@  000000018003a24c     libucrt:cvt.obj
 0002:00002250       ??_C@_09OFJJIMPC@NAN?$CISNAN?$CJ?$AA@ 000000018003a250     libucrt:cvt.obj
 0002:00002260       ??_C@_09IPFBKMDL@nan?$CIsnan?$CJ?$AA@ 000000018003a260     libucrt:cvt.obj
 0002:00002270       ??_C@_08IKHNHAJ@NAN?$CIIND?$CJ?$AA@ 000000018003a270     libucrt:cvt.obj
 0002:00002280       ??_C@_08OFCDMILK@nan?$CIind?$CJ?$AA@ 000000018003a280     libucrt:cvt.obj
 0002:0000228c       ??_C@_05KLBDPFGC@e?$CL000?$AA@ 000000018003a28c     libucrt:cvt.obj
 0002:000022a0       __lc_time_c                000000018003a2a0     libucrt:nlsdata.obj
 0002:00002560       ??_C@_03KOEHGMDN@Sun?$AA@  000000018003a560     libucrt:nlsdata.obj
 0002:00002564       ??_C@_03PDAGKDH@Mon?$AA@   000000018003a564     libucrt:nlsdata.obj
 0002:00002568       ??_C@_03NAGEINEP@Tue?$AA@  000000018003a568     libucrt:nlsdata.obj
 0002:0000256c       ??_C@_03MHOMLAJA@Wed?$AA@  000000018003a56c     libucrt:nlsdata.obj
 0002:00002570       ??_C@_03IOFIKPDN@Thu?$AA@  000000018003a570     libucrt:nlsdata.obj
 0002:00002574       ??_C@_03IDIOELNC@Fri?$AA@  000000018003a574     libucrt:nlsdata.obj
 0002:00002578       ??_C@_03FEFJNEK@Sat?$AA@   000000018003a578     libucrt:nlsdata.obj
 0002:0000257c       ??_C@_06OOPIFAJ@Sunday?$AA@ 000000018003a57c     libucrt:nlsdata.obj
 0002:00002584       ??_C@_06JLEDEDGH@Monday?$AA@ 000000018003a584     libucrt:nlsdata.obj
 0002:00002590       ??_C@_07BAAGCFCM@Tuesday?$AA@ 000000018003a590     libucrt:nlsdata.obj
 0002:00002598       ??_C@_09DLIGFAKA@Wednesday?$AA@ 000000018003a598     libucrt:nlsdata.obj
 0002:000025a8       ??_C@_08HACCIKIA@Thursday?$AA@ 000000018003a5a8     libucrt:nlsdata.obj
 0002:000025b4       ??_C@_06JECMNKMI@Friday?$AA@ 000000018003a5b4     libucrt:nlsdata.obj
 0002:000025c0       ??_C@_08INBOOONO@Saturday?$AA@ 000000018003a5c0     libucrt:nlsdata.obj
 0002:000025cc       ??_C@_03JIHJHPIE@Jan?$AA@  000000018003a5cc     libucrt:nlsdata.obj
 0002:000025d0       ??_C@_03HJBDCHOM@Feb?$AA@  000000018003a5d0     libucrt:nlsdata.obj
 0002:000025d4       ??_C@_03ODNJBKGA@Mar?$AA@  000000018003a5d4     libucrt:nlsdata.obj
 0002:000025d8       ??_C@_03LEOLGMJP@Apr?$AA@  000000018003a5d8     libucrt:nlsdata.obj
 0002:000025dc       ??_C@_03CNMDKL@May?$AA@    000000018003a5dc     libucrt:nlsdata.obj
 0002:000025e0       ??_C@_03IDFGHECI@Jun?$AA@  000000018003a5e0     libucrt:nlsdata.obj
 0002:000025e4       ??_C@_03LBGABGKK@Jul?$AA@  000000018003a5e4     libucrt:nlsdata.obj
 0002:000025e8       ??_C@_03IFJFEIGA@Aug?$AA@  000000018003a5e8     libucrt:nlsdata.obj
 0002:000025ec       ??_C@_03GGCAPAJC@Sep?$AA@  000000018003a5ec     libucrt:nlsdata.obj
 0002:000025f0       ??_C@_03BMAOKBAD@Oct?$AA@  000000018003a5f0     libucrt:nlsdata.obj
 0002:000025f4       ??_C@_03JPJOFNIA@Nov?$AA@  000000018003a5f4     libucrt:nlsdata.obj
 0002:000025f8       ??_C@_03MKABNOCG@Dec?$AA@  000000018003a5f8     libucrt:nlsdata.obj
 0002:00002600       ??_C@_07CGJPFGJA@January?$AA@ 000000018003a600     libucrt:nlsdata.obj
 0002:00002608       ??_C@_08GNJGEPFN@February?$AA@ 000000018003a608     libucrt:nlsdata.obj
 0002:00002614       ??_C@_05HPCKOFNC@March?$AA@ 000000018003a614     libucrt:nlsdata.obj
 0002:0000261c       ??_C@_05DMJDNLEJ@April?$AA@ 000000018003a61c     libucrt:nlsdata.obj
 0002:00002624       ??_C@_04CNLMGBGM@June?$AA@ 000000018003a624     libucrt:nlsdata.obj
 0002:0000262c       ??_C@_04MIEPOIFP@July?$AA@ 000000018003a62c     libucrt:nlsdata.obj
 0002:00002634       ??_C@_06LBBHFDDG@August?$AA@ 000000018003a634     libucrt:nlsdata.obj
 0002:00002640       ??_C@_09BHHEALKD@September?$AA@ 000000018003a640     libucrt:nlsdata.obj
 0002:00002650       ??_C@_07JJNFCEND@October?$AA@ 000000018003a650     libucrt:nlsdata.obj
 0002:00002658       ??_C@_08HCHEGEOA@November?$AA@ 000000018003a658     libucrt:nlsdata.obj
 0002:00002668       ??_C@_08EDHMEBNP@December?$AA@ 000000018003a668     libucrt:nlsdata.obj
 0002:00002674       ??_C@_02DEDBPAFC@AM?$AA@   000000018003a674     libucrt:nlsdata.obj
 0002:00002678       ??_C@_02CJNFDJBF@PM?$AA@   000000018003a678     libucrt:nlsdata.obj
 0002:00002680       ??_C@_08BPBNCDIB@MM?1dd?1yy?$AA@ 000000018003a680     libucrt:nlsdata.obj
 0002:00002690       ??_C@_0BE@CKGJFCPC@dddd?0?5MMMM?5dd?0?5yyyy?$AA@ 000000018003a690     libucrt:nlsdata.obj
 0002:000026a8       ??_C@_08JCCMCCIL@HH?3mm?3ss?$AA@ 000000018003a6a8     libucrt:nlsdata.obj
 0002:000026b8       ??_C@_17MBGCMIPB@?$AAS?$AAu?$AAn?$AA?$AA@ 000000018003a6b8     libucrt:nlsdata.obj
 0002:000026c0       ??_C@_17KBOMKBF@?$AAM?$AAo?$AAn?$AA?$AA@ 000000018003a6c0     libucrt:nlsdata.obj
 0002:000026c8       ??_C@_17BMKGEGOJ@?$AAT?$AAu?$AAe?$AA?$AA@ 000000018003a6c8     libucrt:nlsdata.obj
 0002:000026d0       ??_C@_17CJEDCEPE@?$AAW?$AAe?$AAd?$AA?$AA@ 000000018003a6d0     libucrt:nlsdata.obj
 0002:000026d8       ??_C@_17PDPHAADD@?$AAT?$AAh?$AAu?$AA?$AA@ 000000018003a6d8     libucrt:nlsdata.obj
 0002:000026e0       ??_C@_17HFOLPPLP@?$AAF?$AAr?$AAi?$AA?$AA@ 000000018003a6e0     libucrt:nlsdata.obj
 0002:000026e8       ??_C@_17GGIBDPIH@?$AAS?$AAa?$AAt?$AA?$AA@ 000000018003a6e8     libucrt:nlsdata.obj
 0002:000026f0       ??_C@_1O@IHNHDHPB@?$AAS?$AAu?$AAn?$AAd?$AAa?$AAy?$AA?$AA@ 000000018003a6f0     libucrt:nlsdata.obj
 0002:00002700       ??_C@_1O@MMNBFLIA@?$AAM?$AAo?$AAn?$AAd?$AAa?$AAy?$AA?$AA@ 000000018003a700     libucrt:nlsdata.obj
 0002:00002710       ??_C@_1BA@ENFBFFEK@?$AAT?$AAu?$AAe?$AAs?$AAd?$AAa?$AAy?$AA?$AA@ 000000018003a710     libucrt:nlsdata.obj
 0002:00002720       ??_C@_1BE@EBOGMDOH@?$AAW?$AAe?$AAd?$AAn?$AAe?$AAs?$AAd?$AAa?$AAy?$AA?$AA@ 000000018003a720     libucrt:nlsdata.obj
 0002:00002738       ??_C@_1BC@HHMNLIHE@?$AAT?$AAh?$AAu?$AAr?$AAs?$AAd?$AAa?$AAy?$AA?$AA@ 000000018003a738     libucrt:nlsdata.obj
 0002:00002750       ??_C@_1O@PDICJHAG@?$AAF?$AAr?$AAi?$AAd?$AAa?$AAy?$AA?$AA@ 000000018003a750     libucrt:nlsdata.obj
 0002:00002760       ??_C@_1BC@ENMNNPAJ@?$AAS?$AAa?$AAt?$AAu?$AAr?$AAd?$AAa?$AAy?$AA?$AA@ 000000018003a760     libucrt:nlsdata.obj
 0002:00002778       ??_C@_17DKNBKCHM@?$AAJ?$AAa?$AAn?$AA?$AA@ 000000018003a778     libucrt:nlsdata.obj
 0002:00002780       ??_C@_17LMDJEKJN@?$AAF?$AAe?$AAb?$AA?$AA@ 000000018003a780     libucrt:nlsdata.obj
 0002:00002788       ??_C@_17CKNLEDEC@?$AAM?$AAa?$AAr?$AA?$AA@ 000000018003a788     libucrt:nlsdata.obj
 0002:00002790       ??_C@_17LFPOIHDD@?$AAA?$AAp?$AAr?$AA?$AA@ 000000018003a790     libucrt:nlsdata.obj
 0002:00002798       ??_C@_17PNNKMEED@?$AAM?$AAa?$AAy?$AA?$AA@ 000000018003a798     libucrt:nlsdata.obj
 0002:000027a0       ??_C@_17KCJGOCPB@?$AAJ?$AAu?$AAn?$AA?$AA@ 000000018003a7a0     libucrt:nlsdata.obj
 0002:000027a8       ??_C@_17IJPCKHK@?$AAJ?$AAu?$AAl?$AA?$AA@ 000000018003a7a8     libucrt:nlsdata.obj
 0002:000027b0       ??_C@_17ICPELBCN@?$AAA?$AAu?$AAg?$AA?$AA@ 000000018003a7b0     libucrt:nlsdata.obj
 0002:000027b8       ??_C@_17HCHCOKMG@?$AAS?$AAe?$AAp?$AA?$AA@ 000000018003a7b8     libucrt:nlsdata.obj
 0002:000027c0       ??_C@_17FNLKOI@?$AAO?$AAc?$AAt?$AA?$AA@ 000000018003a7c0     libucrt:nlsdata.obj
 0002:000027c8       ??_C@_17BBDMLCIG@?$AAN?$AAo?$AAv?$AA?$AA@ 000000018003a7c8     libucrt:nlsdata.obj
 0002:000027d0       ??_C@_17EGKACKIF@?$AAD?$AAe?$AAc?$AA?$AA@ 000000018003a7d0     libucrt:nlsdata.obj
 0002:000027d8       ??_C@_1BA@EFMEIEBA@?$AAJ?$AAa?$AAn?$AAu?$AAa?$AAr?$AAy?$AA?$AA@ 000000018003a7d8     libucrt:nlsdata.obj
 0002:000027e8       ??_C@_1BC@JGDDFFAM@?$AAF?$AAe?$AAb?$AAr?$AAu?$AAa?$AAr?$AAy?$AA?$AA@ 000000018003a7e8     libucrt:nlsdata.obj
 0002:00002800       ??_C@_1M@IKEENEDF@?$AAM?$AAa?$AAr?$AAc?$AAh?$AA?$AA@ 000000018003a800     libucrt:nlsdata.obj
 0002:00002810       ??_C@_1M@GJNLMHFD@?$AAA?$AAp?$AAr?$AAi?$AAl?$AA?$AA@ 000000018003a810     libucrt:nlsdata.obj
 0002:00002820       ??_C@_19EPFLPGAP@?$AAJ?$AAu?$AAn?$AAe?$AA?$AA@ 000000018003a820     libucrt:nlsdata.obj
 0002:00002830       ??_C@_19BIFMLPCD@?$AAJ?$AAu?$AAl?$AAy?$AA?$AA@ 000000018003a830     libucrt:nlsdata.obj
 0002:00002840       ??_C@_1O@PAHLKOAC@?$AAA?$AAu?$AAg?$AAu?$AAs?$AAt?$AA?$AA@ 000000018003a840     libucrt:nlsdata.obj
 0002:00002850       ??_C@_1BE@DKAAMBJL@?$AAS?$AAe?$AAp?$AAt?$AAe?$AAm?$AAb?$AAe?$AAr?$AA?$AA@ 000000018003a850     libucrt:nlsdata.obj
 0002:00002868       ??_C@_1BA@EPANDLNG@?$AAO?$AAc?$AAt?$AAo?$AAb?$AAe?$AAr?$AA?$AA@ 000000018003a868     libucrt:nlsdata.obj
 0002:00002878       ??_C@_1BC@BGLIFPF@?$AAN?$AAo?$AAv?$AAe?$AAm?$AAb?$AAe?$AAr?$AA?$AA@ 000000018003a878     libucrt:nlsdata.obj
 0002:00002890       ??_C@_1BC@FEMKIFH@?$AAD?$AAe?$AAc?$AAe?$AAm?$AAb?$AAe?$AAr?$AA?$AA@ 000000018003a890     libucrt:nlsdata.obj
 0002:000028a4       ??_C@_15ODEHAHHF@?$AAA?$AAM?$AA?$AA@ 000000018003a8a4     libucrt:nlsdata.obj
 0002:000028ac       ??_C@_15CLMNNGEL@?$AAP?$AAM?$AA?$AA@ 000000018003a8ac     libucrt:nlsdata.obj
 0002:000028b8       ??_C@_1BC@IEBCMHCM@?$AAM?$AAM?$AA?1?$AAd?$AAd?$AA?1?$AAy?$AAy?$AA?$AA@ 000000018003a8b8     libucrt:nlsdata.obj
 0002:000028d0       ??_C@_1CI@KNAKOEBC@?$AAd?$AAd?$AAd?$AAd?$AA?0?$AA?5?$AAM?$AAM?$AAM?$AAM?$AA?5?$AAd?$AAd?$AA?0?$AA?5?$AAy?$AAy?$AAy?$AAy?$AA?$AA@ 000000018003a8d0     libucrt:nlsdata.obj
 0002:000028f8       ??_C@_1BC@GDGBMEMK@?$AAH?$AAH?$AA?3?$AAm?$AAm?$AA?3?$AAs?$AAs?$AA?$AA@ 000000018003a8f8     libucrt:nlsdata.obj
 0002:00002910       ??_C@_1M@BMHNFIME@?$AAe?$AAn?$AA?9?$AAU?$AAS?$AA?$AA@ 000000018003a910     libucrt:nlsdata.obj
 0002:00002920       _sys_errlist               000000018003a920     libucrt:syserr.obj
 0002:00002a80       ??_C@_08INEPGKHH@No?5error?$AA@ 000000018003aa80     libucrt:syserr.obj
 0002:00002a90       ??_C@_0BK@FMDHKPNF@No?5such?5file?5or?5directory?$AA@ 000000018003aa90     libucrt:syserr.obj
 0002:00002ab0       ??_C@_0BA@FKIAIBGA@No?5such?5process?$AA@ 000000018003aab0     libucrt:syserr.obj
 0002:00002ac0       ??_C@_0BK@FJBOAFDK@Interrupted?5function?5call?$AA@ 000000018003aac0     libucrt:syserr.obj
 0002:00002ae0       ??_C@_0BD@KKNFOBBD@Input?1output?5error?$AA@ 000000018003aae0     libucrt:syserr.obj
 0002:00002af8       ??_C@_0BK@DPKMCKJ@No?5such?5device?5or?5address?$AA@ 000000018003aaf8     libucrt:syserr.obj
 0002:00002b18       ??_C@_0BC@MFFGCDFL@Arg?5list?5too?5long?$AA@ 000000018003ab18     libucrt:syserr.obj
 0002:00002b30       ??_C@_0BC@HKPNECK@Exec?5format?5error?$AA@ 000000018003ab30     libucrt:syserr.obj
 0002:00002b48       ??_C@_0BE@NFGDDCEF@Bad?5file?5descriptor?$AA@ 000000018003ab48     libucrt:syserr.obj
 0002:00002b60       ??_C@_0BD@LOHELEP@No?5child?5processes?$AA@ 000000018003ab60     libucrt:syserr.obj
 0002:00002b78       ??_C@_0CB@EPFKGNAK@Resource?5temporarily?5unavailable@ 000000018003ab78     libucrt:syserr.obj
 0002:00002ba0       ??_C@_0BB@IMDKMPFB@Not?5enough?5space?$AA@ 000000018003aba0     libucrt:syserr.obj
 0002:00002bb8       ??_C@_0BC@HFNFNKAI@Permission?5denied?$AA@ 000000018003abb8     libucrt:syserr.obj
 0002:00002bd0       ??_C@_0M@LOEHLCJD@Bad?5address?$AA@ 000000018003abd0     libucrt:syserr.obj
 0002:00002be0       ??_C@_0O@NIPGCINC@Unknown?5error?$AA@ 000000018003abe0     libucrt:syserr.obj
 0002:00002bf0       ??_C@_0BA@BIBLIOEK@Resource?5device?$AA@ 000000018003abf0     libucrt:syserr.obj
 0002:00002c00       ??_C@_0M@NAAJNNGH@File?5exists?$AA@ 000000018003ac00     libucrt:syserr.obj
 0002:00002c10       ??_C@_0O@OAMDNOCP@Improper?5link?$AA@ 000000018003ac10     libucrt:syserr.obj
 0002:00002c20       ??_C@_0P@NLEIANHE@No?5such?5device?$AA@ 000000018003ac20     libucrt:syserr.obj
 0002:00002c30       ??_C@_0BA@CJBACOOL@Not?5a?5directory?$AA@ 000000018003ac30     libucrt:syserr.obj
 0002:00002c40       ??_C@_0P@NDHGCGKE@Is?5a?5directory?$AA@ 000000018003ac40     libucrt:syserr.obj
 0002:00002c50       ??_C@_0BB@HMGGCEBG@Invalid?5argument?$AA@ 000000018003ac50     libucrt:syserr.obj
 0002:00002c68       ??_C@_0BO@IIFBODJE@Too?5many?5open?5files?5in?5system?$AA@ 000000018003ac68     libucrt:syserr.obj
 0002:00002c88       ??_C@_0BE@INBJMKGG@Too?5many?5open?5files?$AA@ 000000018003ac88     libucrt:syserr.obj
 0002:00002ca0       ??_C@_0CE@ONOKNLPF@Inappropriate?5I?1O?5control?5operat@ 000000018003aca0     libucrt:syserr.obj
 0002:00002cc8       ??_C@_0P@LFMMIPAE@File?5too?5large?$AA@ 000000018003acc8     libucrt:syserr.obj
 0002:00002cd8       ??_C@_0BI@FEALHKLD@No?5space?5left?5on?5device?$AA@ 000000018003acd8     libucrt:syserr.obj
 0002:00002cf0       ??_C@_0N@FEHLOILP@Invalid?5seek?$AA@ 000000018003acf0     libucrt:syserr.obj
 0002:00002d00       ??_C@_0BG@DDBFNKBH@Read?9only?5file?5system?$AA@ 000000018003ad00     libucrt:syserr.obj
 0002:00002d18       ??_C@_0P@PKCJJLLM@Too?5many?5links?$AA@ 000000018003ad18     libucrt:syserr.obj
 0002:00002d28       ??_C@_0M@LHEPIIOM@Broken?5pipe?$AA@ 000000018003ad28     libucrt:syserr.obj
 0002:00002d38       ??_C@_0N@MMJPGLJK@Domain?5error?$AA@ 000000018003ad38     libucrt:syserr.obj
 0002:00002d48       ??_C@_0BB@FCBJFCAJ@Result?5too?5large?$AA@ 000000018003ad48     libucrt:syserr.obj
 0002:00002d60       ??_C@_0BK@JAEBMJJM@Resource?5deadlock?5avoided?$AA@ 000000018003ad60     libucrt:syserr.obj
 0002:00002d80       ??_C@_0BC@BEDIHIDK@Filename?5too?5long?$AA@ 000000018003ad80     libucrt:syserr.obj
 0002:00002d98       ??_C@_0BD@CLHBCGPB@No?5locks?5available?$AA@ 000000018003ad98     libucrt:syserr.obj
 0002:00002db0       ??_C@_0BJ@IHEHINLI@Function?5not?5implemented?$AA@ 000000018003adb0     libucrt:syserr.obj
 0002:00002dd0       ??_C@_0BE@ICMCHPHH@Directory?5not?5empty?$AA@ 000000018003add0     libucrt:syserr.obj
 0002:00002de8       ??_C@_0BG@KLEAJEFJ@Illegal?5byte?5sequence?$AA@ 000000018003ade8     libucrt:syserr.obj
 0002:00002e00       _sys_nerr                  000000018003ae00     libucrt:syserr.obj
 0002:00002e28       ??_C@_1M@HPNHIDJI@?$AAj?$AAa?$AA?9?$AAJ?$AAP?$AA?$AA@ 000000018003ae28     libucrt:mbctype.obj
 0002:00002e38       ??_C@_1M@BIBDDEMK@?$AAz?$AAh?$AA?9?$AAC?$AAN?$AA?$AA@ 000000018003ae38     libucrt:mbctype.obj
 0002:00002e48       ??_C@_1M@JLOOOEGK@?$AAk?$AAo?$AA?9?$AAK?$AAR?$AA?$AA@ 000000018003ae48     libucrt:mbctype.obj
 0002:00002e58       ??_C@_1M@CLNBBOPM@?$AAz?$AAh?$AA?9?$AAT?$AAW?$AA?$AA@ 000000018003ae58     libucrt:mbctype.obj
 0002:00002e70       __newctype                 000000018003ae70     libucrt:ctype.obj
 0002:00003170       __newclmap                 000000018003b170     libucrt:ctype.obj
 0002:000032f0       __newcumap                 000000018003b2f0     libucrt:ctype.obj
 0002:000042b0       ??_C@_15EMKDOKLE@?$AAa?$AAr?$AA?$AA@ 000000018003c2b0     libucrt:lcidtoname_downlevel.obj
 0002:000042b8       ??_C@_15KNPADPLH@?$AAb?$AAg?$AA?$AA@ 000000018003c2b8     libucrt:lcidtoname_downlevel.obj
 0002:000042c0       ??_C@_15EDMHLDMO@?$AAc?$AAa?$AA?$AA@ 000000018003c2c0     libucrt:lcidtoname_downlevel.obj
 0002:000042c8       ??_C@_1O@BPEAJADD@?$AAz?$AAh?$AA?9?$AAC?$AAH?$AAS?$AA?$AA@ 000000018003c2c8     libucrt:lcidtoname_downlevel.obj
 0002:000042d8       ??_C@_15LJNHCMNK@?$AAc?$AAs?$AA?$AA@ 000000018003c2d8     libucrt:lcidtoname_downlevel.obj
 0002:000042e0       ??_C@_15FOMCIDHG@?$AAd?$AAa?$AA?$AA@ 000000018003c2e0     libucrt:lcidtoname_downlevel.obj
 0002:000042e8       ??_C@_15NBKABECB@?$AAd?$AAe?$AA?$AA@ 000000018003c2e8     libucrt:lcidtoname_downlevel.obj
 0002:000042f0       ??_C@_15GHPEIIAO@?$AAe?$AAl?$AA?$AA@ 000000018003c2f0     libucrt:lcidtoname_downlevel.obj
 0002:000042f8       ??_C@_15MNPNEAIF@?$AAe?$AAn?$AA?$AA@ 000000018003c2f8     libucrt:lcidtoname_downlevel.obj
 0002:00004300       ??_C@_15GPIOMPMH@?$AAe?$AAs?$AA?$AA@ 000000018003c300     libucrt:lcidtoname_downlevel.obj
 0002:00004308       ??_C@_15NGLOAKJC@?$AAf?$AAi?$AA?$AA@ 000000018003c308     libucrt:lcidtoname_downlevel.obj
 0002:00004310       ??_C@_15FBKGNKAM@?$AAf?$AAr?$AA?$AA@ 000000018003c310     libucrt:lcidtoname_downlevel.obj
 0002:00004318       ??_C@_15KGGCNEFK@?$AAh?$AAe?$AA?$AA@ 000000018003c318     libucrt:lcidtoname_downlevel.obj
 0002:00004320       ??_C@_15PGHLIDMF@?$AAh?$AAu?$AA?$AA@ 000000018003c320     libucrt:lcidtoname_downlevel.obj
 0002:00004328       ??_C@_15BIEMAPLM@?$AAi?$AAs?$AA?$AA@ 000000018003c328     libucrt:lcidtoname_downlevel.obj
 0002:00004330       ??_C@_15IFJLDHAF@?$AAi?$AAt?$AA?$AA@ 000000018003c330     libucrt:lcidtoname_downlevel.obj
 0002:00004338       ??_C@_15GEMIOCAG@?$AAj?$AAa?$AA?$AA@ 000000018003c338     libucrt:lcidtoname_downlevel.obj
 0002:00004340       ??_C@_15EPELEGJA@?$AAk?$AAo?$AA?$AA@ 000000018003c340     libucrt:lcidtoname_downlevel.obj
 0002:00004348       ??_C@_15NDDHIMN@?$AAn?$AAl?$AA?$AA@ 000000018003c348     libucrt:lcidtoname_downlevel.obj
 0002:00004350       ??_C@_15BPIGNHCD@?$AAn?$AAo?$AA?$AA@ 000000018003c350     libucrt:lcidtoname_downlevel.obj
 0002:00004358       ??_C@_15DEOPBLCG@?$AAp?$AAl?$AA?$AA@ 000000018003c358     libucrt:lcidtoname_downlevel.obj
 0002:00004360       ??_C@_15KBECGEFG@?$AAp?$AAt?$AA?$AA@ 000000018003c360     libucrt:lcidtoname_downlevel.obj
 0002:00004368       ??_C@_15GLJCBFMD@?$AAr?$AAo?$AA?$AA@ 000000018003c368     libucrt:lcidtoname_downlevel.obj
 0002:00004370       ??_C@_15FEDGKCDI@?$AAr?$AAu?$AA?$AA@ 000000018003c370     libucrt:lcidtoname_downlevel.obj
 0002:00004378       ??_C@_15GLKMLLHM@?$AAh?$AAr?$AA?$AA@ 000000018003c378     libucrt:lcidtoname_downlevel.obj
 0002:00004380       ??_C@_15CPKMFBDB@?$AAs?$AAk?$AA?$AA@ 000000018003c380     libucrt:lcidtoname_downlevel.obj
 0002:00004388       ??_C@_15BAAIOGMK@?$AAs?$AAq?$AA?$AA@ 000000018003c388     libucrt:lcidtoname_downlevel.obj
 0002:00004390       ??_C@_15INNPNOHD@?$AAs?$AAv?$AA?$AA@ 000000018003c390     libucrt:lcidtoname_downlevel.obj
 0002:00004398       ??_C@_15CABMMOGH@?$AAt?$AAh?$AA?$AA@ 000000018003c398     libucrt:lcidtoname_downlevel.obj
 0002:000043a0       ??_C@_15BPLIHJJM@?$AAt?$AAr?$AA?$AA@ 000000018003c3a0     libucrt:lcidtoname_downlevel.obj
 0002:000043a8       ??_C@_15NEOEKKDJ@?$AAu?$AAr?$AA?$AA@ 000000018003c3a8     libucrt:lcidtoname_downlevel.obj
 0002:000043b0       ??_C@_15NFICGAJK@?$AAi?$AAd?$AA?$AA@ 000000018003c3b0     libucrt:lcidtoname_downlevel.obj
 0002:000043b8       ??_C@_15PJPFLCCM@?$AAu?$AAk?$AA?$AA@ 000000018003c3b8     libucrt:lcidtoname_downlevel.obj
 0002:000043c0       ??_C@_15HPJPHDM@?$AAb?$AAe?$AA?$AA@ 000000018003c3c0     libucrt:lcidtoname_downlevel.obj
 0002:000043c8       ??_C@_15LCHLGJII@?$AAs?$AAl?$AA?$AA@ 000000018003c3c8     libucrt:lcidtoname_downlevel.obj
 0002:000043d0       ??_C@_15PCFJPHHO@?$AAe?$AAt?$AA?$AA@ 000000018003c3d0     libucrt:lcidtoname_downlevel.obj
 0002:000043d8       ??_C@_15HPFPGODN@?$AAl?$AAv?$AA?$AA@ 000000018003c3d8     libucrt:lcidtoname_downlevel.obj
 0002:000043e0       ??_C@_15NFFGKGLG@?$AAl?$AAt?$AA?$AA@ 000000018003c3e0     libucrt:lcidtoname_downlevel.obj
 0002:000043e8       ??_C@_15BDAKCCHN@?$AAf?$AAa?$AA?$AA@ 000000018003c3e8     libucrt:lcidtoname_downlevel.obj
 0002:000043f0       ??_C@_15NFGIAIAJ@?$AAv?$AAi?$AA?$AA@ 000000018003c3f0     libucrt:lcidtoname_downlevel.obj
 0002:000043f8       ??_C@_15LMKNDMHN@?$AAh?$AAy?$AA?$AA@ 000000018003c3f8     libucrt:lcidtoname_downlevel.obj
 0002:00004400       ??_C@_15IJBHMCFL@?$AAa?$AAz?$AA?$AA@ 000000018003c400     libucrt:lcidtoname_downlevel.obj
 0002:00004408       ??_C@_15EKOFJABL@?$AAe?$AAu?$AA?$AA@ 000000018003c408     libucrt:lcidtoname_downlevel.obj
 0002:00004410       ??_C@_15BGHADCNK@?$AAm?$AAk?$AA?$AA@ 000000018003c410     libucrt:lcidtoname_downlevel.obj
 0002:00004418       ??_C@_15JDNICKHM@?$AAa?$AAf?$AA?$AA@ 000000018003c418     libucrt:lcidtoname_downlevel.obj
 0002:00004420       ??_C@_15KPJEDBKD@?$AAk?$AAa?$AA?$AA@ 000000018003c420     libucrt:lcidtoname_downlevel.obj
 0002:00004428       ??_C@_15PDNFFFEO@?$AAf?$AAo?$AA?$AA@ 000000018003c428     libucrt:lcidtoname_downlevel.obj
 0002:00004430       ??_C@_15OMLEGLOC@?$AAh?$AAi?$AA?$AA@ 000000018003c430     libucrt:lcidtoname_downlevel.obj
 0002:00004438       ??_C@_15IDNNENKK@?$AAm?$AAs?$AA?$AA@ 000000018003c438     libucrt:lcidtoname_downlevel.obj
 0002:00004440       ??_C@_15MACJNBMH@?$AAk?$AAk?$AA?$AA@ 000000018003c440     libucrt:lcidtoname_downlevel.obj
 0002:00004448       ??_C@_15DKDJEOND@?$AAk?$AAy?$AA?$AA@ 000000018003c448     libucrt:lcidtoname_downlevel.obj
 0002:00004450       ??_C@_15DFGDLJBG@?$AAs?$AAw?$AA?$AA@ 000000018003c450     libucrt:lcidtoname_downlevel.obj
 0002:00004458       ??_C@_15BBFAICNG@?$AAu?$AAz?$AA?$AA@ 000000018003c458     libucrt:lcidtoname_downlevel.obj
 0002:00004460       ??_C@_15DKNDCGEA@?$AAt?$AAt?$AA?$AA@ 000000018003c460     libucrt:lcidtoname_downlevel.obj
 0002:00004468       ??_C@_15MGIFMDPL@?$AAp?$AAa?$AA?$AA@ 000000018003c468     libucrt:lcidtoname_downlevel.obj
 0002:00004470       ??_C@_15HCNDBBA@?$AAg?$AAu?$AA?$AA@ 000000018003c470     libucrt:lcidtoname_downlevel.obj
 0002:00004478       ??_C@_15FNBEIBON@?$AAt?$AAa?$AA?$AA@ 000000018003c478     libucrt:lcidtoname_downlevel.obj
 0002:00004480       ??_C@_15NCHGBGLK@?$AAt?$AAe?$AA?$AA@ 000000018003c480     libucrt:lcidtoname_downlevel.obj
 0002:00004488       ??_C@_15PHPHCBPF@?$AAk?$AAn?$AA?$AA@ 000000018003c488     libucrt:lcidtoname_downlevel.obj
 0002:00004490       ??_C@_15DLGBCKMP@?$AAm?$AAr?$AA?$AA@ 000000018003c490     libucrt:lcidtoname_downlevel.obj
 0002:00004498       ??_C@_15EABBLBFF@?$AAs?$AAa?$AA?$AA@ 000000018003c498     libucrt:lcidtoname_downlevel.obj
 0002:000044a0       ??_C@_15CBKOMCOI@?$AAm?$AAn?$AA?$AA@ 000000018003c4a0     libucrt:lcidtoname_downlevel.obj
 0002:000044a8       ??_C@_15CKDMCJAF@?$AAg?$AAl?$AA?$AA@ 000000018003c4a8     libucrt:lcidtoname_downlevel.obj
 0002:000044b0       ??_C@_17CNJFBPG@?$AAk?$AAo?$AAk?$AA?$AA@ 000000018003c4b0     libucrt:lcidtoname_downlevel.obj
 0002:000044b8       ??_C@_17FFBJICPL@?$AAs?$AAy?$AAr?$AA?$AA@ 000000018003c4b8     libucrt:lcidtoname_downlevel.obj
 0002:000044c0       ??_C@_17KPNDCPAF@?$AAd?$AAi?$AAv?$AA?$AA@ 000000018003c4c0     libucrt:lcidtoname_downlevel.obj
 0002:000044c8       ??_C@_1M@OKAHONE@?$AAa?$AAr?$AA?9?$AAS?$AAA?$AA?$AA@ 000000018003c4c8     libucrt:lcidtoname_downlevel.obj
 0002:000044d8       ??_C@_1M@FFFIGIGK@?$AAb?$AAg?$AA?9?$AAB?$AAG?$AA?$AA@ 000000018003c4d8     libucrt:lcidtoname_downlevel.obj
 0002:000044e8       ??_C@_1M@BJNKEDC@?$AAc?$AAa?$AA?9?$AAE?$AAS?$AA?$AA@ 000000018003c4e8     libucrt:lcidtoname_downlevel.obj
 0002:000044f8       ??_C@_1M@IJJHFJHA@?$AAc?$AAs?$AA?9?$AAC?$AAZ?$AA?$AA@ 000000018003c4f8     libucrt:lcidtoname_downlevel.obj
 0002:00004508       ??_C@_1M@CLPEOBGI@?$AAd?$AAa?$AA?9?$AAD?$AAK?$AA?$AA@ 000000018003c508     libucrt:lcidtoname_downlevel.obj
 0002:00004518       ??_C@_1M@MCMADGCB@?$AAd?$AAe?$AA?9?$AAD?$AAE?$AA?$AA@ 000000018003c518     libucrt:lcidtoname_downlevel.obj
 0002:00004528       ??_C@_1M@OOCKEMAM@?$AAe?$AAl?$AA?9?$AAG?$AAR?$AA?$AA@ 000000018003c528     libucrt:lcidtoname_downlevel.obj
 0002:00004538       ??_C@_1M@DDNJFGID@?$AAf?$AAi?$AA?9?$AAF?$AAI?$AA?$AA@ 000000018003c538     libucrt:lcidtoname_downlevel.obj
 0002:00004548       ??_C@_1M@GLIPPMAC@?$AAf?$AAr?$AA?9?$AAF?$AAR?$AA?$AA@ 000000018003c548     libucrt:lcidtoname_downlevel.obj
 0002:00004558       ??_C@_1M@GFMCHPE@?$AAh?$AAe?$AA?9?$AAI?$AAL?$AA?$AA@ 000000018003c558     libucrt:lcidtoname_downlevel.obj
 0002:00004568       ??_C@_1M@MHLPGNKM@?$AAh?$AAu?$AA?9?$AAH?$AAU?$AA?$AA@ 000000018003c568     libucrt:lcidtoname_downlevel.obj
 0002:00004578       ??_C@_1M@LPDDNNPN@?$AAi?$AAs?$AA?9?$AAI?$AAS?$AA?$AA@ 000000018003c578     libucrt:lcidtoname_downlevel.obj
 0002:00004588       ??_C@_1M@MADIPODN@?$AAi?$AAt?$AA?9?$AAI?$AAT?$AA?$AA@ 000000018003c588     libucrt:lcidtoname_downlevel.obj
 0002:00004598       ??_C@_1M@IHBJJGG@?$AAn?$AAl?$AA?9?$AAN?$AAL?$AA?$AA@ 000000018003c598     libucrt:lcidtoname_downlevel.obj
 0002:000045a8       ??_C@_1M@EANAGDL@?$AAn?$AAb?$AA?9?$AAN?$AAO?$AA?$AA@ 000000018003c5a8     libucrt:lcidtoname_downlevel.obj
 0002:000045b8       ??_C@_1M@NEIEMEGP@?$AAp?$AAl?$AA?9?$AAP?$AAL?$AA?$AA@ 000000018003c5b8     libucrt:lcidtoname_downlevel.obj
 0002:000045c8       ??_C@_1M@BOCFIGEP@?$AAp?$AAt?$AA?9?$AAB?$AAR?$AA?$AA@ 000000018003c5c8     libucrt:lcidtoname_downlevel.obj
 0002:000045d8       ??_C@_1M@IMPFOPBG@?$AAr?$AAo?$AA?9?$AAR?$AAO?$AA?$AA@ 000000018003c5d8     libucrt:lcidtoname_downlevel.obj
 0002:000045e8       ??_C@_1M@IDNNEJMM@?$AAr?$AAu?$AA?9?$AAR?$AAU?$AA?$AA@ 000000018003c5e8     libucrt:lcidtoname_downlevel.obj
 0002:000045f8       ??_C@_1M@LILEEOGM@?$AAh?$AAr?$AA?9?$AAH?$AAR?$AA?$AA@ 000000018003c5f8     libucrt:lcidtoname_downlevel.obj
 0002:00004608       ??_C@_1M@FKIFEHPB@?$AAs?$AAk?$AA?9?$AAS?$AAK?$AA?$AA@ 000000018003c608     libucrt:lcidtoname_downlevel.obj
 0002:00004618       ??_C@_1M@LJMAMNPJ@?$AAs?$AAq?$AA?9?$AAA?$AAL?$AA?$AA@ 000000018003c618     libucrt:lcidtoname_downlevel.obj
 0002:00004628       ??_C@_1M@GIAKDKJK@?$AAs?$AAv?$AA?9?$AAS?$AAE?$AA?$AA@ 000000018003c628     libucrt:lcidtoname_downlevel.obj
 0002:00004638       ??_C@_1M@MKJKIKCL@?$AAt?$AAh?$AA?9?$AAT?$AAH?$AA?$AA@ 000000018003c638     libucrt:lcidtoname_downlevel.obj
 0002:00004648       ??_C@_1M@MFLCCMPB@?$AAt?$AAr?$AA?9?$AAT?$AAR?$AA?$AA@ 000000018003c648     libucrt:lcidtoname_downlevel.obj
 0002:00004658       ??_C@_1M@OIJHDKJN@?$AAu?$AAr?$AA?9?$AAP?$AAK?$AA?$AA@ 000000018003c658     libucrt:lcidtoname_downlevel.obj
 0002:00004668       ??_C@_1M@LHIPCIEK@?$AAi?$AAd?$AA?9?$AAI?$AAD?$AA?$AA@ 000000018003c668     libucrt:lcidtoname_downlevel.obj
 0002:00004678       ??_C@_1M@MFMOBGI@?$AAu?$AAk?$AA?9?$AAU?$AAA?$AA?$AA@ 000000018003c678     libucrt:lcidtoname_downlevel.obj
 0002:00004688       ??_C@_1M@OBGLJIPL@?$AAb?$AAe?$AA?9?$AAB?$AAY?$AA?$AA@ 000000018003c688     libucrt:lcidtoname_downlevel.obj
 0002:00004698       ??_C@_1M@BCFAJEAD@?$AAs?$AAl?$AA?9?$AAS?$AAI?$AA?$AA@ 000000018003c698     libucrt:lcidtoname_downlevel.obj
 0002:000046a8       ??_C@_1M@FKFFEDDN@?$AAe?$AAt?$AA?9?$AAE?$AAE?$AA?$AA@ 000000018003c6a8     libucrt:lcidtoname_downlevel.obj
 0002:000046b8       ??_C@_1M@KGKKAACI@?$AAl?$AAv?$AA?9?$AAL?$AAV?$AA?$AA@ 000000018003c6b8     libucrt:lcidtoname_downlevel.obj
 0002:000046c8       ??_C@_1M@IFGBIJO@?$AAl?$AAt?$AA?9?$AAL?$AAT?$AA?$AA@ 000000018003c6c8     libucrt:lcidtoname_downlevel.obj
 0002:000046d8       ??_C@_1M@FGEAHEDM@?$AAf?$AAa?$AA?9?$AAI?$AAR?$AA?$AA@ 000000018003c6d8     libucrt:lcidtoname_downlevel.obj
 0002:000046e8       ??_C@_1M@KBMAIBFN@?$AAv?$AAi?$AA?9?$AAV?$AAN?$AA?$AA@ 000000018003c6e8     libucrt:lcidtoname_downlevel.obj
 0002:000046f8       ??_C@_1M@GPCBKDJK@?$AAh?$AAy?$AA?9?$AAA?$AAM?$AA?$AA@ 000000018003c6f8     libucrt:lcidtoname_downlevel.obj
 0002:00004708       ??_C@_1BG@BECMDDJB@?$AAa?$AAz?$AA?9?$AAA?$AAZ?$AA?9?$AAL?$AAa?$AAt?$AAn?$AA?$AA@ 000000018003c708     libucrt:lcidtoname_downlevel.obj
 0002:00004720       ??_C@_1M@MAOFCAEA@?$AAe?$AAu?$AA?9?$AAE?$AAS?$AA?$AA@ 000000018003c720     libucrt:lcidtoname_downlevel.obj
 0002:00004730       ??_C@_1M@IGHABKPI@?$AAm?$AAk?$AA?9?$AAM?$AAK?$AA?$AA@ 000000018003c730     libucrt:lcidtoname_downlevel.obj
 0002:00004740       ??_C@_1M@IAIGNEJG@?$AAt?$AAn?$AA?9?$AAZ?$AAA?$AA?$AA@ 000000018003c740     libucrt:lcidtoname_downlevel.obj
 0002:00004750       ??_C@_1M@IIJCOJFA@?$AAx?$AAh?$AA?9?$AAZ?$AAA?$AA?$AA@ 000000018003c750     libucrt:lcidtoname_downlevel.obj
 0002:00004760       ??_C@_1M@LGPJHNJH@?$AAz?$AAu?$AA?9?$AAZ?$AAA?$AA?$AA@ 000000018003c760     libucrt:lcidtoname_downlevel.obj
 0002:00004770       ??_C@_1M@HOKAOIO@?$AAa?$AAf?$AA?9?$AAZ?$AAA?$AA?$AA@ 000000018003c770     libucrt:lcidtoname_downlevel.obj
 0002:00004780       ??_C@_1M@DPCLHLIE@?$AAk?$AAa?$AA?9?$AAG?$AAE?$AA?$AA@ 000000018003c780     libucrt:lcidtoname_downlevel.obj
 0002:00004790       ??_C@_1M@BLKMHJBI@?$AAf?$AAo?$AA?9?$AAF?$AAO?$AA?$AA@ 000000018003c790     libucrt:lcidtoname_downlevel.obj
 0002:000047a0       ??_C@_1M@LGGJAPPB@?$AAh?$AAi?$AA?9?$AAI?$AAN?$AA?$AA@ 000000018003c7a0     libucrt:lcidtoname_downlevel.obj
 0002:000047b0       ??_C@_1M@FIKPIHFE@?$AAm?$AAt?$AA?9?$AAM?$AAT?$AA?$AA@ 000000018003c7b0     libucrt:lcidtoname_downlevel.obj
 0002:000047c0       ??_C@_1M@HEGGPBFA@?$AAs?$AAe?$AA?9?$AAN?$AAO?$AA?$AA@ 000000018003c7c0     libucrt:lcidtoname_downlevel.obj
 0002:000047d0       ??_C@_1M@EIBJEEPA@?$AAm?$AAs?$AA?9?$AAM?$AAY?$AA?$AA@ 000000018003c7d0     libucrt:lcidtoname_downlevel.obj
 0002:000047e0       ??_C@_1M@FHLBGMPP@?$AAk?$AAk?$AA?9?$AAK?$AAZ?$AA?$AA@ 000000018003c7e0     libucrt:lcidtoname_downlevel.obj
 0002:000047f0       ??_C@_1M@NGJJLCGI@?$AAk?$AAy?$AA?9?$AAK?$AAG?$AA?$AA@ 000000018003c7f0     libucrt:lcidtoname_downlevel.obj
 0002:00004800       ??_C@_1M@GIENNBFC@?$AAs?$AAw?$AA?9?$AAK?$AAE?$AA?$AA@ 000000018003c800     libucrt:lcidtoname_downlevel.obj
 0002:00004810       ??_C@_1BG@NDGMJIMJ@?$AAu?$AAz?$AA?9?$AAU?$AAZ?$AA?9?$AAL?$AAa?$AAt?$AAn?$AA?$AA@ 000000018003c810     libucrt:lcidtoname_downlevel.obj
 0002:00004828       ??_C@_1M@IDCCIHBC@?$AAt?$AAt?$AA?9?$AAR?$AAU?$AA?$AA@ 000000018003c828     libucrt:lcidtoname_downlevel.obj
 0002:00004838       ??_C@_1M@LOICPMOJ@?$AAb?$AAn?$AA?9?$AAI?$AAN?$AA?$AA@ 000000018003c838     libucrt:lcidtoname_downlevel.obj
 0002:00004848       ??_C@_1M@KPKKNEAH@?$AAp?$AAa?$AA?9?$AAI?$AAN?$AA?$AA@ 000000018003c848     libucrt:lcidtoname_downlevel.obj
 0002:00004858       ??_C@_1M@PJGPPBOG@?$AAg?$AAu?$AA?9?$AAI?$AAN?$AA?$AA@ 000000018003c858     libucrt:lcidtoname_downlevel.obj
 0002:00004868       ??_C@_1M@KMKMOPHI@?$AAt?$AAa?$AA?9?$AAI?$AAN?$AA?$AA@ 000000018003c868     libucrt:lcidtoname_downlevel.obj
 0002:00004878       ??_C@_1M@KFEHEPAC@?$AAt?$AAe?$AA?9?$AAI?$AAN?$AA?$AA@ 000000018003c878     libucrt:lcidtoname_downlevel.obj
 0002:00004888       ??_C@_1M@CDCLMGHI@?$AAk?$AAn?$AA?9?$AAI?$AAN?$AA?$AA@ 000000018003c888     libucrt:lcidtoname_downlevel.obj
 0002:00004898       ??_C@_1M@MIODLDKF@?$AAm?$AAl?$AA?9?$AAI?$AAN?$AA?$AA@ 000000018003c898     libucrt:lcidtoname_downlevel.obj
 0002:000048a8       ??_C@_1M@PBIEACPO@?$AAm?$AAr?$AA?9?$AAI?$AAN?$AA?$AA@ 000000018003c8a8     libucrt:lcidtoname_downlevel.obj
 0002:000048b8       ??_C@_1M@NIDEAGPH@?$AAs?$AAa?$AA?9?$AAI?$AAN?$AA?$AA@ 000000018003c8b8     libucrt:lcidtoname_downlevel.obj
 0002:000048c8       ??_C@_1M@FHIHCBIO@?$AAm?$AAn?$AA?9?$AAM?$AAN?$AA?$AA@ 000000018003c8c8     libucrt:lcidtoname_downlevel.obj
 0002:000048d8       ??_C@_1M@JAIJPENP@?$AAc?$AAy?$AA?9?$AAG?$AAB?$AA?$AA@ 000000018003c8d8     libucrt:lcidtoname_downlevel.obj
 0002:000048e8       ??_C@_1M@PHGFBEPN@?$AAg?$AAl?$AA?9?$AAE?$AAS?$AA?$AA@ 000000018003c8e8     libucrt:lcidtoname_downlevel.obj
 0002:000048f8       ??_C@_1O@KPIPDNCP@?$AAk?$AAo?$AAk?$AA?9?$AAI?$AAN?$AA?$AA@ 000000018003c8f8     libucrt:lcidtoname_downlevel.obj
 0002:00004908       ??_C@_1O@KNHJLDJA@?$AAs?$AAy?$AAr?$AA?9?$AAS?$AAY?$AA?$AA@ 000000018003c908     libucrt:lcidtoname_downlevel.obj
 0002:00004918       ??_C@_1O@MKEKBLAH@?$AAd?$AAi?$AAv?$AA?9?$AAM?$AAV?$AA?$AA@ 000000018003c918     libucrt:lcidtoname_downlevel.obj
 0002:00004928       ??_C@_1O@OHDCKDDF@?$AAq?$AAu?$AAz?$AA?9?$AAB?$AAO?$AA?$AA@ 000000018003c928     libucrt:lcidtoname_downlevel.obj
 0002:00004938       ??_C@_1M@LEPJNLFD@?$AAn?$AAs?$AA?9?$AAZ?$AAA?$AA?$AA@ 000000018003c938     libucrt:lcidtoname_downlevel.obj
 0002:00004948       ??_C@_1M@OMLEIIJB@?$AAm?$AAi?$AA?9?$AAN?$AAZ?$AA?$AA@ 000000018003c948     libucrt:lcidtoname_downlevel.obj
 0002:00004958       ??_C@_1M@PMPEAILG@?$AAa?$AAr?$AA?9?$AAI?$AAQ?$AA?$AA@ 000000018003c958     libucrt:lcidtoname_downlevel.obj
 0002:00004968       ??_C@_1M@CNKPNOEE@?$AAd?$AAe?$AA?9?$AAC?$AAH?$AA?$AA@ 000000018003c968     libucrt:lcidtoname_downlevel.obj
 0002:00004978       ??_C@_1M@LKMGMLKO@?$AAe?$AAn?$AA?9?$AAG?$AAB?$AA?$AA@ 000000018003c978     libucrt:lcidtoname_downlevel.obj
 0002:00004988       ??_C@_1M@PGKJFFGL@?$AAe?$AAs?$AA?9?$AAM?$AAX?$AA?$AA@ 000000018003c988     libucrt:lcidtoname_downlevel.obj
 0002:00004998       ??_C@_1M@DNNANBDC@?$AAf?$AAr?$AA?9?$AAB?$AAE?$AA?$AA@ 000000018003c998     libucrt:lcidtoname_downlevel.obj
 0002:000049a8       ??_C@_1M@HLGMDFHM@?$AAi?$AAt?$AA?9?$AAC?$AAH?$AA?$AA@ 000000018003c9a8     libucrt:lcidtoname_downlevel.obj
 0002:000049b8       ??_C@_1M@CLLBGJH@?$AAn?$AAl?$AA?9?$AAB?$AAE?$AA?$AA@ 000000018003c9b8     libucrt:lcidtoname_downlevel.obj
 0002:000049c8       ??_C@_1M@BODBOGLF@?$AAn?$AAn?$AA?9?$AAN?$AAO?$AA?$AA@ 000000018003c9c8     libucrt:lcidtoname_downlevel.obj
 0002:000049d8       ??_C@_1M@HFFAHKAD@?$AAp?$AAt?$AA?9?$AAP?$AAT?$AA?$AA@ 000000018003c9d8     libucrt:lcidtoname_downlevel.obj
 0002:000049e8       ??_C@_1BG@LNOAKHIE@?$AAs?$AAr?$AA?9?$AAS?$AAP?$AA?9?$AAL?$AAa?$AAt?$AAn?$AA?$AA@ 000000018003c9e8     libucrt:lcidtoname_downlevel.obj
 0002:00004a00       ??_C@_1M@HBMHBGAK@?$AAs?$AAv?$AA?9?$AAF?$AAI?$AA?$AA@ 000000018003ca00     libucrt:lcidtoname_downlevel.obj
 0002:00004a10       ??_C@_1BG@DGCJGJBE@?$AAa?$AAz?$AA?9?$AAA?$AAZ?$AA?9?$AAC?$AAy?$AAr?$AAl?$AA?$AA@ 000000018003ca10     libucrt:lcidtoname_downlevel.obj
 0002:00004a28       ??_C@_1M@KEJDAAHB@?$AAs?$AAe?$AA?9?$AAS?$AAE?$AA?$AA@ 000000018003ca28     libucrt:lcidtoname_downlevel.obj
 0002:00004a38       ??_C@_1M@HEIBJJAD@?$AAm?$AAs?$AA?9?$AAB?$AAN?$AA?$AA@ 000000018003ca38     libucrt:lcidtoname_downlevel.obj
 0002:00004a48       ??_C@_1BG@PBGJMCEM@?$AAu?$AAz?$AA?9?$AAU?$AAZ?$AA?9?$AAC?$AAy?$AAr?$AAl?$AA?$AA@ 000000018003ca48     libucrt:lcidtoname_downlevel.obj
 0002:00004a60       ??_C@_1O@LAOBCMDF@?$AAq?$AAu?$AAz?$AA?9?$AAE?$AAC?$AA?$AA@ 000000018003ca60     libucrt:lcidtoname_downlevel.obj
 0002:00004a70       ??_C@_1M@POEEMAIO@?$AAa?$AAr?$AA?9?$AAE?$AAG?$AA?$AA@ 000000018003ca70     libucrt:lcidtoname_downlevel.obj
 0002:00004a80       ??_C@_1M@EFAKDEDL@?$AAz?$AAh?$AA?9?$AAH?$AAK?$AA?$AA@ 000000018003ca80     libucrt:lcidtoname_downlevel.obj
 0002:00004a90       ??_C@_1M@HKKIJHGI@?$AAd?$AAe?$AA?9?$AAA?$AAT?$AA?$AA@ 000000018003ca90     libucrt:lcidtoname_downlevel.obj
 0002:00004aa0       ??_C@_1M@KBFBEHJF@?$AAe?$AAn?$AA?9?$AAA?$AAU?$AA?$AA@ 000000018003caa0     libucrt:lcidtoname_downlevel.obj
 0002:00004ab0       ??_C@_1M@MNPLFAAH@?$AAe?$AAs?$AA?9?$AAE?$AAS?$AA?$AA@ 000000018003cab0     libucrt:lcidtoname_downlevel.obj
 0002:00004ac0       ??_C@_1M@HJOOJFMA@?$AAf?$AAr?$AA?9?$AAC?$AAA?$AA?$AA@ 000000018003cac0     libucrt:lcidtoname_downlevel.obj
 0002:00004ad0       ??_C@_1BG@JPOFPNAB@?$AAs?$AAr?$AA?9?$AAS?$AAP?$AA?9?$AAC?$AAy?$AAr?$AAl?$AA?$AA@ 000000018003cad0     libucrt:lcidtoname_downlevel.obj
 0002:00004ae8       ??_C@_1M@LNFOCMOB@?$AAs?$AAe?$AA?9?$AAF?$AAI?$AA?$AA@ 000000018003cae8     libucrt:lcidtoname_downlevel.obj
 0002:00004af8       ??_C@_1O@MGJBOAMB@?$AAq?$AAu?$AAz?$AA?9?$AAP?$AAE?$AA?$AA@ 000000018003caf8     libucrt:lcidtoname_downlevel.obj
 0002:00004b08       ??_C@_1M@GJINLBOK@?$AAa?$AAr?$AA?9?$AAL?$AAY?$AA?$AA@ 000000018003cb08     libucrt:lcidtoname_downlevel.obj
 0002:00004b18       ??_C@_1M@GGMNHJNL@?$AAz?$AAh?$AA?9?$AAS?$AAG?$AA?$AA@ 000000018003cb18     libucrt:lcidtoname_downlevel.obj
 0002:00004b28       ??_C@_1M@HOIKODND@?$AAd?$AAe?$AA?9?$AAL?$AAU?$AA?$AA@ 000000018003cb28     libucrt:lcidtoname_downlevel.obj
 0002:00004b38       ??_C@_1M@DDOCCGFG@?$AAe?$AAn?$AA?9?$AAC?$AAA?$AA?$AA@ 000000018003cb38     libucrt:lcidtoname_downlevel.obj
 0002:00004b48       ??_C@_1M@BNOEMJLF@?$AAe?$AAs?$AA?9?$AAG?$AAT?$AA?$AA@ 000000018003cb48     libucrt:lcidtoname_downlevel.obj
 0002:00004b58       ??_C@_1M@EOGNKEK@?$AAf?$AAr?$AA?9?$AAC?$AAH?$AA?$AA@ 000000018003cb58     libucrt:lcidtoname_downlevel.obj
 0002:00004b68       ??_C@_1M@FLIDJFHL@?$AAh?$AAr?$AA?9?$AAB?$AAA?$AA?$AA@ 000000018003cb68     libucrt:lcidtoname_downlevel.obj
 0002:00004b78       ??_C@_1O@FMCELNAJ@?$AAs?$AAm?$AAj?$AA?9?$AAN?$AAO?$AA?$AA@ 000000018003cb78     libucrt:lcidtoname_downlevel.obj
 0002:00004b88       ??_C@_1M@JHGLJMGJ@?$AAa?$AAr?$AA?9?$AAD?$AAZ?$AA?$AA@ 000000018003cb88     libucrt:lcidtoname_downlevel.obj
 0002:00004b98       ??_C@_1M@JKKFDCNP@?$AAz?$AAh?$AA?9?$AAM?$AAO?$AA?$AA@ 000000018003cb98     libucrt:lcidtoname_downlevel.obj
 0002:00004ba8       ??_C@_1M@GEEFALPE@?$AAd?$AAe?$AA?9?$AAL?$AAI?$AA?$AA@ 000000018003cba8     libucrt:lcidtoname_downlevel.obj
 0002:00004bb8       ??_C@_1M@IGEOFBG@?$AAe?$AAn?$AA?9?$AAN?$AAZ?$AA?$AA@ 000000018003cbb8     libucrt:lcidtoname_downlevel.obj
 0002:00004bc8       ??_C@_1M@KDBONEHP@?$AAe?$AAs?$AA?9?$AAC?$AAR?$AA?$AA@ 000000018003cbc8     libucrt:lcidtoname_downlevel.obj
 0002:00004bd8       ??_C@_1M@FHMDOHNN@?$AAf?$AAr?$AA?9?$AAL?$AAU?$AA?$AA@ 000000018003cbd8     libucrt:lcidtoname_downlevel.obj
 0002:00004be8       ??_C@_1BG@NFKKMAFG@?$AAb?$AAs?$AA?9?$AAB?$AAA?$AA?9?$AAL?$AAa?$AAt?$AAn?$AA?$AA@ 000000018003cbe8     libucrt:lcidtoname_downlevel.obj
 0002:00004c00       ??_C@_1O@IMNBEMCI@?$AAs?$AAm?$AAj?$AA?9?$AAS?$AAE?$AA?$AA@ 000000018003cc00     libucrt:lcidtoname_downlevel.obj
 0002:00004c10       ??_C@_1M@DHHMBNDP@?$AAa?$AAr?$AA?9?$AAM?$AAA?$AA?$AA@ 000000018003cc10     libucrt:lcidtoname_downlevel.obj
 0002:00004c20       ??_C@_1M@BNBLJCGH@?$AAe?$AAn?$AA?9?$AAI?$AAE?$AA?$AA@ 000000018003cc20     libucrt:lcidtoname_downlevel.obj
 0002:00004c30       ??_C@_1M@GEPAFMDL@?$AAe?$AAs?$AA?9?$AAP?$AAA?$AA?$AA@ 000000018003cc30     libucrt:lcidtoname_downlevel.obj
 0002:00004c40       ??_C@_1M@OJONDMDL@?$AAf?$AAr?$AA?9?$AAM?$AAC?$AA?$AA@ 000000018003cc40     libucrt:lcidtoname_downlevel.obj
 0002:00004c50       ??_C@_1BG@OBCNFJB@?$AAs?$AAr?$AA?9?$AAB?$AAA?$AA?9?$AAL?$AAa?$AAt?$AAn?$AA?$AA@ 000000018003cc50     libucrt:lcidtoname_downlevel.obj
 0002:00004c68       ??_C@_1O@KEMEEGPO@?$AAs?$AAm?$AAa?$AA?9?$AAN?$AAO?$AA?$AA@ 000000018003cc68     libucrt:lcidtoname_downlevel.obj
 0002:00004c78       ??_C@_1M@ELMGFODK@?$AAa?$AAr?$AA?9?$AAT?$AAN?$AA?$AA@ 000000018003cc78     libucrt:lcidtoname_downlevel.obj
 0002:00004c88       ??_C@_1M@BHDLHFAF@?$AAe?$AAn?$AA?9?$AAZ?$AAA?$AA?$AA@ 000000018003cc88     libucrt:lcidtoname_downlevel.obj
 0002:00004c98       ??_C@_1M@BMGIGLIF@?$AAe?$AAs?$AA?9?$AAD?$AAO?$AA?$AA@ 000000018003cc98     libucrt:lcidtoname_downlevel.obj
 0002:00004ca8       ??_C@_1BG@CMBHIPBE@?$AAs?$AAr?$AA?9?$AAB?$AAA?$AA?9?$AAC?$AAy?$AAr?$AAl?$AA?$AA@ 000000018003cca8     libucrt:lcidtoname_downlevel.obj
 0002:00004cc0       ??_C@_1O@HEDBLHNP@?$AAs?$AAm?$AAa?$AA?9?$AAS?$AAE?$AA?$AA@ 000000018003ccc0     libucrt:lcidtoname_downlevel.obj
 0002:00004cd0       ??_C@_1M@DAGCADIM@?$AAa?$AAr?$AA?9?$AAO?$AAM?$AA?$AA@ 000000018003ccd0     libucrt:lcidtoname_downlevel.obj
 0002:00004ce0       ??_C@_1M@FODLMICG@?$AAe?$AAn?$AA?9?$AAJ?$AAM?$AA?$AA@ 000000018003cce0     libucrt:lcidtoname_downlevel.obj
 0002:00004cf0       ??_C@_1M@DNMLCIHB@?$AAe?$AAs?$AA?9?$AAV?$AAE?$AA?$AA@ 000000018003ccf0     libucrt:lcidtoname_downlevel.obj
 0002:00004d00       ??_C@_1O@EOKHMKJK@?$AAs?$AAm?$AAs?$AA?9?$AAF?$AAI?$AA?$AA@ 000000018003cd00     libucrt:lcidtoname_downlevel.obj
 0002:00004d10       ??_C@_1M@CAFJMKOF@?$AAa?$AAr?$AA?9?$AAY?$AAE?$AA?$AA@ 000000018003cd10     libucrt:lcidtoname_downlevel.obj
 0002:00004d20       ??_C@_1M@CBFHIJLI@?$AAe?$AAn?$AA?9?$AAC?$AAB?$AA?$AA@ 000000018003cd20     libucrt:lcidtoname_downlevel.obj
 0002:00004d30       ??_C@_1M@BGNFLDN@?$AAe?$AAs?$AA?9?$AAC?$AAO?$AA?$AA@ 000000018003cd30     libucrt:lcidtoname_downlevel.obj
 0002:00004d40       ??_C@_1O@JMPHMAMC@?$AAs?$AAm?$AAn?$AA?9?$AAF?$AAI?$AA?$AA@ 000000018003cd40     libucrt:lcidtoname_downlevel.obj
 0002:00004d50       ??_C@_1M@JLANABKE@?$AAa?$AAr?$AA?9?$AAS?$AAY?$AA?$AA@ 000000018003cd50     libucrt:lcidtoname_downlevel.obj
 0002:00004d60       ??_C@_1M@HPKGCFGN@?$AAe?$AAn?$AA?9?$AAB?$AAZ?$AA?$AA@ 000000018003cd60     libucrt:lcidtoname_downlevel.obj
 0002:00004d70       ??_C@_1M@OLJCMLGM@?$AAe?$AAs?$AA?9?$AAP?$AAE?$AA?$AA@ 000000018003cd70     libucrt:lcidtoname_downlevel.obj
 0002:00004d80       ??_C@_1M@MKKGFKLE@?$AAa?$AAr?$AA?9?$AAJ?$AAO?$AA?$AA@ 000000018003cd80     libucrt:lcidtoname_downlevel.obj
 0002:00004d90       ??_C@_1M@EKPGLDNI@?$AAe?$AAn?$AA?9?$AAT?$AAT?$AA?$AA@ 000000018003cd90     libucrt:lcidtoname_downlevel.obj
 0002:00004da0       ??_C@_1M@OONGHFHE@?$AAe?$AAs?$AA?9?$AAA?$AAR?$AA?$AA@ 000000018003cda0     libucrt:lcidtoname_downlevel.obj
 0002:00004db0       ??_C@_1M@OOJFGBHE@?$AAa?$AAr?$AA?9?$AAL?$AAB?$AA?$AA@ 000000018003cdb0     libucrt:lcidtoname_downlevel.obj
 0002:00004dc0       ??_C@_1M@GCEJHNEG@?$AAe?$AAn?$AA?9?$AAZ?$AAW?$AA?$AA@ 000000018003cdc0     libucrt:lcidtoname_downlevel.obj
 0002:00004dd0       ??_C@_1M@JNOCAHJI@?$AAe?$AAs?$AA?9?$AAE?$AAC?$AA?$AA@ 000000018003cdd0     libucrt:lcidtoname_downlevel.obj
 0002:00004de0       ??_C@_1M@JEFHPGGB@?$AAa?$AAr?$AA?9?$AAK?$AAW?$AA?$AA@ 000000018003cde0     libucrt:lcidtoname_downlevel.obj
 0002:00004df0       ??_C@_1M@MLKIBJOJ@?$AAe?$AAn?$AA?9?$AAP?$AAH?$AA?$AA@ 000000018003cdf0     libucrt:lcidtoname_downlevel.obj
 0002:00004e00       ??_C@_1M@BDNIPEND@?$AAe?$AAs?$AA?9?$AAC?$AAL?$AA?$AA@ 000000018003ce00     libucrt:lcidtoname_downlevel.obj
 0002:00004e10       ??_C@_1M@MPNMEKBD@?$AAa?$AAr?$AA?9?$AAA?$AAE?$AA?$AA@ 000000018003ce10     libucrt:lcidtoname_downlevel.obj
 0002:00004e20       ??_C@_1M@KBJALCPI@?$AAe?$AAs?$AA?9?$AAU?$AAY?$AA?$AA@ 000000018003ce20     libucrt:lcidtoname_downlevel.obj
 0002:00004e30       ??_C@_1M@LLCCOAGA@?$AAa?$AAr?$AA?9?$AAB?$AAH?$AA?$AA@ 000000018003ce30     libucrt:lcidtoname_downlevel.obj
 0002:00004e40       ??_C@_1M@PBFNCDEL@?$AAe?$AAs?$AA?9?$AAP?$AAY?$AA?$AA@ 000000018003ce40     libucrt:lcidtoname_downlevel.obj
 0002:00004e50       ??_C@_1M@EDGINPNP@?$AAa?$AAr?$AA?9?$AAQ?$AAA?$AA?$AA@ 000000018003ce50     libucrt:lcidtoname_downlevel.obj
 0002:00004e60       ??_C@_1M@MKDBIIJI@?$AAe?$AAs?$AA?9?$AAB?$AAO?$AA?$AA@ 000000018003ce60     libucrt:lcidtoname_downlevel.obj
 0002:00004e70       ??_C@_1M@CPKKEBLD@?$AAe?$AAs?$AA?9?$AAS?$AAV?$AA?$AA@ 000000018003ce70     libucrt:lcidtoname_downlevel.obj
 0002:00004e80       ??_C@_1M@NDBGMMJL@?$AAe?$AAs?$AA?9?$AAH?$AAN?$AA?$AA@ 000000018003ce80     libucrt:lcidtoname_downlevel.obj
 0002:00004e90       ??_C@_1M@JIJIBHDP@?$AAe?$AAs?$AA?9?$AAN?$AAI?$AA?$AA@ 000000018003ce90     libucrt:lcidtoname_downlevel.obj
 0002:00004ea0       ??_C@_1M@CGFMKEEK@?$AAe?$AAs?$AA?9?$AAP?$AAR?$AA?$AA@ 000000018003cea0     libucrt:lcidtoname_downlevel.obj
 0002:00004eb0       ??_C@_1O@ICJHKIIK@?$AAz?$AAh?$AA?9?$AAC?$AAH?$AAT?$AA?$AA@ 000000018003ceb0     libucrt:lcidtoname_downlevel.obj
 0002:00004ec0       ??_C@_15CLNEJCE@?$AAs?$AAr?$AA?$AA@ 000000018003cec0     libucrt:lcidtoname_downlevel.obj
 0002:00005d10       ??_C@_1M@KAHEKEIG@?$AAa?$AAf?$AA?9?$AAz?$AAa?$AA?$AA@ 000000018003dd10     libucrt:lcidtoname_downlevel.obj
 0002:00005d20       ??_C@_1M@GIECOABL@?$AAa?$AAr?$AA?9?$AAa?$AAe?$AA?$AA@ 000000018003dd20     libucrt:lcidtoname_downlevel.obj
 0002:00005d30       ??_C@_1M@BMLMEKGI@?$AAa?$AAr?$AA?9?$AAb?$AAh?$AA?$AA@ 000000018003dd30     libucrt:lcidtoname_downlevel.obj
 0002:00005d40       ??_C@_1M@DAPFDGGB@?$AAa?$AAr?$AA?9?$AAd?$AAz?$AA?$AA@ 000000018003dd40     libucrt:lcidtoname_downlevel.obj
 0002:00005d50       ??_C@_1M@FJNKGKIG@?$AAa?$AAr?$AA?9?$AAe?$AAg?$AA?$AA@ 000000018003dd50     libucrt:lcidtoname_downlevel.obj
 0002:00005d60       ??_C@_1M@FLGKKCLO@?$AAa?$AAr?$AA?9?$AAi?$AAq?$AA?$AA@ 000000018003dd60     libucrt:lcidtoname_downlevel.obj
 0002:00005d70       ??_C@_1M@GNDIPALM@?$AAa?$AAr?$AA?9?$AAj?$AAo?$AA?$AA@ 000000018003dd70     libucrt:lcidtoname_downlevel.obj
 0002:00005d80       ??_C@_1M@DDMJFMGJ@?$AAa?$AAr?$AA?9?$AAk?$AAw?$AA?$AA@ 000000018003dd80     libucrt:lcidtoname_downlevel.obj
 0002:00005d90       ??_C@_1M@EJALMLHM@?$AAa?$AAr?$AA?9?$AAl?$AAb?$AA?$AA@ 000000018003dd90     libucrt:lcidtoname_downlevel.obj
 0002:00005da0       ??_C@_1M@MOBDBLOC@?$AAa?$AAr?$AA?9?$AAl?$AAy?$AA?$AA@ 000000018003dda0     libucrt:lcidtoname_downlevel.obj
 0002:00005db0       ??_C@_1M@JAOCLHDH@?$AAa?$AAr?$AA?9?$AAm?$AAa?$AA?$AA@ 000000018003ddb0     libucrt:lcidtoname_downlevel.obj
 0002:00005dc0       ??_C@_1M@JHPMKJIE@?$AAa?$AAr?$AA?9?$AAo?$AAm?$AA?$AA@ 000000018003ddc0     libucrt:lcidtoname_downlevel.obj
 0002:00005dd0       ??_C@_1M@OEPGHFNH@?$AAa?$AAr?$AA?9?$AAq?$AAa?$AA?$AA@ 000000018003ddd0     libucrt:lcidtoname_downlevel.obj
 0002:00005de0       ??_C@_1M@KJDONENM@?$AAa?$AAr?$AA?9?$AAs?$AAa?$AA?$AA@ 000000018003dde0     libucrt:lcidtoname_downlevel.obj
 0002:00005df0       ??_C@_1M@DMJDKLKM@?$AAa?$AAr?$AA?9?$AAs?$AAy?$AA?$AA@ 000000018003ddf0     libucrt:lcidtoname_downlevel.obj
 0002:00005e00       ??_C@_1M@OMFIPEDC@?$AAa?$AAr?$AA?9?$AAt?$AAn?$AA?$AA@ 000000018003de00     libucrt:lcidtoname_downlevel.obj
 0002:00005e10       ??_C@_1M@IHMHGAON@?$AAa?$AAr?$AA?9?$AAy?$AAe?$AA?$AA@ 000000018003de10     libucrt:lcidtoname_downlevel.obj
 0002:00005e20       ??_C@_1BG@KDCPGJGB@?$AAa?$AAz?$AA?9?$AAa?$AAz?$AA?9?$AAc?$AAy?$AAr?$AAl?$AA?$AA@ 000000018003de20     libucrt:lcidtoname_downlevel.obj
 0002:00005e38       ??_C@_1BG@IBCKDDOE@?$AAa?$AAz?$AA?9?$AAa?$AAz?$AA?9?$AAl?$AAa?$AAt?$AAn?$AA?$AA@ 000000018003de38     libucrt:lcidtoname_downlevel.obj
 0002:00005e50       ??_C@_1M@EGPFDCPD@?$AAb?$AAe?$AA?9?$AAb?$AAy?$AA?$AA@ 000000018003de50     libucrt:lcidtoname_downlevel.obj
 0002:00005e60       ??_C@_1M@PCMGMCGC@?$AAb?$AAg?$AA?9?$AAb?$AAg?$AA?$AA@ 000000018003de60     libucrt:lcidtoname_downlevel.obj
 0002:00005e70       ??_C@_1M@BJBMFGOB@?$AAb?$AAn?$AA?9?$AAi?$AAn?$AA?$AA@ 000000018003de70     libucrt:lcidtoname_downlevel.obj
 0002:00005e80       ??_C@_1BG@EAKMMACD@?$AAb?$AAs?$AA?9?$AAb?$AAa?$AA?9?$AAl?$AAa?$AAt?$AAn?$AA?$AA@ 000000018003de80     libucrt:lcidtoname_downlevel.obj
 0002:00005e98       ??_C@_1M@KGADAODK@?$AAc?$AAa?$AA?9?$AAe?$AAs?$AA?$AA@ 000000018003de98     libucrt:lcidtoname_downlevel.obj
 0002:00005ea8       ??_C@_1M@COAJPDHI@?$AAc?$AAs?$AA?9?$AAc?$AAz?$AA?$AA@ 000000018003dea8     libucrt:lcidtoname_downlevel.obj
 0002:00005eb8       ??_C@_1M@DHBHFONH@?$AAc?$AAy?$AA?9?$AAg?$AAb?$AA?$AA@ 000000018003deb8     libucrt:lcidtoname_downlevel.obj
 0002:00005ec8       ??_C@_1M@IMGKELGA@?$AAd?$AAa?$AA?9?$AAd?$AAk?$AA?$AA@ 000000018003dec8     libucrt:lcidtoname_downlevel.obj
 0002:00005ed8       ??_C@_1M@NNDGDNGA@?$AAd?$AAe?$AA?9?$AAa?$AAt?$AA?$AA@ 000000018003ded8     libucrt:lcidtoname_downlevel.obj
 0002:00005ee8       ??_C@_1M@IKDBHEEM@?$AAd?$AAe?$AA?9?$AAc?$AAh?$AA?$AA@ 000000018003dee8     libucrt:lcidtoname_downlevel.obj
 0002:00005ef8       ??_C@_1M@GFFOJMCJ@?$AAd?$AAe?$AA?9?$AAd?$AAe?$AA?$AA@ 000000018003def8     libucrt:lcidtoname_downlevel.obj
 0002:00005f08       ??_C@_1M@MDNLKBPM@?$AAd?$AAe?$AA?9?$AAl?$AAi?$AA?$AA@ 000000018003df08     libucrt:lcidtoname_downlevel.obj
 0002:00005f18       ??_C@_1M@NJBEEJNL@?$AAd?$AAe?$AA?9?$AAl?$AAu?$AA?$AA@ 000000018003df18     libucrt:lcidtoname_downlevel.obj
 0002:00005f28       ??_C@_1O@GNNELBAP@?$AAd?$AAi?$AAv?$AA?9?$AAm?$AAv?$AA?$AA@ 000000018003df28     libucrt:lcidtoname_downlevel.obj
 0002:00005f38       ??_C@_1M@EJLEOGAE@?$AAe?$AAl?$AA?9?$AAg?$AAr?$AA?$AA@ 000000018003df38     libucrt:lcidtoname_downlevel.obj
 0002:00005f48       ??_C@_1M@GMPONJN@?$AAe?$AAn?$AA?9?$AAa?$AAu?$AA?$AA@ 000000018003df48     libucrt:lcidtoname_downlevel.obj
 0002:00005f58       ??_C@_1M@NIDIIPGF@?$AAe?$AAn?$AA?9?$AAb?$AAz?$AA?$AA@ 000000018003df58     libucrt:lcidtoname_downlevel.obj
 0002:00005f68       ??_C@_1M@JEHMIMFO@?$AAe?$AAn?$AA?9?$AAc?$AAa?$AA?$AA@ 000000018003df68     libucrt:lcidtoname_downlevel.obj
 0002:00005f78       ??_C@_1M@IGMJCDLA@?$AAe?$AAn?$AA?9?$AAc?$AAb?$AA?$AA@ 000000018003df78     libucrt:lcidtoname_downlevel.obj
 0002:00005f88       ??_C@_1M@BNFIGBKG@?$AAe?$AAn?$AA?9?$AAg?$AAb?$AA?$AA@ 000000018003df88     libucrt:lcidtoname_downlevel.obj
 0002:00005f98       ??_C@_1M@LKIFDIGP@?$AAe?$AAn?$AA?9?$AAi?$AAe?$AA?$AA@ 000000018003df98     libucrt:lcidtoname_downlevel.obj
 0002:00005fa8       ??_C@_1M@PJKFGCCO@?$AAe?$AAn?$AA?9?$AAj?$AAm?$AA?$AA@ 000000018003dfa8     libucrt:lcidtoname_downlevel.obj
 0002:00005fb8       ??_C@_1M@KPPKEPBO@?$AAe?$AAn?$AA?9?$AAn?$AAz?$AA?$AA@ 000000018003dfb8     libucrt:lcidtoname_downlevel.obj
 0002:00005fc8       ??_C@_1M@GMDGLDOB@?$AAe?$AAn?$AA?9?$AAp?$AAh?$AA?$AA@ 000000018003dfc8     libucrt:lcidtoname_downlevel.obj
 0002:00005fd8       ??_C@_1M@ONGIBJNA@?$AAe?$AAn?$AA?9?$AAt?$AAt?$AA?$AA@ 000000018003dfd8     libucrt:lcidtoname_downlevel.obj
 0002:00005fe8       ??_C@_1M@LLODPCMM@?$AAe?$AAn?$AA?9?$AAu?$AAs?$AA?$AA@ 000000018003dfe8     libucrt:lcidtoname_downlevel.obj
 0002:00005ff8       ??_C@_1M@LAKFNPAN@?$AAe?$AAn?$AA?9?$AAz?$AAa?$AA?$AA@ 000000018003dff8     libucrt:lcidtoname_downlevel.obj
 0002:00006008       ??_C@_1M@MFNHNHEO@?$AAe?$AAn?$AA?9?$AAz?$AAw?$AA?$AA@ 000000018003e008     libucrt:lcidtoname_downlevel.obj
 0002:00006018       ??_C@_1M@EJEINPHM@?$AAe?$AAs?$AA?9?$AAa?$AAr?$AA?$AA@ 000000018003e018     libucrt:lcidtoname_downlevel.obj
 0002:00006028       ??_C@_1M@GNKPCCJA@?$AAe?$AAs?$AA?9?$AAb?$AAo?$AA?$AA@ 000000018003e028     libucrt:lcidtoname_downlevel.obj
 0002:00006038       ??_C@_1M@LEEGFONL@?$AAe?$AAs?$AA?9?$AAc?$AAl?$AA?$AA@ 000000018003e038     libucrt:lcidtoname_downlevel.obj
 0002:00006048       ??_C@_1M@KGPDPBDF@?$AAe?$AAs?$AA?9?$AAc?$AAo?$AA?$AA@ 000000018003e048     libucrt:lcidtoname_downlevel.obj
 0002:00006058       ??_C@_1M@EIAHOHH@?$AAe?$AAs?$AA?9?$AAc?$AAr?$AA?$AA@ 000000018003e058     libucrt:lcidtoname_downlevel.obj
 0002:00006068       ??_C@_1M@LLPGMBIN@?$AAe?$AAs?$AA?9?$AAd?$AAo?$AA?$AA@ 000000018003e068     libucrt:lcidtoname_downlevel.obj
 0002:00006078       ??_C@_1M@DKHMKNJA@?$AAe?$AAs?$AA?9?$AAe?$AAc?$AA?$AA@ 000000018003e078     libucrt:lcidtoname_downlevel.obj
 0002:00006088       ??_C@_1M@GKGFPKAP@?$AAe?$AAs?$AA?9?$AAe?$AAs?$AA?$AA@ 000000018003e088     libucrt:lcidtoname_downlevel.obj
 0002:00006098       ??_C@_1M@LKHKGDLN@?$AAe?$AAs?$AA?9?$AAg?$AAt?$AA?$AA@ 000000018003e098     libucrt:lcidtoname_downlevel.obj
 0002:000060a8       ??_C@_1M@HEIIGGJD@?$AAe?$AAs?$AA?9?$AAh?$AAn?$AA?$AA@ 000000018003e0a8     libucrt:lcidtoname_downlevel.obj
 0002:000060b8       ??_C@_1M@FBDHPPGD@?$AAe?$AAs?$AA?9?$AAm?$AAx?$AA?$AA@ 000000018003e0b8     libucrt:lcidtoname_downlevel.obj
 0002:000060c8       ??_C@_1M@DPAGLNDH@?$AAe?$AAs?$AA?9?$AAn?$AAi?$AA?$AA@ 000000018003e0c8     libucrt:lcidtoname_downlevel.obj
 0002:000060d8       ??_C@_1M@MDGOPGDD@?$AAe?$AAs?$AA?9?$AAp?$AAa?$AA?$AA@ 000000018003e0d8     libucrt:lcidtoname_downlevel.obj
 0002:000060e8       ??_C@_1M@EMAMGBGE@?$AAe?$AAs?$AA?9?$AAp?$AAe?$AA?$AA@ 000000018003e0e8     libucrt:lcidtoname_downlevel.obj
 0002:000060f8       ??_C@_1M@IBMCAOEC@?$AAe?$AAs?$AA?9?$AAp?$AAr?$AA?$AA@ 000000018003e0f8     libucrt:lcidtoname_downlevel.obj
 0002:00006108       ??_C@_1M@FGMDIJED@?$AAe?$AAs?$AA?9?$AAp?$AAy?$AA?$AA@ 000000018003e108     libucrt:lcidtoname_downlevel.obj
 0002:00006118       ??_C@_1M@IIDEOLLL@?$AAe?$AAs?$AA?9?$AAs?$AAv?$AA?$AA@ 000000018003e118     libucrt:lcidtoname_downlevel.obj
 0002:00006128       ??_C@_1M@GAOBIPA@?$AAe?$AAs?$AA?9?$AAu?$AAy?$AA?$AA@ 000000018003e128     libucrt:lcidtoname_downlevel.obj
 0002:00006138       ??_C@_1M@JKFFICHJ@?$AAe?$AAs?$AA?9?$AAv?$AAe?$AA?$AA@ 000000018003e138     libucrt:lcidtoname_downlevel.obj
 0002:00006148       ??_C@_1M@PNMLOJDF@?$AAe?$AAt?$AA?9?$AAe?$AAe?$AA?$AA@ 000000018003e148     libucrt:lcidtoname_downlevel.obj
 0002:00006158       ??_C@_1M@GHHLIKEI@?$AAe?$AAu?$AA?9?$AAe?$AAs?$AA?$AA@ 000000018003e158     libucrt:lcidtoname_downlevel.obj
 0002:00006168       ??_C@_1M@PBNONODE@?$AAf?$AAa?$AA?9?$AAi?$AAr?$AA?$AA@ 000000018003e168     libucrt:lcidtoname_downlevel.obj
 0002:00006178       ??_C@_1M@JEEHPMIL@?$AAf?$AAi?$AA?9?$AAf?$AAi?$AA?$AA@ 000000018003e178     libucrt:lcidtoname_downlevel.obj
 0002:00006188       ??_C@_1M@LMDCNDBA@?$AAf?$AAo?$AA?9?$AAf?$AAo?$AA?$AA@ 000000018003e188     libucrt:lcidtoname_downlevel.obj
 0002:00006198       ??_C@_1M@JKEOHLDK@?$AAf?$AAr?$AA?9?$AAb?$AAe?$AA?$AA@ 000000018003e198     libucrt:lcidtoname_downlevel.obj
 0002:000061a8       ??_C@_1M@NOHADPMI@?$AAf?$AAr?$AA?9?$AAc?$AAa?$AA?$AA@ 000000018003e1a8     libucrt:lcidtoname_downlevel.obj
 0002:000061b8       ??_C@_1M@KDHIHAEC@?$AAf?$AAr?$AA?9?$AAc?$AAh?$AA?$AA@ 000000018003e1b8     libucrt:lcidtoname_downlevel.obj
 0002:000061c8       ??_C@_1M@MMBBFGAK@?$AAf?$AAr?$AA?9?$AAf?$AAr?$AA?$AA@ 000000018003e1c8     libucrt:lcidtoname_downlevel.obj
 0002:000061d8       ??_C@_1M@PAFNENNF@?$AAf?$AAr?$AA?9?$AAl?$AAu?$AA?$AA@ 000000018003e1d8     libucrt:lcidtoname_downlevel.obj
 0002:000061e8       ??_C@_1M@EOHDJGDD@?$AAf?$AAr?$AA?9?$AAm?$AAc?$AA?$AA@ 000000018003e1e8     libucrt:lcidtoname_downlevel.obj
 0002:000061f8       ??_C@_1M@FAPLLOPF@?$AAg?$AAl?$AA?9?$AAe?$AAs?$AA?$AA@ 000000018003e1f8     libucrt:lcidtoname_downlevel.obj
 0002:00006208       ??_C@_1M@FOPBFLOO@?$AAg?$AAu?$AA?9?$AAi?$AAn?$AA?$AA@ 000000018003e208     libucrt:lcidtoname_downlevel.obj
 0002:00006218       ??_C@_1M@KBMCINPM@?$AAh?$AAe?$AA?9?$AAi?$AAl?$AA?$AA@ 000000018003e218     libucrt:lcidtoname_downlevel.obj
 0002:00006228       ??_C@_1M@BBPHKFPJ@?$AAh?$AAi?$AA?9?$AAi?$AAn?$AA?$AA@ 000000018003e228     libucrt:lcidtoname_downlevel.obj
 0002:00006238       ??_C@_1M@PMBNDPHD@?$AAh?$AAr?$AA?9?$AAb?$AAa?$AA?$AA@ 000000018003e238     libucrt:lcidtoname_downlevel.obj
 0002:00006248       ??_C@_1M@BPCKOEGE@?$AAh?$AAr?$AA?9?$AAh?$AAr?$AA?$AA@ 000000018003e248     libucrt:lcidtoname_downlevel.obj
 0002:00006258       ??_C@_1M@GACBMHKE@?$AAh?$AAu?$AA?9?$AAh?$AAu?$AA?$AA@ 000000018003e258     libucrt:lcidtoname_downlevel.obj
 0002:00006268       ??_C@_1M@MILPAJJC@?$AAh?$AAy?$AA?9?$AAa?$AAm?$AA?$AA@ 000000018003e268     libucrt:lcidtoname_downlevel.obj
 0002:00006278       ??_C@_1M@BABBICEC@?$AAi?$AAd?$AA?9?$AAi?$AAd?$AA?$AA@ 000000018003e278     libucrt:lcidtoname_downlevel.obj
 0002:00006288       ??_C@_1M@BIKNHHPF@?$AAi?$AAs?$AA?9?$AAi?$AAs?$AA?$AA@ 000000018003e288     libucrt:lcidtoname_downlevel.obj
 0002:00006298       ??_C@_1M@NMPCJPHE@?$AAi?$AAt?$AA?9?$AAc?$AAh?$AA?$AA@ 000000018003e298     libucrt:lcidtoname_downlevel.obj
 0002:000062a8       ??_C@_1M@GHKGFEDF@?$AAi?$AAt?$AA?9?$AAi?$AAt?$AA?$AA@ 000000018003e2a8     libucrt:lcidtoname_downlevel.obj
 0002:000062b8       ??_C@_1M@NIEJCJJA@?$AAj?$AAa?$AA?9?$AAj?$AAp?$AA?$AA@ 000000018003e2b8     libucrt:lcidtoname_downlevel.obj
 0002:000062c8       ??_C@_1M@JILFNBIM@?$AAk?$AAa?$AA?9?$AAg?$AAe?$AA?$AA@ 000000018003e2c8     libucrt:lcidtoname_downlevel.obj
 0002:000062d8       ??_C@_1M@PACPMGPH@?$AAk?$AAk?$AA?9?$AAk?$AAz?$AA?$AA@ 000000018003e2d8     libucrt:lcidtoname_downlevel.obj
 0002:000062e8       ??_C@_1M@IELFGMHA@?$AAk?$AAn?$AA?9?$AAi?$AAn?$AA?$AA@ 000000018003e2e8     libucrt:lcidtoname_downlevel.obj
 0002:000062f8       ??_C@_1O@IBBJHCH@?$AAk?$AAo?$AAk?$AA?9?$AAi?$AAn?$AA?$AA@ 000000018003e2f8     libucrt:lcidtoname_downlevel.obj
 0002:00006308       ??_C@_1M@DMHAEOGC@?$AAk?$AAo?$AA?9?$AAk?$AAr?$AA?$AA@ 000000018003e308     libucrt:lcidtoname_downlevel.obj
 0002:00006318       ??_C@_1M@HBAHBIGA@?$AAk?$AAy?$AA?9?$AAk?$AAg?$AA?$AA@ 000000018003e318     libucrt:lcidtoname_downlevel.obj
 0002:00006328       ??_C@_1M@KPMILCJG@?$AAl?$AAt?$AA?9?$AAl?$AAt?$AA?$AA@ 000000018003e328     libucrt:lcidtoname_downlevel.obj
 0002:00006338       ??_C@_1M@BDEKKCA@?$AAl?$AAv?$AA?9?$AAl?$AAv?$AA?$AA@ 000000018003e338     libucrt:lcidtoname_downlevel.obj
 0002:00006348       ??_C@_1M@ELCKCCJJ@?$AAm?$AAi?$AA?9?$AAn?$AAz?$AA?$AA@ 000000018003e348     libucrt:lcidtoname_downlevel.obj
 0002:00006358       ??_C@_1M@CBOOLAPA@?$AAm?$AAk?$AA?9?$AAm?$AAk?$AA?$AA@ 000000018003e358     libucrt:lcidtoname_downlevel.obj
 0002:00006368       ??_C@_1M@GPHNBJKN@?$AAm?$AAl?$AA?9?$AAi?$AAn?$AA?$AA@ 000000018003e368     libucrt:lcidtoname_downlevel.obj
 0002:00006378       ??_C@_1M@PABJILIG@?$AAm?$AAn?$AA?9?$AAm?$AAn?$AA?$AA@ 000000018003e378     libucrt:lcidtoname_downlevel.obj
 0002:00006388       ??_C@_1M@FGBKKIPG@?$AAm?$AAr?$AA?9?$AAi?$AAn?$AA?$AA@ 000000018003e388     libucrt:lcidtoname_downlevel.obj
 0002:00006398       ??_C@_1M@NDBPDDAL@?$AAm?$AAs?$AA?9?$AAb?$AAn?$AA?$AA@ 000000018003e398     libucrt:lcidtoname_downlevel.obj
 0002:000063a8       ??_C@_1M@OPIHOOPI@?$AAm?$AAs?$AA?9?$AAm?$AAy?$AA?$AA@ 000000018003e3a8     libucrt:lcidtoname_downlevel.obj
 0002:000063b8       ??_C@_1M@PPDBCNFM@?$AAm?$AAt?$AA?9?$AAm?$AAt?$AA?$AA@ 000000018003e3b8     libucrt:lcidtoname_downlevel.obj
 0002:000063c8       ??_C@_1M@KDJDKMDD@?$AAn?$AAb?$AA?9?$AAn?$AAo?$AA?$AA@ 000000018003e3c8     libucrt:lcidtoname_downlevel.obj
 0002:000063d8       ??_C@_1M@KFCFLMJP@?$AAn?$AAl?$AA?9?$AAb?$AAe?$AA?$AA@ 000000018003e3d8     libucrt:lcidtoname_downlevel.obj
 0002:000063e8       ??_C@_1M@KPOPDDGO@?$AAn?$AAl?$AA?9?$AAn?$AAl?$AA?$AA@ 000000018003e3e8     libucrt:lcidtoname_downlevel.obj
 0002:000063f8       ??_C@_1M@LJKPEMLN@?$AAn?$AAn?$AA?9?$AAn?$AAo?$AA?$AA@ 000000018003e3f8     libucrt:lcidtoname_downlevel.obj
 0002:00006408       ??_C@_1M@BDGHHBFL@?$AAn?$AAs?$AA?9?$AAz?$AAa?$AA?$AA@ 000000018003e408     libucrt:lcidtoname_downlevel.obj
 0002:00006418       ??_C@_1M@IDEHOAP@?$AAp?$AAa?$AA?9?$AAi?$AAn?$AA?$AA@ 000000018003e418     libucrt:lcidtoname_downlevel.obj
 0002:00006428       ??_C@_1M@HDBKGOGH@?$AAp?$AAl?$AA?9?$AAp?$AAl?$AA?$AA@ 000000018003e428     libucrt:lcidtoname_downlevel.obj
 0002:00006438       ??_C@_1M@LJLLCMEH@?$AAp?$AAt?$AA?9?$AAb?$AAr?$AA?$AA@ 000000018003e438     libucrt:lcidtoname_downlevel.obj
 0002:00006448       ??_C@_1M@NCMONAAL@?$AAp?$AAt?$AA?9?$AAp?$AAt?$AA?$AA@ 000000018003e448     libucrt:lcidtoname_downlevel.obj
 0002:00006458       ??_C@_1O@EAKMAJDN@?$AAq?$AAu?$AAz?$AA?9?$AAb?$AAo?$AA?$AA@ 000000018003e458     libucrt:lcidtoname_downlevel.obj
 0002:00006468       ??_C@_1O@BHHPIGDN@?$AAq?$AAu?$AAz?$AA?9?$AAe?$AAc?$AA?$AA@ 000000018003e468     libucrt:lcidtoname_downlevel.obj
 0002:00006478       ??_C@_1O@GBAPEKMJ@?$AAq?$AAu?$AAz?$AA?9?$AAp?$AAe?$AA?$AA@ 000000018003e478     libucrt:lcidtoname_downlevel.obj
 0002:00006488       ??_C@_1M@CLGLEFBO@?$AAr?$AAo?$AA?9?$AAr?$AAo?$AA?$AA@ 000000018003e488     libucrt:lcidtoname_downlevel.obj
 0002:00006498       ??_C@_1M@CEEDODME@?$AAr?$AAu?$AA?9?$AAr?$AAu?$AA?$AA@ 000000018003e498     libucrt:lcidtoname_downlevel.obj
 0002:000064a8       ??_C@_1M@HPKKKMPP@?$AAs?$AAa?$AA?9?$AAi?$AAn?$AA?$AA@ 000000018003e4a8     libucrt:lcidtoname_downlevel.obj
 0002:000064b8       ??_C@_1M@BKMAIGOJ@?$AAs?$AAe?$AA?9?$AAf?$AAi?$AA?$AA@ 000000018003e4b8     libucrt:lcidtoname_downlevel.obj
 0002:000064c8       ??_C@_1M@NDPIFLFI@?$AAs?$AAe?$AA?9?$AAn?$AAo?$AA?$AA@ 000000018003e4c8     libucrt:lcidtoname_downlevel.obj
 0002:000064d8       ??_C@_1M@DANKKHJ@?$AAs?$AAe?$AA?9?$AAs?$AAe?$AA?$AA@ 000000018003e4d8     libucrt:lcidtoname_downlevel.obj
 0002:000064e8       ??_C@_1M@PNBLONPJ@?$AAs?$AAk?$AA?9?$AAs?$AAk?$AA?$AA@ 000000018003e4e8     libucrt:lcidtoname_downlevel.obj
 0002:000064f8       ??_C@_1M@LFMODOAL@?$AAs?$AAl?$AA?9?$AAs?$AAi?$AA?$AA@ 000000018003e4f8     libucrt:lcidtoname_downlevel.obj
 0002:00006508       ??_C@_1O@DFKOMPG@?$AAs?$AAm?$AAa?$AA?9?$AAn?$AAo?$AA?$AA@ 000000018003e508     libucrt:lcidtoname_downlevel.obj
 0002:00006518       ??_C@_1O@NDKPBNNH@?$AAs?$AAm?$AAa?$AA?9?$AAs?$AAe?$AA?$AA@ 000000018003e518     libucrt:lcidtoname_downlevel.obj
 0002:00006528       ??_C@_1O@PLLKBHAB@?$AAs?$AAm?$AAj?$AA?9?$AAn?$AAo?$AA?$AA@ 000000018003e528     libucrt:lcidtoname_downlevel.obj
 0002:00006538       ??_C@_1O@CLEPOGCA@?$AAs?$AAm?$AAj?$AA?9?$AAs?$AAe?$AA?$AA@ 000000018003e538     libucrt:lcidtoname_downlevel.obj
 0002:00006548       ??_C@_1O@DLGJGKMK@?$AAs?$AAm?$AAn?$AA?9?$AAf?$AAi?$AA?$AA@ 000000018003e548     libucrt:lcidtoname_downlevel.obj
 0002:00006558       ??_C@_1O@OJDJGAJC@?$AAs?$AAm?$AAs?$AA?9?$AAf?$AAi?$AA?$AA@ 000000018003e558     libucrt:lcidtoname_downlevel.obj
 0002:00006568       ??_C@_1M@BOFOGHPB@?$AAs?$AAq?$AA?9?$AAa?$AAl?$AA?$AA@ 000000018003e568     libucrt:lcidtoname_downlevel.obj
 0002:00006578       ??_C@_1BG@LJBBIPGB@?$AAs?$AAr?$AA?9?$AAb?$AAa?$AA?9?$AAc?$AAy?$AAr?$AAl?$AA?$AA@ 000000018003e578     libucrt:lcidtoname_downlevel.obj
 0002:00006590       ??_C@_1BG@JLBENFOE@?$AAs?$AAr?$AA?9?$AAb?$AAa?$AA?9?$AAl?$AAa?$AAt?$AAn?$AA?$AA@ 000000018003e590     libucrt:lcidtoname_downlevel.obj
 0002:000065a8       ??_C@_1BG@KODPNHE@?$AAs?$AAr?$AA?9?$AAs?$AAp?$AA?9?$AAc?$AAy?$AAr?$AAl?$AA?$AA@ 000000018003e5a8     libucrt:lcidtoname_downlevel.obj
 0002:000065c0       ??_C@_1BG@CIOGKHPB@?$AAs?$AAr?$AA?9?$AAs?$AAp?$AA?9?$AAl?$AAa?$AAt?$AAn?$AA?$AA@ 000000018003e5c0     libucrt:lcidtoname_downlevel.obj
 0002:000065d8       ??_C@_1M@NGFJLMAC@?$AAs?$AAv?$AA?9?$AAf?$AAi?$AA?$AA@ 000000018003e5d8     libucrt:lcidtoname_downlevel.obj
 0002:000065e8       ??_C@_1M@MPJEJAJC@?$AAs?$AAv?$AA?9?$AAs?$AAe?$AA?$AA@ 000000018003e5e8     libucrt:lcidtoname_downlevel.obj
 0002:000065f8       ??_C@_1M@MPNDHLFK@?$AAs?$AAw?$AA?9?$AAk?$AAe?$AA?$AA@ 000000018003e5f8     libucrt:lcidtoname_downlevel.obj
 0002:00006608       ??_C@_1O@KOHBJJI@?$AAs?$AAy?$AAr?$AA?9?$AAs?$AAy?$AA?$AA@ 000000018003e608     libucrt:lcidtoname_downlevel.obj
 0002:00006618       ??_C@_1M@LDCEFHA@?$AAt?$AAa?$AA?9?$AAi?$AAn?$AA?$AA@ 000000018003e618     libucrt:lcidtoname_downlevel.obj
 0002:00006628       ??_C@_1M@CNJOFAK@?$AAt?$AAe?$AA?9?$AAi?$AAn?$AA?$AA@ 000000018003e628     libucrt:lcidtoname_downlevel.obj
 0002:00006638       ??_C@_1M@GNAECACD@?$AAt?$AAh?$AA?9?$AAt?$AAh?$AA?$AA@ 000000018003e638     libucrt:lcidtoname_downlevel.obj
 0002:00006648       ??_C@_1M@CHBIHOJO@?$AAt?$AAn?$AA?9?$AAz?$AAa?$AA?$AA@ 000000018003e648     libucrt:lcidtoname_downlevel.obj
 0002:00006658       ??_C@_1M@GCCMIGPJ@?$AAt?$AAr?$AA?9?$AAt?$AAr?$AA?$AA@ 000000018003e658     libucrt:lcidtoname_downlevel.obj
 0002:00006668       ??_C@_1M@CELMCNBK@?$AAt?$AAt?$AA?9?$AAr?$AAu?$AA?$AA@ 000000018003e668     libucrt:lcidtoname_downlevel.obj
 0002:00006678       ??_C@_1M@KLMCELGA@?$AAu?$AAk?$AA?9?$AAu?$AAa?$AA?$AA@ 000000018003e678     libucrt:lcidtoname_downlevel.obj
 0002:00006688       ??_C@_1M@EPAJJAJF@?$AAu?$AAr?$AA?9?$AAp?$AAk?$AA?$AA@ 000000018003e688     libucrt:lcidtoname_downlevel.obj
 0002:00006698       ??_C@_1BG@GEGPMCDJ@?$AAu?$AAz?$AA?9?$AAu?$AAz?$AA?9?$AAc?$AAy?$AAr?$AAl?$AA?$AA@ 000000018003e698     libucrt:lcidtoname_downlevel.obj
 0002:000066b0       ??_C@_1BG@EGGKJILM@?$AAu?$AAz?$AA?9?$AAu?$AAz?$AA?9?$AAl?$AAa?$AAt?$AAn?$AA?$AA@ 000000018003e6b0     libucrt:lcidtoname_downlevel.obj
 0002:000066c8       ??_C@_1M@GFOCLFF@?$AAv?$AAi?$AA?9?$AAv?$AAn?$AA?$AA@ 000000018003e6c8     libucrt:lcidtoname_downlevel.obj
 0002:000066d8       ??_C@_1M@CPAMEDFI@?$AAx?$AAh?$AA?9?$AAz?$AAa?$AA?$AA@ 000000018003e6d8     libucrt:lcidtoname_downlevel.obj
 0002:000066e8       ??_C@_1O@EBKIFIGN@?$AAz?$AAh?$AA?9?$AAc?$AAh?$AAs?$AA?$AA@ 000000018003e6e8     libucrt:lcidtoname_downlevel.obj
 0002:000066f8       ??_C@_1O@NMHPGANE@?$AAz?$AAh?$AA?9?$AAc?$AAh?$AAt?$AA?$AA@ 000000018003e6f8     libucrt:lcidtoname_downlevel.obj
 0002:00006708       ??_C@_1M@LPINJOMC@?$AAz?$AAh?$AA?9?$AAc?$AAn?$AA?$AA@ 000000018003e708     libucrt:lcidtoname_downlevel.obj
 0002:00006718       ??_C@_1M@OCJEJODD@?$AAz?$AAh?$AA?9?$AAh?$AAk?$AA?$AA@ 000000018003e718     libucrt:lcidtoname_downlevel.obj
 0002:00006728       ??_C@_1M@DNDLJINH@?$AAz?$AAh?$AA?9?$AAm?$AAo?$AA?$AA@ 000000018003e728     libucrt:lcidtoname_downlevel.obj
 0002:00006738       ??_C@_1M@MBFDNDND@?$AAz?$AAh?$AA?9?$AAs?$AAg?$AA?$AA@ 000000018003e738     libucrt:lcidtoname_downlevel.obj
 0002:00006748       ??_C@_1M@IMEPLEPE@?$AAz?$AAh?$AA?9?$AAt?$AAw?$AA?$AA@ 000000018003e748     libucrt:lcidtoname_downlevel.obj
 0002:00006758       ??_C@_1M@BBGHNHJP@?$AAz?$AAu?$AA?9?$AAz?$AAa?$AA?$AA@ 000000018003e758     libucrt:lcidtoname_downlevel.obj
 0002:00006770       ?large_power_data@?1??multiply_by_power_of_ten@__crt_strtox@@YA_NAEAUbig_integer@2@I@Z@4QBIB 000000018003e770     libucrt:cfout.obj
 0002:00007080       ?large_power_indices@?1??multiply_by_power_of_ten@__crt_strtox@@YA_NAEAUbig_integer@2@I@Z@4QBUunpack_index@?1??12@YA_N0I@Z@B 000000018003f080     libucrt:cfout.obj
 0002:00007118       ?small_powers_of_ten@?6??multiply_by_power_of_ten@__crt_strtox@@YA_NAEAUbig_integer@2@I@Z@4QBIB 000000018003f118     libucrt:cfout.obj
 0002:0000713c       ??_C@_05DNEBIAHO@1?$CDINF?$AA@ 000000018003f13c     libucrt:cfout.obj
 0002:00007144       ??_C@_06IMKFLFPG@1?$CDQNAN?$AA@ 000000018003f144     libucrt:cfout.obj
 0002:0000714c       ??_C@_06PGGFOGJG@1?$CDSNAN?$AA@ 000000018003f14c     libucrt:cfout.obj
 0002:00007154       ??_C@_05PHHOCPM@1?$CDIND?$AA@ 000000018003f154     libucrt:cfout.obj
 0002:000073b0       ??_C@_1BA@BALFACEM@?$AAC?$AAO?$AAN?$AAO?$AAU?$AAT?$AA$?$AA?$AA@ 000000018003f3b0     libucrt:initcon.obj
 0002:000073c0       __log10_256_lead           000000018003f3c0     libucrt:log10_256_lead_tail_table.obj
 0002:00007bd0       __log10_256_tail           000000018003fbd0     libucrt:log10_256_lead_tail_table.obj
 0002:000083e0       __log_F_inv_qword          00000001800403e0     libucrt:log_f_inv_qword_table.obj
 0002:00008bf0       ??_C@_05HGHHAHAP@log10?$AA@ 0000000180040bf0     libucrt:log_special.obj
 0002:00008c18       ??_7concurrent_queue_base_v3@internal@tbb@@6B@ 0000000180040c18     concurrent_queue.obj
 0002:00008c48       ??_C@_0BB@GHDLJDEE@libittnotify?4dll?$AA@ 0000000180040c48     itt_notify.obj
 0002:00008c5c       ??_C@_03NFKEKGGK@all?$AA@  0000000180040c5c     itt_notify.obj
 0002:00008c60       ??_C@_07MMBOFDEG@control?$AA@ 0000000180040c60     itt_notify.obj
 0002:00008c68       ??_C@_06FJHNOCKE@thread?$AA@ 0000000180040c68     itt_notify.obj
 0002:00008c70       ??_C@_04KJJCFCK@mark?$AA@  0000000180040c70     itt_notify.obj
 0002:00008c78       ??_C@_04JNABKDKF@sync?$AA@ 0000000180040c78     itt_notify.obj
 0002:00008c80       ??_C@_05DEEMBJFM@fsync?$AA@ 0000000180040c80     itt_notify.obj
 0002:00008c88       ??_C@_03IGHFHLNJ@jit?$AA@  0000000180040c88     itt_notify.obj
 0002:00008c8c       ??_C@_05NCCFOPHA@model?$AA@ 0000000180040c8c     itt_notify.obj
 0002:00008c98       ??_C@_07HDOCMLOI@counter?$AA@ 0000000180040c98     itt_notify.obj
 0002:00008ca0       ??_C@_05MIJNFGED@frame?$AA@ 0000000180040ca0     itt_notify.obj
 0002:00008ca8       ??_C@_06LIGKBDMB@stitch?$AA@ 0000000180040ca8     itt_notify.obj
 0002:00008cb0       ??_C@_04PKENOLLO@heap?$AA@ 0000000180040cb0     itt_notify.obj
 0002:00008cb8       ??_C@_09GNENBKCD@structure?$AA@ 0000000180040cb8     itt_notify.obj
 0002:00008cc8       ??_C@_08OGNBOPN@suppress?$AA@ 0000000180040cc8     itt_notify.obj
 0002:00008cd4       ??_C@_06FGACJBDJ@arrays?$AA@ 0000000180040cd4     itt_notify.obj
 0002:00008ce0       ??_C@_0BB@MEEBFJKA@KMP_FOR_TPROFILE?$AA@ 0000000180040ce0     itt_notify.obj
 0002:00008cf8       ??_C@_0P@PHKFPIJA@KMP_FOR_TCHECK?$AA@ 0000000180040cf8     itt_notify.obj
 0002:00008d08       ??_C@_0BF@PJOOOGND@__itt_domain_createA?$AA@ 0000000180040d08     itt_notify.obj
 0002:00008d20       ??_C@_0BF@OFHGFDAE@__itt_domain_createW?$AA@ 0000000180040d20     itt_notify.obj
 0002:00008d38       ??_C@_0BM@KLFLEJAJ@__itt_string_handle_createA?$AA@ 0000000180040d38     itt_notify.obj
 0002:00008d58       ??_C@_0BM@LHMDPMNO@__itt_string_handle_createW?$AA@ 0000000180040d58     itt_notify.obj
 0002:00008d78       ??_C@_0M@OBBFCECB@__itt_pause?$AA@ 0000000180040d78     itt_notify.obj
 0002:00008d88       ??_C@_0N@PMDEDCGD@__itt_resume?$AA@ 0000000180040d88     itt_notify.obj
 0002:00008d98       ??_C@_0BH@NLDAAGM@__itt_thread_set_nameA?$AA@ 0000000180040d98     itt_notify.obj
 0002:00008db0       ??_C@_0BH@BBCLLFLL@__itt_thread_set_nameW?$AA@ 0000000180040db0     itt_notify.obj
 0002:00008dc8       ??_C@_0BE@GBGGMKDN@__itt_thread_ignore?$AA@ 0000000180040dc8     itt_notify.obj
 0002:00008de0       ??_C@_0BE@PKPGFCJA@__itt_thr_name_setA?$AA@ 0000000180040de0     itt_notify.obj
 0002:00008df8       ??_C@_0BE@OGGOOHEH@__itt_thr_name_setW?$AA@ 0000000180040df8     itt_notify.obj
 0002:00008e10       ??_C@_0BB@NAOEIHEA@__itt_thr_ignore?$AA@ 0000000180040e10     itt_notify.obj
 0002:00008e28       ??_C@_0BE@FOGOAMMO@__itt_enable_attach?$AA@ 0000000180040e28     itt_notify.obj
 0002:00008e40       ??_C@_0N@CKFBNEAI@__itt_detach?$AA@ 0000000180040e40     itt_notify.obj
 0002:00008e50       ??_C@_0BD@PFHNCEK@__itt_sync_createA?$AA@ 0000000180040e50     itt_notify.obj
 0002:00008e68       ??_C@_0BD@BDMPGHJN@__itt_sync_createW?$AA@ 0000000180040e68     itt_notify.obj
 0002:00008e80       ??_C@_0BD@FKOJKJGJ@__itt_sync_renameA?$AA@ 0000000180040e80     itt_notify.obj
 0002:00008e98       ??_C@_0BD@EGHBBMLO@__itt_sync_renameW?$AA@ 0000000180040e98     itt_notify.obj
 0002:00008eb0       ??_C@_0BD@OFAHOGJG@__itt_sync_destroy?$AA@ 0000000180040eb0     itt_notify.obj
 0002:00008ec8       ??_C@_0BD@CPKFKJEO@__itt_sync_prepare?$AA@ 0000000180040ec8     itt_notify.obj
 0002:00008ee0       ??_C@_0BC@MCENPEOO@__itt_sync_cancel?$AA@ 0000000180040ee0     itt_notify.obj
 0002:00008ef8       ??_C@_0BE@GIFMGCLF@__itt_sync_acquired?$AA@ 0000000180040ef8     itt_notify.obj
 0002:00008f10       ??_C@_0BF@DIEOIMOH@__itt_sync_releasing?$AA@ 0000000180040f10     itt_notify.obj
 0002:00008f28       ??_C@_0BE@MOLOMFNM@__itt_suppress_push?$AA@ 0000000180040f28     itt_notify.obj
 0002:00008f40       ??_C@_0BD@KGNENPHI@__itt_suppress_pop?$AA@ 0000000180040f40     itt_notify.obj
 0002:00008f58       ??_C@_0BK@EJIICLPM@__itt_suppress_mark_range?$AA@ 0000000180040f58     itt_notify.obj
 0002:00008f78       ??_C@_0BL@GLLGHEDD@__itt_suppress_clear_range?$AA@ 0000000180040f78     itt_notify.obj
 0002:00008f98       ??_C@_0BH@IDPLHABA@__itt_model_site_begin?$AA@ 0000000180040f98     itt_notify.obj
 0002:00008fb0       ??_C@_0BF@HJKONEDB@__itt_model_site_end?$AA@ 0000000180040fb0     itt_notify.obj
 0002:00008fc8       ??_C@_0BH@MIPMFKJM@__itt_model_task_begin?$AA@ 0000000180040fc8     itt_notify.obj
 0002:00008fe0       ??_C@_0BF@DBIHPNLD@__itt_model_task_end?$AA@ 0000000180040fe0     itt_notify.obj
 0002:00008ff8       ??_C@_0BJ@LAGBGFNL@__itt_model_lock_acquire?$AA@ 0000000180040ff8     itt_notify.obj
 0002:00009018       ??_C@_0BJ@DKFLKCDG@__itt_model_lock_release?$AA@ 0000000180041018     itt_notify.obj
 0002:00009038       ??_C@_0BO@CMNEKAED@__itt_model_record_allocation?$AA@ 0000000180041038     itt_notify.obj
 0002:00009058       ??_C@_0CA@BLKMEFKM@__itt_model_record_deallocation?$AA@ 0000000180041058     itt_notify.obj
 0002:00009078       ??_C@_0BL@EMIILPPM@__itt_model_induction_uses?$AA@ 0000000180041078     itt_notify.obj
 0002:00009098       ??_C@_0BL@JJCGLNKA@__itt_model_reduction_uses?$AA@ 0000000180041098     itt_notify.obj
 0002:000090b8       ??_C@_0BJ@ECNIEHOA@__itt_model_observe_uses?$AA@ 00000001800410b8     itt_notify.obj
 0002:000090d8       ??_C@_0BH@KLLGKJEK@__itt_model_clear_uses?$AA@ 00000001800410d8     itt_notify.obj
 0002:000090f0       ??_C@_0BI@OIMOCAIH@__itt_model_site_beginW?$AA@ 00000001800410f0     itt_notify.obj
 0002:00009108       ??_C@_0BI@MILOIKG@__itt_model_task_beginW?$AA@ 0000000180041108     itt_notify.obj
 0002:00009120       ??_C@_0BM@NIKMILDP@__itt_model_iteration_taskW?$AA@ 0000000180041120     itt_notify.obj
 0002:00009140       ??_C@_0BI@PEFGJFFA@__itt_model_site_beginA?$AA@ 0000000180041140     itt_notify.obj
 0002:00009158       ??_C@_0BJ@DHFDAHGI@__itt_model_site_beginAL?$AA@ 0000000180041158     itt_notify.obj
 0002:00009178       ??_C@_0BI@BABDFNHB@__itt_model_task_beginA?$AA@ 0000000180041178     itt_notify.obj
 0002:00009190       ??_C@_0BJ@HLNOFCPO@__itt_model_task_beginAL?$AA@ 0000000180041190     itt_notify.obj
 0002:000091b0       ??_C@_0BM@MEDEDOOI@__itt_model_iteration_taskA?$AA@ 00000001800411b0     itt_notify.obj
 0002:000091d0       ??_C@_0BN@PCNJFOHN@__itt_model_iteration_taskAL?$AA@ 00000001800411d0     itt_notify.obj
 0002:000091f0       ??_C@_0BH@MNHDFFCN@__itt_model_site_end_2?$AA@ 00000001800411f0     itt_notify.obj
 0002:00009208       ??_C@_0BH@IGHEHPKB@__itt_model_task_end_2?$AA@ 0000000180041208     itt_notify.obj
 0002:00009220       ??_C@_0BL@NFIEAEJO@__itt_model_lock_acquire_2?$AA@ 0000000180041220     itt_notify.obj
 0002:00009240       ??_C@_0BL@DLFEFEBG@__itt_model_lock_release_2?$AA@ 0000000180041240     itt_notify.obj
 0002:00009260       ??_C@_0BL@FOHNDHC@__itt_model_aggregate_task?$AA@ 0000000180041260     itt_notify.obj
 0002:00009280       ??_C@_0BJ@MAMFFHFB@__itt_model_disable_push?$AA@ 0000000180041280     itt_notify.obj
 0002:000092a0       ??_C@_0BI@GMOGAHA@__itt_model_disable_pop?$AA@ 00000001800412a0     itt_notify.obj
 0002:000092b8       ??_C@_0BM@JODLENCC@__itt_heap_function_createA?$AA@ 00000001800412b8     itt_notify.obj
 0002:000092d8       ??_C@_0BM@ICKDPIPF@__itt_heap_function_createW?$AA@ 00000001800412d8     itt_notify.obj
 0002:000092f8       ??_C@_0BK@DMCMAEMK@__itt_heap_allocate_begin?$AA@ 00000001800412f8     itt_notify.obj
 0002:00009318       ??_C@_0BI@BKGPODF@__itt_heap_allocate_end?$AA@ 0000000180041318     itt_notify.obj
 0002:00009330       ??_C@_0BG@NCFEDJCH@__itt_heap_free_begin?$AA@ 0000000180041330     itt_notify.obj
 0002:00009348       ??_C@_0BE@IBCGGMHF@__itt_heap_free_end?$AA@ 0000000180041348     itt_notify.obj
 0002:00009360       ??_C@_0BM@DNPPEBNN@__itt_heap_reallocate_begin?$AA@ 0000000180041360     itt_notify.obj
 0002:00009380       ??_C@_0BK@FIIKJCHI@__itt_heap_reallocate_end?$AA@ 0000000180041380     itt_notify.obj
 0002:000093a0       ??_C@_0CB@KBHILEOD@__itt_heap_internal_access_begin@ 00000001800413a0     itt_notify.obj
 0002:000093c8       ??_C@_0BP@BFPCKPOF@__itt_heap_internal_access_end?$AA@ 00000001800413c8     itt_notify.obj
 0002:000093e8       ??_C@_0CG@NEGAEGJL@__itt_heap_record_memory_growth_@ 00000001800413e8     itt_notify.obj
 0002:00009410       ??_C@_0CE@EDHBOICD@__itt_heap_record_memory_growth_@ 0000000180041410     itt_notify.obj
 0002:00009438       ??_C@_0BL@IHEFPDEL@__itt_heap_reset_detection?$AA@ 0000000180041438     itt_notify.obj
 0002:00009458       ??_C@_0BC@EGKDFPLB@__itt_heap_record?$AA@ 0000000180041458     itt_notify.obj
 0002:00009470       ??_C@_0BA@NONPBKLG@__itt_id_create?$AA@ 0000000180041470     itt_notify.obj
 0002:00009480       ??_C@_0BB@CBOOIDDL@__itt_id_destroy?$AA@ 0000000180041480     itt_notify.obj
 0002:00009498       ??_C@_0BE@FLOGCMMH@__itt_get_timestamp?$AA@ 0000000180041498     itt_notify.obj
 0002:000094b0       ??_C@_0BD@BNMNCHKB@__itt_region_begin?$AA@ 00000001800414b0     itt_notify.obj
 0002:000094c8       ??_C@_0BB@NDFOOFIC@__itt_region_end?$AA@ 00000001800414c8     itt_notify.obj
 0002:000094e0       ??_C@_0BF@DPIEHAGN@__itt_frame_begin_v3?$AA@ 00000001800414e0     itt_notify.obj
 0002:000094f8       ??_C@_0BD@EHKFFIBH@__itt_frame_end_v3?$AA@ 00000001800414f8     itt_notify.obj
 0002:00009510       ??_C@_0BG@BPCLPPEH@__itt_frame_submit_v3?$AA@ 0000000180041510     itt_notify.obj
 0002:00009528       ??_C@_0BB@GGFEPPDE@__itt_task_group?$AA@ 0000000180041528     itt_notify.obj
 0002:00009540       ??_C@_0BB@OAJAGIDB@__itt_task_begin?$AA@ 0000000180041540     itt_notify.obj
 0002:00009558       ??_C@_0BE@FMMIBDOD@__itt_task_begin_fn?$AA@ 0000000180041558     itt_notify.obj
 0002:00009570       ??_C@_0P@NALCCCCE@__itt_task_end?$AA@ 0000000180041570     itt_notify.obj
 0002:00009580       ??_C@_0BF@MDKFBHAH@__itt_counter_inc_v3?$AA@ 0000000180041580     itt_notify.obj
 0002:00009598       ??_C@_0BL@HIGIHDCP@__itt_counter_inc_delta_v3?$AA@ 0000000180041598     itt_notify.obj
 0002:000095b8       ??_C@_0N@HAAFEAGA@__itt_marker?$AA@ 00000001800415b8     itt_notify.obj
 0002:000095c8       ??_C@_0BD@IGOPKBOL@__itt_metadata_add?$AA@ 00000001800415c8     itt_notify.obj
 0002:000095e0       ??_C@_0BI@NEEFELOF@__itt_metadata_str_addA?$AA@ 00000001800415e0     itt_notify.obj
 0002:000095f8       ??_C@_0BI@MINNPODC@__itt_metadata_str_addW?$AA@ 00000001800415f8     itt_notify.obj
 0002:00009610       ??_C@_0BO@OPDDBKND@__itt_relation_add_to_current?$AA@ 0000000180041610     itt_notify.obj
 0002:00009630       ??_C@_0BD@OKAHNEKP@__itt_relation_add?$AA@ 0000000180041630     itt_notify.obj
 0002:00009648       ??_C@_0BE@PFMCBGMI@__itt_event_createA?$AA@ 0000000180041648     itt_notify.obj
 0002:00009660       ??_C@_0BE@OJFKKDBP@__itt_event_createW?$AA@ 0000000180041660     itt_notify.obj
 0002:00009678       ??_C@_0BC@CFNFCMCG@__itt_event_start?$AA@ 0000000180041678     itt_notify.obj
 0002:00009690       ??_C@_0BA@IJAPHNDA@__itt_event_end?$AA@ 0000000180041690     itt_notify.obj
 0002:000096a0       ??_C@_0BF@NPFOLKPO@__itt_sync_set_nameA?$AA@ 00000001800416a0     itt_notify.obj
 0002:000096b8       ??_C@_0BF@MDMGAPCJ@__itt_sync_set_nameW?$AA@ 00000001800416b8     itt_notify.obj
 0002:000096d0       ??_C@_0BI@CHABHBNF@__itt_notify_sync_nameA?$AA@ 00000001800416d0     itt_notify.obj
 0002:000096e8       ??_C@_0BI@DLJJMEAC@__itt_notify_sync_nameW?$AA@ 00000001800416e8     itt_notify.obj
 0002:00009700       ??_C@_0BK@EPNEOEMG@__itt_notify_sync_prepare?$AA@ 0000000180041700     itt_notify.obj
 0002:00009720       ??_C@_0BJ@DIOKJHB@__itt_notify_sync_cancel?$AA@ 0000000180041720     itt_notify.obj
 0002:00009740       ??_C@_0BL@ILFPBIOK@__itt_notify_sync_acquired?$AA@ 0000000180041740     itt_notify.obj
 0002:00009760       ??_C@_0BM@MDHJMDPI@__itt_notify_sync_releasing?$AA@ 0000000180041760     itt_notify.obj
 0002:00009780       ??_C@_0BC@FOINABEG@__itt_memory_read?$AA@ 0000000180041780     itt_notify.obj
 0002:00009798       ??_C@_0BD@NMPEKHPI@__itt_memory_write?$AA@ 0000000180041798     itt_notify.obj
 0002:000097b0       ??_C@_0BE@PDNEALBC@__itt_memory_update?$AA@ 00000001800417b0     itt_notify.obj
 0002:000097c8       ??_C@_0BA@OOLJINGG@__itt_state_get?$AA@ 00000001800417c8     itt_notify.obj
 0002:000097d8       ??_C@_0BA@DBMCENKO@__itt_state_set?$AA@ 00000001800417d8     itt_notify.obj
 0002:000097e8       ??_C@_0BD@OMOHDNKK@__itt_obj_mode_set?$AA@ 00000001800417e8     itt_notify.obj
 0002:00009800       ??_C@_0BD@EBCLOJDM@__itt_thr_mode_set?$AA@ 0000000180041800     itt_notify.obj
 0002:00009818       ??_C@_0BE@BLJCOOCN@__itt_frame_createA?$AA@ 0000000180041818     itt_notify.obj
 0002:00009830       ??_C@_0BE@HAKFLPK@__itt_frame_createW?$AA@ 0000000180041830     itt_notify.obj
 0002:00009848       ??_C@_0BC@HCNKKGME@__itt_frame_begin?$AA@ 0000000180041848     itt_notify.obj
 0002:00009860       ??_C@_0BA@ECPMFCGG@__itt_frame_end?$AA@ 0000000180041860     itt_notify.obj
 0002:00009870       ??_C@_0BG@EMALNLPB@__itt_counter_createA?$AA@ 0000000180041870     itt_notify.obj
 0002:00009888       ??_C@_0BG@FAJDGOCG@__itt_counter_createW?$AA@ 0000000180041888     itt_notify.obj
 0002:000098a0       ??_C@_0BG@KGFLOPCN@__itt_counter_destroy?$AA@ 00000001800418a0     itt_notify.obj
 0002:000098b8       ??_C@_0BC@JMKIDDKB@__itt_counter_inc?$AA@ 00000001800418b8     itt_notify.obj
 0002:000098d0       ??_C@_0BI@BNDIOJN@__itt_counter_inc_delta?$AA@ 00000001800418d0     itt_notify.obj
 0002:000098e8       ??_C@_0BD@PMJJPFNK@__itt_mark_createA?$AA@ 00000001800418e8     itt_notify.obj
 0002:00009900       ??_C@_0BD@OAABEAAN@__itt_mark_createW?$AA@ 0000000180041900     itt_notify.obj
 0002:00009918       ??_C@_0M@CAFHBOLD@__itt_markA?$AA@ 0000000180041918     itt_notify.obj
 0002:00009928       ??_C@_0M@DMMPKLGE@__itt_markW?$AA@ 0000000180041928     itt_notify.obj
 0002:00009938       ??_C@_0P@CFDOAOOE@__itt_mark_off?$AA@ 0000000180041938     itt_notify.obj
 0002:00009948       ??_C@_0BD@MBBPNJCH@__itt_mark_globalA?$AA@ 0000000180041948     itt_notify.obj
 0002:00009960       ??_C@_0BD@NNIHGMPA@__itt_mark_globalW?$AA@ 0000000180041960     itt_notify.obj
 0002:00009978       ??_C@_0BG@CDJIJGAC@__itt_mark_global_off?$AA@ 0000000180041978     itt_notify.obj
 0002:00009990       ??_C@_0BK@EPFIOCIO@__itt_stack_caller_create?$AA@ 0000000180041990     itt_notify.obj
 0002:000099b0       ??_C@_0BL@JHNLMFN@__itt_stack_caller_destroy?$AA@ 00000001800419b0     itt_notify.obj
 0002:000099d0       ??_C@_0BJ@GAJNHHI@__itt_stack_callee_enter?$AA@ 00000001800419d0     itt_notify.obj
 0002:000099f0       ??_C@_0BJ@CKPCIJLD@__itt_stack_callee_leave?$AA@ 00000001800419f0     itt_notify.obj
 0002:00009a10       ??_C@_0BK@DDICILFO@__itt_clock_domain_create?$AA@ 0000000180041a10     itt_notify.obj
 0002:00009a30       ??_C@_0BJ@NEHPBEIJ@__itt_clock_domain_reset?$AA@ 0000000180041a30     itt_notify.obj
 0002:00009a50       ??_C@_0BD@FNAGFCCD@__itt_id_create_ex?$AA@ 0000000180041a50     itt_notify.obj
 0002:00009a68       ??_C@_0BE@EFLGOLGG@__itt_id_destroy_ex?$AA@ 0000000180041a68     itt_notify.obj
 0002:00009a80       ??_C@_0BE@ECBGBIGN@__itt_task_begin_ex?$AA@ 0000000180041a80     itt_notify.obj
 0002:00009a98       ??_C@_0BH@GFGAIAHE@__itt_task_begin_fn_ex?$AA@ 0000000180041a98     itt_notify.obj
 0002:00009ab0       ??_C@_0BC@IHANJPKN@__itt_task_end_ex?$AA@ 0000000180041ab0     itt_notify.obj
 0002:00009ac8       ??_C@_0BM@LOFKKKAI@__itt_task_begin_overlapped?$AA@ 0000000180041ac8     itt_notify.obj
 0002:00009ae8       ??_C@_0BP@OLNBFIEO@__itt_task_begin_overlapped_ex?$AA@ 0000000180041ae8     itt_notify.obj
 0002:00009b08       ??_C@_0BK@MBKJKMLA@__itt_task_end_overlapped?$AA@ 0000000180041b08     itt_notify.obj
 0002:00009b28       ??_C@_0BN@FCHCPDLJ@__itt_task_end_overlapped_ex?$AA@ 0000000180041b28     itt_notify.obj
 0002:00009b48       ??_C@_0BA@PCFAJFBL@__itt_marker_ex?$AA@ 0000000180041b48     itt_notify.obj
 0002:00009b58       ??_C@_0BO@IBJHPIEA@__itt_metadata_add_with_scope?$AA@ 0000000180041b58     itt_notify.obj
 0002:00009b78       ??_C@_0CD@DBMMAEJ@__itt_metadata_str_add_with_scop@ 0000000180041b78     itt_notify.obj
 0002:00009ba0       ??_C@_0CD@BPIEHFJO@__itt_metadata_str_add_with_scop@ 0000000180041ba0     itt_notify.obj
 0002:00009bc8       ??_C@_0CB@LKKGPFIK@__itt_relation_add_to_current_ex@ 0000000180041bc8     itt_notify.obj
 0002:00009bf0       ??_C@_0BG@JDIAGKMO@__itt_relation_add_ex?$AA@ 0000000180041bf0     itt_notify.obj
 0002:00009c08       ??_C@_0BJ@DABHBHOM@__itt_track_group_create?$AA@ 0000000180041c08     itt_notify.obj
 0002:00009c28       ??_C@_0BD@JAMANPOD@__itt_track_create?$AA@ 0000000180041c28     itt_notify.obj
 0002:00009c40       ??_C@_0BA@LBIEJOAG@__itt_set_track?$AA@ 0000000180041c40     itt_notify.obj
 0002:00009c50       ??_C@_0BC@LLDNPJMG@__itt_api_version?$AA@ 0000000180041c50     itt_notify.obj
 0002:00009c68       ??_C@_0P@BPBIAPKG@__itt_av_saveA?$AA@ 0000000180041c68     itt_notify.obj
 0002:00009c78       ??_C@_0P@DIALKHB@__itt_av_saveW?$AA@ 0000000180041c78     itt_notify.obj
 0002:00009c88       ??_C@_0BF@DALCJNFN@INTEL_LIBITTNOTIFY64?$AA@ 0000000180041c88     itt_notify.obj
 0002:00009ca0       ??_C@_0BH@BCIELMCH@INTEL_ITTNOTIFY_GROUPS?$AA@ 0000000180041ca0     itt_notify.obj
 0002:00009cb8       ??_C@_03IJOFBOLG@?0?$DL?5?$AA@ 0000000180041cb8     itt_notify.obj
 0002:00009cc0       ??_C@_0P@GMFMFMGH@__itt_api_init?$AA@ 0000000180041cc0     itt_notify.obj
 0002:00009cd0       ??_C@_0P@IJPIIJJG@__itt_api_fini?$AA@ 0000000180041cd0     itt_notify.obj
 0002:00009ce0       ??_C@_1BM@HPHMLNHL@?$AAT?$AAb?$AAb?$AAG?$AAl?$AAo?$AAb?$AAa?$AAl?$AAL?$AAo?$AAc?$AAk?$AA?$AA@ 0000000180041ce0     itt_notify.obj
 0002:00009d00       ??_C@_1BE@HCOPGFC@?$AA?$CF?$AAC?$AAo?$AAn?$AAs?$AAt?$AAa?$AAn?$AAt?$AA?$AA@ 0000000180041d00     itt_notify.obj
 0002:00009d18       ??_C@_1DG@DAINFCM@?$AAT?$AAb?$AAb?$AAS?$AAc?$AAh?$AAe?$AAd?$AAu?$AAl?$AAe?$AAr?$AAI?$AAn?$AAi?$AAt?$AAi?$AAa?$AAl?$AAi?$AAz?$AAa?$AAt?$AAi?$AAo?$AAn?$AA?$AA@ 0000000180041d18     itt_notify.obj
 0002:00009d50       ??_C@_1BM@LJBJJICB@?$AAT?$AAB?$AAB?$AA?5?$AAS?$AAc?$AAh?$AAe?$AAd?$AAu?$AAl?$AAe?$AAr?$AA?$AA@ 0000000180041d50     itt_notify.obj
 0002:00009dc0       ?SyncType_GlobalLock@tbb@@3PEB_WEB 0000000180041dc0     itt_notify.obj
 0002:00009dc8       ?SyncObj_WorkerLifeCycleMgmt@tbb@@3PEB_WEB 0000000180041dc8     itt_notify.obj
 0002:00009dd0       ?SyncObj_SchedulerInitialization@tbb@@3PEB_WEB 0000000180041dd0     itt_notify.obj
 0002:00009dd8       ?SyncType_Scheduler@tbb@@3PEB_WEB 0000000180041dd8     itt_notify.obj
 0002:00009de0       ?SyncObj_WorkerTaskPool@tbb@@3PEB_WEB 0000000180041de0     itt_notify.obj
 0002:00009de8       ?SyncObj_TaskStealingLoop@tbb@@3PEB_WEB 0000000180041de8     itt_notify.obj
 0002:00009df0       ?SyncObj_ContextsList@tbb@@3PEB_WEB 0000000180041df0     itt_notify.obj
 0002:00009df8       ?SyncObj_Mailbox@tbb@@3PEB_WEB 0000000180041df8     itt_notify.obj
 0002:00009e00       ?SyncObj_TaskStream@tbb@@3PEB_WEB 0000000180041e00     itt_notify.obj
 0002:00009e08       ?SyncObj_TaskReturnList@tbb@@3PEB_WEB 0000000180041e08     itt_notify.obj
 0002:00009e10       ?SyncObj_TaskPoolSpinning@tbb@@3PEB_WEB 0000000180041e10     itt_notify.obj
 0002:0000a240       ??_C@_0BA@NAPEMIJE@scalable_malloc?$AA@ 0000000180042240     cache_aligned_allocator.obj
 0002:0000a250       ??_C@_0O@IMDKFEIF@scalable_free?$AA@ 0000000180042250     cache_aligned_allocator.obj
 0002:0000a260       ??_C@_0BI@IFMFIIAC@scalable_aligned_malloc?$AA@ 0000000180042260     cache_aligned_allocator.obj
 0002:0000a278       ??_C@_0BG@IEFKBPOM@scalable_aligned_free?$AA@ 0000000180042278     cache_aligned_allocator.obj
 0002:0000a290       ??_C@_0O@FOJJPCPH@tbbmalloc?4dll?$AA@ 0000000180042290     cache_aligned_allocator.obj
 0002:0000a2a0       ??_C@_06GLDDLHNF@malloc?$AA@ 00000001800422a0     cache_aligned_allocator.obj
 0002:0000a2a8       ??_C@_09MCKBLNND@ALLOCATOR?$AA@ 00000001800422a8     cache_aligned_allocator.obj
 0002:0000a2b8       ??_C@_0BN@OAIFFPEB@TLS?5not?5allocated?5for?5filter?$AA@ 00000001800422b8     pipeline.obj
 0002:0000a2e0       ??_7task@tbb@@6B@          00000001800422e0     pipeline.obj
 0002:0000a300       ??_7pipeline_root_task@internal@tbb@@6B@ 0000000180042300     pipeline.obj
 0002:0000a320       ??_7pipeline@tbb@@6B@      0000000180042320     pipeline.obj
 0002:0000a330       ??_7filter@tbb@@6B@        0000000180042330     pipeline.obj
 0002:0000a350       ??_7stage_task@internal@tbb@@6B@ 0000000180042350     pipeline.obj
 0002:0000a368       ??_C@_11LOCGONAA@?$AA?$AA@ 0000000180042368     queuing_mutex.obj
 0002:0000a370       ??_C@_1CG@PJPBKEPC@?$AAt?$AAb?$AAb?$AA?3?$AA?3?$AAq?$AAu?$AAe?$AAu?$AAi?$AAn?$AAg?$AA_?$AAm?$AAu?$AAt?$AAe?$AAx?$AA?$AA@ 0000000180042370     queuing_mutex.obj
 0002:0000a398       ??_C@_1CM@KJEIFCEB@?$AAt?$AAb?$AAb?$AA?3?$AA?3?$AAq?$AAu?$AAe?$AAu?$AAi?$AAn?$AAg?$AA_?$AAr?$AAw?$AA_?$AAm?$AAu?$AAt?$AAe?$AAx?$AA?$AA@ 0000000180042398     queuing_rw_mutex.obj
 0002:0000a3c8       ??_C@_1CG@PLAHABG@?$AAt?$AAb?$AAb?$AA?3?$AA?3?$AAs?$AAp?$AAi?$AAn?$AA_?$AAr?$AAw?$AA_?$AAm?$AAu?$AAt?$AAe?$AAx?$AA?$AA@ 00000001800423c8     spin_rw_mutex.obj
 0002:0000a3f0       ??_C@_1CM@JOBNLJOH@?$AAt?$AAb?$AAb?$AA?3?$AA?3?$AAx?$AA8?$AA6?$AA_?$AAr?$AAt?$AAm?$AA_?$AAr?$AAw?$AA_?$AAm?$AAu?$AAt?$AAe?$AAx?$AA?$AA@ 00000001800423f0     x86_rtm_rw_mutex.obj
 0002:0000a420       ??_C@_1CA@OBNAGBIB@?$AAt?$AAb?$AAb?$AA?3?$AA?3?$AAs?$AAp?$AAi?$AAn?$AA_?$AAm?$AAu?$AAt?$AAe?$AAx?$AA?$AA@ 0000000180042420     spin_mutex.obj
 0002:0000a440       ??_C@_1CM@JDGEMKJN@?$AAp?$AAp?$AAl?$AA?3?$AA?3?$AAc?$AAr?$AAi?$AAt?$AAi?$AAc?$AAa?$AAl?$AA_?$AAs?$AAe?$AAc?$AAt?$AAi?$AAo?$AAn?$AA?$AA@ 0000000180042440     critical_section.obj
 0002:0000a470       ??_C@_0EH@MIDOCILP@mutex?3?3scoped_lock?3?5deadlock?5cau@ 0000000180042470     mutex.obj
 0002:0000a4b8       ??_C@_1BG@ODPLMIDC@?$AAt?$AAb?$AAb?$AA?3?$AA?3?$AAm?$AAu?$AAt?$AAe?$AAx?$AA?$AA@ 00000001800424b8     mutex.obj
 0002:0000a4d0       ??_C@_1CK@OOCNHJOL@?$AAt?$AAb?$AAb?$AA?3?$AA?3?$AAr?$AAe?$AAc?$AAu?$AAr?$AAs?$AAi?$AAv?$AAe?$AA_?$AAm?$AAu?$AAt?$AAe?$AAx?$AA?$AA@ 00000001800424d0     recursive_mutex.obj
 0002:0000a500       ??_C@_0BM@HLJJNPAH@InitializeConditionVariable?$AA@ 0000000180042500     condition_variable.obj
 0002:0000a520       ??_C@_0BJ@JEBJOJFJ@SleepConditionVariableCS?$AA@ 0000000180042520     condition_variable.obj
 0002:0000a540       ??_C@_0BG@BFNILBLN@WakeConditionVariable?$AA@ 0000000180042540     condition_variable.obj
 0002:0000a558       ??_C@_0BJ@PGPPEPCC@WakeAllConditionVariable?$AA@ 0000000180042558     condition_variable.obj
 0002:0000a578       ??_C@_0N@HAOHNMDE@Kernel32?4dll?$AA@ 0000000180042578     condition_variable.obj
 0002:0000a588       ??_C@_0BB@HLANDHKP@tbb_thread?3?3join?$AA@ 0000000180042588     tbb_thread.obj
 0002:0000a5a0       ??_C@_0BD@EHCAPBKM@tbb_thread?3?3detach?$AA@ 00000001800425a0     tbb_thread.obj
 0002:0000a5b8       ??_C@_0BA@HNJHLFML@__beginthreadex?$AA@ 00000001800425b8     tbb_thread.obj
 0002:0000a5c8       ??_C@_1CA@CAIBFCHC@?$AAR?$AAM?$AAL?$AA?5?$AAT?$AAh?$AAr?$AA?5?$AAM?$AAo?$AAn?$AAi?$AAt?$AAo?$AAr?$AA?$AA@ 00000001800425c8     private_server.obj
 0002:0000a5e8       ??_C@_0CP@ECLIENFE@thread_monitor?3?3launch?3?5_beginth@ 00000001800425e8     private_server.obj
 0002:0000a620       ??_7private_server@rml@internal@tbb@@6B@ 0000000180042620     private_server.obj
 0002:0000a668       ??_C@_0BD@CAMIMILA@__RML_open_factory?$AA@ 0000000180042668     rml_tbb.obj
 0002:0000a680       ??_C@_0BG@HALCIFOA@__TBB_make_rml_server?$AA@ 0000000180042680     rml_tbb.obj
 0002:0000a698       ??_C@_0BE@HJHNNOAB@__RML_close_factory?$AA@ 0000000180042698     rml_tbb.obj
 0002:0000a6b0       ??_C@_0BP@ODNGMCC@__TBB_call_with_my_server_info?$AA@ 00000001800426b0     rml_tbb.obj
 0002:0000a6d0       ??_C@_08NACEEPJJ@irml?4dll?$AA@ 00000001800426d0     rml_tbb.obj
 0002:0000a6e0       ??_C@_0BC@EOODALEL@Unknown?5exception?$AA@ 00000001800426e0     tbb_misc.obj
 0002:0000a6f8       ??_C@_0P@GHFPNOJB@bad?5allocation?$AA@ 00000001800426f8     tbb_misc.obj
 0002:0000a708       ??_C@_0CL@PHAMFLPE@Assertion?5?$CFs?5failed?5on?5line?5?$CFd?5o@ 0000000180042708     tbb_misc.obj
 0002:0000a738       ??_C@_0BK@GNEKDGNN@Detailed?5description?3?5?$CFs?6?$AA@ 0000000180042738     tbb_misc.obj
 0002:0000a758       ??_C@_0BB@IDICOHEL@TBB?5Warning?3?5?$CFs?6?$AA@ 0000000180042758     tbb_misc.obj
 0002:0000a770       ??_C@_0DB@EHGGIPPP@bad?5allocation?5in?5previous?5or?5co@ 0000000180042770     tbb_misc.obj
 0002:0000a7b0       ??_C@_0EE@GAOIKEOM@attempted?5recursive?5lock?5on?5crit@ 00000001800427b0     tbb_misc.obj
 0002:0000a7f8       ??_C@_0DD@PCCDFJFN@User?9initiated?5abort?5has?5termina@ 00000001800427f8     tbb_misc.obj
 0002:0000a830       ??_C@_0DO@ODMIBMOL@The?5same?5task_handle?5object?5cann@ 0000000180042830     tbb_misc.obj
 0002:0000a870       ??_C@_0DD@BLHHBEJJ@wait?$CI?$CJ?5was?5not?5called?5on?5the?5str@ 0000000180042870     tbb_misc.obj
 0002:0000a8a4       ??_C@_06DJHOIPC@?$CFs?3?5?$CFs?$AA@ 00000001800428a4     tbb_misc.obj
 0002:0000a8b0       ??_C@_0BG@CGPDMLJD@Step?5must?5be?5positive?$AA@ 00000001800428b0     tbb_misc.obj
 0002:0000a8c8       ??_C@_0CC@LGDCOMIO@Index?5out?5of?5requested?5size?5rang@ 00000001800428c8     tbb_misc.obj
 0002:0000a8f0       ??_C@_0CF@FOAMFCKF@Index?5out?5of?5allocated?5segment?5s@ 00000001800428f0     tbb_misc.obj
 0002:0000a918       ??_C@_0BH@JPEMMDHK@Index?5is?5not?5allocated?$AA@ 0000000180042918     tbb_misc.obj
 0002:0000a930       ??_C@_0BO@PIMGLGEN@Resource?5deadlock?5would?5occur?$AA@ 0000000180042930     tbb_misc.obj
 0002:0000a950       ??_C@_0BI@BJFCGOHL@Operation?5not?5permitted?$AA@ 0000000180042950     tbb_misc.obj
 0002:0000a968       ??_C@_0CC@PACKIMIC@Wait?5on?5condition?5variable?5faile@ 0000000180042968     tbb_misc.obj
 0002:0000a990       ??_C@_0BJ@CNNJIMJ@Invalid?5hash?5load?5factor?$AA@ 0000000180042990     tbb_misc.obj
 0002:0000a9b0       ??_C@_0DD@JIFGIFI@?$FLbackward?5compatibility?$FN?5Invalid@ 00000001800429b0     tbb_misc.obj
 0002:0000a9e8       ??_C@_0CK@HKNLFKFK@swap?$CI?$CJ?5is?5invalid?5on?5non?9equal?5a@ 00000001800429e8     tbb_misc.obj
 0002:0000aa18       ??_C@_0CM@BHPAMPN@reservation?5size?5exceeds?5permitt@ 0000000180042a18     tbb_misc.obj
 0002:0000aa48       ??_C@_0M@BEDENHPD@invalid?5key?$AA@ 0000000180042a48     tbb_misc.obj
 0002:0000aa58       ??_C@_0BI@DEMFIOGM@Illegal?5tagged_msg?5cast?$AA@ 0000000180042a58     tbb_misc.obj
 0002:0000aa70       ??_C@_0CO@NBFNLKMB@Nesting?5of?5blocking?5termination?5@ 0000000180042a70     tbb_misc.obj
 0002:0000aaa0       ??_C@_01GBGANLPD@0?$AA@    0000000180042aa0     tbb_misc.obj
 0002:0000aaa8       ??_C@_0M@MLMCGNOA@TBB?3?5?$CFs?7?$CFs?6?$AA@ 0000000180042aa8     tbb_misc.obj
 0002:0000aac0       ??_7user_abort@tbb@@6B@    0000000180042ac0     tbb_misc.obj
 0002:0000aad8       ??_7invalid_multiple_scheduling@tbb@@6B@ 0000000180042ad8     tbb_misc.obj
 0002:0000aaf0       ??_7range_error@std@@6B@   0000000180042af0     tbb_misc.obj
 0002:0000ab08       ??_7missing_wait@tbb@@6B@  0000000180042b08     tbb_misc.obj
 0002:0000ab20       ??_7improper_lock@tbb@@6B@ 0000000180042b20     tbb_misc.obj
 0002:0000ab38       ??_7bad_last_alloc@tbb@@6B@ 0000000180042b38     tbb_misc.obj
 0002:0000ab48       ??_C@_0BI@DGHANAAJ@GetActiveProcessorCount?$AA@ 0000000180042b48     tbb_misc_ex.obj
 0002:0000ab60       ??_C@_0BN@LPAFAILO@GetActiveProcessorGroupCount?$AA@ 0000000180042b60     tbb_misc_ex.obj
 0002:0000ab80       ??_C@_0BH@CJPDKMEB@SetThreadGroupAffinity?$AA@ 0000000180042b80     tbb_misc_ex.obj
 0002:0000ab98       ??_C@_0BH@CINNILJO@GetThreadGroupAffinity?$AA@ 0000000180042b98     tbb_misc_ex.obj
 0002:0000abb0       ??_C@_02DPKJAMEF@?$CFd?$AA@ 0000000180042bb0     tbb_misc_ex.obj
 0002:0000abb8       ??_C@_0BB@PNFHLMII@Processor?5groups?$AA@ 0000000180042bb8     tbb_misc_ex.obj
 0002:0000abd0       ??_C@_0M@EBCKCMNJ@?$CFd?3?5size?5?$CFd?$AA@ 0000000180042bd0     tbb_misc_ex.obj
 0002:0000abe0       ??_C@_0M@KEGADPLK@?9?9?9?9?9?5Group?$AA@ 0000000180042be0     tbb_misc_ex.obj
 0002:0000abf0       ??_C@_0BH@IFIKJPDO@Unidentified?5exception?$AA@ 0000000180042bf0     task_group_context.obj
 0002:0000ac08       ??_C@_03KHICJKCI@?4?4?4?$AA@ 0000000180042c08     task_group_context.obj
 0002:0000ac18       ??_7tbb_exception@tbb@@6B@ 0000000180042c18     task_group_context.obj
 0002:0000ac50       ??_7captured_exception@tbb@@6B@ 0000000180042c50     task_group_context.obj
 0002:0000ac80       ??_C@_00CNPNBAHC@?$AA@     0000000180042c80     governor.obj
 0002:0000ac88       ??_C@_0BG@DMHJAPLO@__cilkrts_watch_stack?$AA@ 0000000180042c88     governor.obj
 0002:0000aca0       ??_C@_0O@NKJMJIO@cilkrts20?4dll?$AA@ 0000000180042ca0     governor.obj
 0002:0000acb0       ??_C@_0CN@HLMBHJIE@TBB?5failed?5to?5initialize?5task?5sc@ 0000000180042cb0     governor.obj
 0002:0000ace0       ??_C@_0FB@GCHNHICK@rml?3?3tbb_factory?3?3make_server?5fa@ 0000000180042ce0     governor.obj
 0002:0000ad38       ??_C@_0DH@KIBCKMGJ@Attempt?5to?5terminate?5nested?5sche@ 0000000180042d38     governor.obj
 0002:0000ad70       ??_C@_0BF@GGEIPNG@BlockingTSI?$CB?$DNtsi_ptr?$AA@ 0000000180042d70     governor.obj
 0002:0000ad88       ??_C@_0BL@FPGIDODM@?4?4?2?4?4?2src?2tbb?2governor?4cpp?$AA@ 0000000180042d88     governor.obj
 0002:0000ada8       ??_C@_07NMPLPEPB@private?$AA@ 0000000180042da8     governor.obj
 0002:0000adb0       ??_C@_03JLDBPJFA@RML?$AA@  0000000180042db0     governor.obj
 0002:0000adb4       ??_C@_06HBFNPGIC@shared?$AA@ 0000000180042db4     governor.obj
 0002:0000adbc       ??_C@_04KKJPNPKG@CILK?$AA@ 0000000180042dbc     governor.obj
 0002:0000adc8       ??_C@_0CI@FEEFPDEA@task_scheduler_init?5already?5init@ 0000000180042dc8     governor.obj
 0002:0000adf0       ??_C@_0O@EHPHBEHA@?$CBmy_scheduler?$AA@ 0000000180042df0     governor.obj
 0002:0000ae00       ??_C@_0EI@FPEPDFNA@number_of_threads?5for?5task_sched@ 0000000180042e00     governor.obj
 0002:0000ae48       ??_C@_0DG@OFDAIHDJ@number_of_threads?$DN?$DNautomatic?5?$HM?$HM?5@ 0000000180042e48     governor.obj
 0002:0000ae80       ??_C@_0DD@OLKEFAFM@deferred?5initialization?5ignores?5@ 0000000180042e80     governor.obj
 0002:0000aeb8       ??_C@_0BD@HLGLDMJK@?$CBthread_stack_size?$AA@ 0000000180042eb8     governor.obj
 0002:0000aed0       ??_C@_0FH@JCMDLEKA@task_scheduler_init?3?3terminate?5w@ 0000000180042ed0     governor.obj
 0002:0000af28       ??_C@_01LKDEMHDF@s?$AA@    0000000180042f28     governor.obj
 0002:0000af38       ??_7market@internal@tbb@@6B@ 0000000180042f38     market.obj
 0002:0000af80       ??_C@_0KO@MFJKMICN@The?5number?5of?5workers?5is?5current@ 0000000180042f80     market.obj
 0002:0000b030       ??_C@_0GG@IIAMABLO@Thread?5stack?5size?5has?5been?5alrea@ 0000000180043030     market.obj
 0002:0000b0a0       ??_C@_0EE@LMBAAMHN@RML?5might?5limit?5the?5number?5of?5wo@ 00000001800430a0     market.obj
 0002:0000b0e8       ??_C@_1CE@NGMICMCB@?$AAT?$AAB?$AAB?$AA?5?$AAW?$AAo?$AAr?$AAk?$AAe?$AAr?$AA?5?$AAT?$AAh?$AAr?$AAe?$AAa?$AAd?$AA?$AA@ 00000001800430e8     market.obj
 0002:0000b110       ??_C@_0BC@KBDMBKEH@deque?$DMT?$DO?5too?5long?$AA@ 0000000180043110     arena.obj
 0002:0000b130       ??_7empty_task@tbb@@6B@    0000000180043130     arena.obj
 0002:0000b150       ??_7wait_task@internal@interface7@tbb@@6B@ 0000000180043150     arena.obj
 0002:0000b170       ??_7delegated_task@internal@interface7@tbb@@6B@ 0000000180043170     arena.obj
 0002:0000b190       ??_7scheduler@internal@tbb@@6B@ 0000000180043190     scheduler.obj
 0002:0000b1c0       ??_7generic_scheduler@internal@tbb@@6B@ 00000001800431c0     scheduler.obj
 0002:0000b200       ??_7?$custom_scheduler@UIntelSchedulerTraits@internal@tbb@@@internal@tbb@@6B@ 0000000180043200     scheduler.obj
 0002:0000b240       ??_7?$custom_scheduler@UDefaultSchedulerTraits@internal@tbb@@@internal@tbb@@6B@ 0000000180043240     scheduler.obj
 0002:0000b278       ??_C@_0M@EKHIKCEO@TBB_VERSION?$AA@ 0000000180043278     tbb_main.obj
 0002:0000b288       ??_C@_07MHHIKOPA@enabled?$AA@ 0000000180043288     tbb_main.obj
 0002:0000b290       ??_C@_08BEHKFNNO@disabled?$AA@ 0000000180043290     tbb_main.obj
 0002:0000b2a0       ??_C@_0O@LHPLOFAD@Tools?5support?$AA@ 00000001800432a0     tbb_main.obj
 0002:0000b2b0       ??_C@_0CJ@HDMCLBIG@my_param?5?$DM?5global_control?3?3param@ 00000001800432b0     tbb_main.obj
 0002:0000b2e0       ??_C@_0BL@BEGJDIKI@?4?4?2?4?4?2src?2tbb?2tbb_main?4cpp?$AA@ 00000001800432e0     tbb_main.obj
 0002:0000b300       ??_C@_0CG@PDFKBMHP@param?5?$DM?5global_control?3?3paramete@ 0000000180043300     tbb_main.obj
 0002:0000b330       ??_7stack_size_control@internal@tbb@@6B@ 0000000180043330     tbb_main.obj
 0002:0000b358       ??_7allowed_parallelism_control@internal@tbb@@6B@ 0000000180043358     tbb_main.obj
 0002:0000b380       ??_C@_0EN@BNMJDMF@argument?5to?5concurrent_vector?3?3r@ 0000000180043380     concurrent_vector_v2.obj
 0002:0000b3d8       ??_7concurrent_queue_base@internal@tbb@@6B@ 00000001800433d8     concurrent_queue_v2.obj
 0002:0000b3f0       __real@3ff0000000000000    00000001800433f0     condition_variable.obj
 0002:0000b3f8       __real@408f400000000000    00000001800433f8     tbb_thread.obj
 0002:0000b400       __real@41efffffffe00000    0000000180043400     tbb_thread.obj
 0002:0000b410       __xmm@00000000cdcdcdcd00000000cdcdcdcd 0000000180043410     concurrent_queue.obj
 0002:0000c050       _load_config_used          0000000180044050     LIBCMT:loadcfg.obj
 0002:0000c0f0       ??_R4bad_exception@std@@6B@ 00000001800440f0     libcpmt:excptptr.obj
 0002:0000c118       ??_R3bad_exception@std@@8  0000000180044118     libcpmt:excptptr.obj
 0002:0000c130       ??_R2bad_exception@std@@8  0000000180044130     libcpmt:excptptr.obj
 0002:0000c148       ??_R1A@?0A@EA@bad_exception@std@@8 0000000180044148     libcpmt:excptptr.obj
 0002:0000c170       ??_R4_Ref_count_base@std@@6B@ 0000000180044170     libcpmt:excptptr.obj
 0002:0000c198       ??_R3_Ref_count_base@std@@8 0000000180044198     libcpmt:excptptr.obj
 0002:0000c1b0       ??_R2_Ref_count_base@std@@8 00000001800441b0     libcpmt:excptptr.obj
 0002:0000c1c0       ??_R1A@?0A@EA@_Ref_count_base@std@@8 00000001800441c0     libcpmt:excptptr.obj
 0002:0000c1e8       ??_R4?$_Ref_count_obj_alloc@V__ExceptionPtr@@U?$_StaticAllocator@H@@@std@@6B@ 00000001800441e8     libcpmt:excptptr.obj
 0002:0000c210       ??_R3?$_Ref_count_obj_alloc@V__ExceptionPtr@@U?$_StaticAllocator@H@@@std@@8 0000000180044210     libcpmt:excptptr.obj
 0002:0000c228       ??_R2?$_Ref_count_obj_alloc@V__ExceptionPtr@@U?$_StaticAllocator@H@@@std@@8 0000000180044228     libcpmt:excptptr.obj
 0002:0000c240       ??_R1A@?0A@EA@?$_Ref_count_obj_alloc@V__ExceptionPtr@@U?$_StaticAllocator@H@@@std@@8 0000000180044240     libcpmt:excptptr.obj
 0002:0000c268       ??_R4?$_Ref_count_obj@V__ExceptionPtr@@@std@@6B@ 0000000180044268     libcpmt:excptptr.obj
 0002:0000c290       ??_R3?$_Ref_count_obj@V__ExceptionPtr@@@std@@8 0000000180044290     libcpmt:excptptr.obj
 0002:0000c2a8       ??_R2?$_Ref_count_obj@V__ExceptionPtr@@@std@@8 00000001800442a8     libcpmt:excptptr.obj
 0002:0000c2c0       ??_R1A@?0A@EA@?$_Ref_count_obj@V__ExceptionPtr@@@std@@8 00000001800442c0     libcpmt:excptptr.obj
 0002:0000c2e8       ??_R4type_info@@6B@        00000001800442e8     LIBCMT:std_type_info_static.obj
 0002:0000c310       ??_R3type_info@@8          0000000180044310     LIBCMT:std_type_info_static.obj
 0002:0000c328       ??_R2type_info@@8          0000000180044328     LIBCMT:std_type_info_static.obj
 0002:0000c338       ??_R1A@?0A@EA@type_info@@8 0000000180044338     LIBCMT:std_type_info_static.obj
 0002:0000c360       ??_R4bad_array_new_length@std@@6B@ 0000000180044360     LIBCMT:throw_bad_alloc.obj
 0002:0000c388       ??_R3bad_array_new_length@std@@8 0000000180044388     LIBCMT:throw_bad_alloc.obj
 0002:0000c3a0       ??_R2bad_array_new_length@std@@8 00000001800443a0     LIBCMT:throw_bad_alloc.obj
 0002:0000c3c0       ??_R1A@?0A@EA@bad_array_new_length@std@@8 00000001800443c0     LIBCMT:throw_bad_alloc.obj
 0002:0000c3e8       ??_R4bad_typeid@std@@6B@   00000001800443e8     libvcruntime:rtti.obj
 0002:0000c410       ??_R3bad_typeid@std@@8     0000000180044410     libvcruntime:rtti.obj
 0002:0000c428       ??_R2bad_typeid@std@@8     0000000180044428     libvcruntime:rtti.obj
 0002:0000c440       ??_R1A@?0A@EA@bad_typeid@std@@8 0000000180044440     libvcruntime:rtti.obj
 0002:0000c468       ??_R4__non_rtti_object@std@@6B@ 0000000180044468     libvcruntime:rtti.obj
 0002:0000c490       ??_R3__non_rtti_object@std@@8 0000000180044490     libvcruntime:rtti.obj
 0002:0000c4a8       ??_R2__non_rtti_object@std@@8 00000001800444a8     libvcruntime:rtti.obj
 0002:0000c4c8       ??_R1A@?0A@EA@__non_rtti_object@std@@8 00000001800444c8     libvcruntime:rtti.obj
 0002:0000c4f0       ??_R3DNameNode@@8          00000001800444f0     libvcruntime:undname.obj
 0002:0000c508       ??_R2DNameNode@@8          0000000180044508     libvcruntime:undname.obj
 0002:0000c518       ??_R1A@?0A@EA@DNameNode@@8 0000000180044518     libvcruntime:undname.obj
 0002:0000c540       ??_R4charNode@@6B@         0000000180044540     libvcruntime:undname.obj
 0002:0000c568       ??_R3charNode@@8           0000000180044568     libvcruntime:undname.obj
 0002:0000c580       ??_R2charNode@@8           0000000180044580     libvcruntime:undname.obj
 0002:0000c598       ??_R1A@?0A@EA@charNode@@8  0000000180044598     libvcruntime:undname.obj
 0002:0000c5c0       ??_R4pcharNode@@6B@        00000001800445c0     libvcruntime:undname.obj
 0002:0000c5e8       ??_R3pcharNode@@8          00000001800445e8     libvcruntime:undname.obj
 0002:0000c600       ??_R2pcharNode@@8          0000000180044600     libvcruntime:undname.obj
 0002:0000c618       ??_R1A@?0A@EA@pcharNode@@8 0000000180044618     libvcruntime:undname.obj
 0002:0000c640       ??_R4pDNameNode@@6B@       0000000180044640     libvcruntime:undname.obj
 0002:0000c668       ??_R3pDNameNode@@8         0000000180044668     libvcruntime:undname.obj
 0002:0000c680       ??_R2pDNameNode@@8         0000000180044680     libvcruntime:undname.obj
 0002:0000c698       ??_R1A@?0A@EA@pDNameNode@@8 0000000180044698     libvcruntime:undname.obj
 0002:0000c6c0       ??_R4DNameStatusNode@@6B@  00000001800446c0     libvcruntime:undname.obj
 0002:0000c6e8       ??_R3DNameStatusNode@@8    00000001800446e8     libvcruntime:undname.obj
 0002:0000c700       ??_R2DNameStatusNode@@8    0000000180044700     libvcruntime:undname.obj
 0002:0000c718       ??_R1A@?0A@EA@DNameStatusNode@@8 0000000180044718     libvcruntime:undname.obj
 0002:0000c740       ??_R4pairNode@@6B@         0000000180044740     libvcruntime:undname.obj
 0002:0000c768       ??_R3pairNode@@8           0000000180044768     libvcruntime:undname.obj
 0002:0000c780       ??_R2pairNode@@8           0000000180044780     libvcruntime:undname.obj
 0002:0000c798       ??_R1A@?0A@EA@pairNode@@8  0000000180044798     libvcruntime:undname.obj
 0002:0000c7c0       ??_R17?0A@EN@no_copy@internal@tbb@@8 00000001800447c0     concurrent_queue.obj
 0002:0000c7e8       ??_R2no_copy@internal@tbb@@8 00000001800447e8     concurrent_queue.obj
 0002:0000c800       ??_R1A@?0A@EA@no_copy@internal@tbb@@8 0000000180044800     concurrent_queue.obj
 0002:0000c828       ??_R1A@?0A@EN@no_assign@internal@tbb@@8 0000000180044828     concurrent_queue.obj
 0002:0000c850       ??_R1A@?0A@EA@no_assign@internal@tbb@@8 0000000180044850     concurrent_queue.obj
 0002:0000c878       ??_R17?0A@EN@no_assign@internal@tbb@@8 0000000180044878     concurrent_queue.obj
 0002:0000c8a0       ??_R2concurrent_queue_base_v3@internal@tbb@@8 00000001800448a0     concurrent_queue.obj
 0002:0000c8c0       ??_R3concurrent_queue_base_v3@internal@tbb@@8 00000001800448c0     concurrent_queue.obj
 0002:0000c8d8       ??_R3no_copy@internal@tbb@@8 00000001800448d8     concurrent_queue.obj
 0002:0000c8f0       ??_R1A@?0A@EA@concurrent_queue_base_v3@internal@tbb@@8 00000001800448f0     concurrent_queue.obj
 0002:0000c918       ??_R2no_assign@internal@tbb@@8 0000000180044918     concurrent_queue.obj
 0002:0000c928       ??_R3no_assign@internal@tbb@@8 0000000180044928     concurrent_queue.obj
 0002:0000c940       ??_R4concurrent_queue_base_v3@internal@tbb@@6B@ 0000000180044940     concurrent_queue.obj
 0002:0000c968       ??_R1A@?0A@EN@no_copy@internal@tbb@@8 0000000180044968     pipeline.obj
 0002:0000c990       ??_R4pipeline@tbb@@6B@     0000000180044990     pipeline.obj
 0002:0000c9b8       ??_R4stage_task@internal@tbb@@6B@ 00000001800449b8     pipeline.obj
 0002:0000c9e0       ??_R1A@?0A@EA@stage_task@internal@tbb@@8 00000001800449e0     pipeline.obj
 0002:0000ca08       ??_R2task_info@internal@tbb@@8 0000000180044a08     pipeline.obj
 0002:0000ca18       ??_R4pipeline_root_task@internal@tbb@@6B@ 0000000180044a18     pipeline.obj
 0002:0000ca40       ??_R2filter@tbb@@8         0000000180044a40     pipeline.obj
 0002:0000ca60       ??_R2task_base@internal@interface5@tbb@@8 0000000180044a60     pipeline.obj
 0002:0000ca80       ??_R3stage_task@internal@tbb@@8 0000000180044a80     pipeline.obj
 0002:0000ca98       ??_R2pipeline@tbb@@8       0000000180044a98     pipeline.obj
 0002:0000caa8       ??_R17?0A@EA@task_info@internal@tbb@@8 0000000180044aa8     pipeline.obj
 0002:0000cad0       ??_R1A@?0A@EA@filter@tbb@@8 0000000180044ad0     pipeline.obj
 0002:0000caf8       ??_R2pipeline_root_task@internal@tbb@@8 0000000180044af8     pipeline.obj
 0002:0000cb28       ??_R3filter@tbb@@8         0000000180044b28     pipeline.obj
 0002:0000cb40       ??_R1A@?0A@EA@task_base@internal@interface5@tbb@@8 0000000180044b40     pipeline.obj
 0002:0000cb68       ??_R3task_info@internal@tbb@@8 0000000180044b68     pipeline.obj
 0002:0000cb80       ??_R3pipeline@tbb@@8       0000000180044b80     pipeline.obj
 0002:0000cb98       ??_R17?0A@EA@task_base@internal@interface5@tbb@@8 0000000180044b98     pipeline.obj
 0002:0000cbc0       ??_R2task@tbb@@8           0000000180044bc0     pipeline.obj
 0002:0000cbe8       ??_R3pipeline_root_task@internal@tbb@@8 0000000180044be8     pipeline.obj
 0002:0000cc00       ??_R1A@?0A@EA@pipeline_root_task@internal@tbb@@8 0000000180044c00     pipeline.obj
 0002:0000cc28       ??_R1A@?0A@EA@pipeline@tbb@@8 0000000180044c28     pipeline.obj
 0002:0000cc50       ??_R1A@?0A@EA@task@tbb@@8  0000000180044c50     pipeline.obj
 0002:0000cc78       ??_R4filter@tbb@@6B@       0000000180044c78     pipeline.obj
 0002:0000cca0       ??_R4task@tbb@@6B@         0000000180044ca0     pipeline.obj
 0002:0000ccc8       ??_R3task@tbb@@8           0000000180044cc8     pipeline.obj
 0002:0000cce0       ??_R1A@?0A@EA@task_info@internal@tbb@@8 0000000180044ce0     pipeline.obj
 0002:0000cd08       ??_R2stage_task@internal@tbb@@8 0000000180044d08     pipeline.obj
 0002:0000cd40       ??_R3task_base@internal@interface5@tbb@@8 0000000180044d40     pipeline.obj
 0002:0000cd58       ??_R3tbb_server@rml@internal@tbb@@8 0000000180044d58     private_server.obj
 0002:0000cd70       ??_R3private_server@rml@internal@tbb@@8 0000000180044d70     private_server.obj
 0002:0000cd88       ??_R2private_server@rml@internal@tbb@@8 0000000180044d88     private_server.obj
 0002:0000cdc0       ??_R2tbb_server@rml@internal@tbb@@8 0000000180044dc0     private_server.obj
 0002:0000cde0       ??_R1A@?0A@EA@versioned_object@rml@@8 0000000180044de0     private_server.obj
 0002:0000ce08       ??_R3versioned_object@rml@@8 0000000180044e08     private_server.obj
 0002:0000ce20       ??_R2versioned_object@rml@@8 0000000180044e20     private_server.obj
 0002:0000ce30       ??_R1A@?0A@EA@tbb_server@rml@internal@tbb@@8 0000000180044e30     private_server.obj
 0002:0000ce58       ??_R1A@?0A@EA@server@rml@@8 0000000180044e58     private_server.obj
 0002:0000ce80       ??_R2server@rml@@8         0000000180044e80     private_server.obj
 0002:0000ce98       ??_R3server@rml@@8         0000000180044e98     private_server.obj
 0002:0000ceb0       ??_R1A@?0A@EA@private_server@rml@internal@tbb@@8 0000000180044eb0     private_server.obj
 0002:0000ced8       ??_R4private_server@rml@internal@tbb@@6B@ 0000000180044ed8     private_server.obj
 0002:0000cf00       ??_R1A@?0A@EA@logic_error@std@@8 0000000180044f00     tbb_misc.obj
 0002:0000cf28       ??_R4exception@std@@6B@    0000000180044f28     tbb_misc.obj
 0002:0000cf50       ??_R2length_error@std@@8   0000000180044f50     tbb_misc.obj
 0002:0000cf70       ??_R4runtime_error@std@@6B@ 0000000180044f70     tbb_misc.obj
 0002:0000cf98       ??_R1A@?0A@EA@invalid_multiple_scheduling@tbb@@8 0000000180044f98     tbb_misc.obj
 0002:0000cfc0       ??_R4improper_lock@tbb@@6B@ 0000000180044fc0     tbb_misc.obj
 0002:0000cfe8       ??_R2invalid_multiple_scheduling@tbb@@8 0000000180044fe8     tbb_misc.obj
 0002:0000d000       ??_R2bad_alloc@std@@8      0000000180045000     tbb_misc.obj
 0002:0000d018       ??_R2improper_lock@tbb@@8  0000000180045018     tbb_misc.obj
 0002:0000d030       ??_R1A@?0A@EA@bad_last_alloc@tbb@@8 0000000180045030     tbb_misc.obj
 0002:0000d058       ??_R3invalid_argument@std@@8 0000000180045058     tbb_misc.obj
 0002:0000d070       ??_R1A@?0A@EA@runtime_error@std@@8 0000000180045070     tbb_misc.obj
 0002:0000d098       ??_R1A@?0A@EA@missing_wait@tbb@@8 0000000180045098     tbb_misc.obj
 0002:0000d0c0       ??_R2invalid_argument@std@@8 00000001800450c0     tbb_misc.obj
 0002:0000d0e0       ??_R1A@?0A@EA@exception@std@@8 00000001800450e0     tbb_misc.obj
 0002:0000d108       ??_R1A@?0A@EA@bad_alloc@std@@8 0000000180045108     tbb_misc.obj
 0002:0000d130       ??_R2bad_last_alloc@tbb@@8 0000000180045130     tbb_misc.obj
 0002:0000d150       ??_R2logic_error@std@@8    0000000180045150     tbb_misc.obj
 0002:0000d168       ??_R4length_error@std@@6B@ 0000000180045168     tbb_misc.obj
 0002:0000d190       ??_R2range_error@std@@8    0000000180045190     tbb_misc.obj
 0002:0000d1b0       ??_R2exception@std@@8      00000001800451b0     tbb_misc.obj
 0002:0000d1c0       ??_R4invalid_argument@std@@6B@ 00000001800451c0     tbb_misc.obj
 0002:0000d1e8       ??_R3invalid_multiple_scheduling@tbb@@8 00000001800451e8     tbb_misc.obj
 0002:0000d200       ??_R1A@?0A@EA@invalid_argument@std@@8 0000000180045200     tbb_misc.obj
 0002:0000d228       ??_R4bad_last_alloc@tbb@@6B@ 0000000180045228     tbb_misc.obj
 0002:0000d250       ??_R1A@?0A@EA@out_of_range@std@@8 0000000180045250     tbb_misc.obj
 0002:0000d278       ??_R3length_error@std@@8   0000000180045278     tbb_misc.obj
 0002:0000d290       ??_R4out_of_range@std@@6B@ 0000000180045290     tbb_misc.obj
 0002:0000d2b8       ??_R3bad_last_alloc@tbb@@8 00000001800452b8     tbb_misc.obj
 0002:0000d2d0       ??_R3logic_error@std@@8    00000001800452d0     tbb_misc.obj
 0002:0000d2e8       ??_R1A@?0A@EA@range_error@std@@8 00000001800452e8     tbb_misc.obj
 0002:0000d310       ??_R3exception@std@@8      0000000180045310     tbb_misc.obj
 0002:0000d328       ??_R3user_abort@tbb@@8     0000000180045328     tbb_misc.obj
 0002:0000d340       ??_R4logic_error@std@@6B@  0000000180045340     tbb_misc.obj
 0002:0000d368       ??_R3missing_wait@tbb@@8   0000000180045368     tbb_misc.obj
 0002:0000d380       ??_R2user_abort@tbb@@8     0000000180045380     tbb_misc.obj
 0002:0000d398       ??_R2out_of_range@std@@8   0000000180045398     tbb_misc.obj
 0002:0000d3b8       ??_R1A@?0A@EA@improper_lock@tbb@@8 00000001800453b8     tbb_misc.obj
 0002:0000d3e0       ??_R4bad_alloc@std@@6B@    00000001800453e0     tbb_misc.obj
 0002:0000d408       ??_R3out_of_range@std@@8   0000000180045408     tbb_misc.obj
 0002:0000d420       ??_R4invalid_multiple_scheduling@tbb@@6B@ 0000000180045420     tbb_misc.obj
 0002:0000d448       ??_R4user_abort@tbb@@6B@   0000000180045448     tbb_misc.obj
 0002:0000d470       ??_R1A@?0A@EA@user_abort@tbb@@8 0000000180045470     tbb_misc.obj
 0002:0000d498       ??_R3bad_alloc@std@@8      0000000180045498     tbb_misc.obj
 0002:0000d4b0       ??_R4missing_wait@tbb@@6B@ 00000001800454b0     tbb_misc.obj
 0002:0000d4d8       ??_R2runtime_error@std@@8  00000001800454d8     tbb_misc.obj
 0002:0000d4f0       ??_R2missing_wait@tbb@@8   00000001800454f0     tbb_misc.obj
 0002:0000d508       ??_R3range_error@std@@8    0000000180045508     tbb_misc.obj
 0002:0000d520       ??_R1A@?0A@EA@length_error@std@@8 0000000180045520     tbb_misc.obj
 0002:0000d548       ??_R4range_error@std@@6B@  0000000180045548     tbb_misc.obj
 0002:0000d570       ??_R3runtime_error@std@@8  0000000180045570     tbb_misc.obj
 0002:0000d588       ??_R3improper_lock@tbb@@8  0000000180045588     tbb_misc.obj
 0002:0000d5a0       ??_R1A@?0A@EA@tbb_exception@tbb@@8 00000001800455a0     task_group_context.obj
 0002:0000d5c8       ??_R2tbb_exception@tbb@@8  00000001800455c8     task_group_context.obj
 0002:0000d5e0       ??_R4tbb_exception@tbb@@6B@ 00000001800455e0     task_group_context.obj
 0002:0000d608       ??_R2captured_exception@tbb@@8 0000000180045608     task_group_context.obj
 0002:0000d628       ??_R4captured_exception@tbb@@6B@ 0000000180045628     task_group_context.obj
 0002:0000d650       ??_R1A@?0A@EA@captured_exception@tbb@@8 0000000180045650     task_group_context.obj
 0002:0000d678       ??_R3captured_exception@tbb@@8 0000000180045678     task_group_context.obj
 0002:0000d690       ??_R3tbb_exception@tbb@@8  0000000180045690     task_group_context.obj
 0002:0000d6a8       ??_R1A@?0A@EJ@versioned_object@rml@@8 00000001800456a8     market.obj
 0002:0000d6d0       ??_R2client@rml@@8         00000001800456d0     market.obj
 0002:0000d6e8       ??_R1A@?0A@EJ@client@rml@@8 00000001800456e8     market.obj
 0002:0000d710       ??_R4market@internal@tbb@@6B@ 0000000180045710     market.obj
 0002:0000d738       ??_R3client@rml@@8         0000000180045738     market.obj
 0002:0000d750       ??_R1A@?0A@EA@tbb_client@rml@internal@tbb@@8 0000000180045750     market.obj
 0002:0000d778       ??_R1A@?0A@EA@client@rml@@8 0000000180045778     market.obj
 0002:0000d7a0       ??_R1A@?0A@EA@market@internal@tbb@@8 00000001800457a0     market.obj
 0002:0000d7c8       ??_R3market@internal@tbb@@8 00000001800457c8     market.obj
 0002:0000d7e0       ??_R3tbb_client@rml@internal@tbb@@8 00000001800457e0     market.obj
 0002:0000d7f8       ??_R2tbb_client@rml@internal@tbb@@8 00000001800457f8     market.obj
 0002:0000d818       ??_R2market@internal@tbb@@8 0000000180045818     market.obj
 0002:0000d850       ??_R1A@?0A@EN@tbb_client@rml@internal@tbb@@8 0000000180045850     market.obj
 0002:0000d878       ??_R2delegated_task@internal@interface7@tbb@@8 0000000180045878     arena.obj
 0002:0000d8a8       ??_R2empty_task@tbb@@8     00000001800458a8     arena.obj
 0002:0000d8d8       ??_R2wait_task@internal@interface7@tbb@@8 00000001800458d8     arena.obj
 0002:0000d908       ??_R3delegated_task@internal@interface7@tbb@@8 0000000180045908     arena.obj
 0002:0000d920       ??_R4empty_task@tbb@@6B@   0000000180045920     arena.obj
 0002:0000d948       ??_R4delegated_task@internal@interface7@tbb@@6B@ 0000000180045948     arena.obj
 0002:0000d970       ??_R1A@?0A@EA@empty_task@tbb@@8 0000000180045970     arena.obj
 0002:0000d998       ??_R3empty_task@tbb@@8     0000000180045998     arena.obj
 0002:0000d9b0       ??_R4wait_task@internal@interface7@tbb@@6B@ 00000001800459b0     arena.obj
 0002:0000d9d8       ??_R1A@?0A@EA@wait_task@internal@interface7@tbb@@8 00000001800459d8     arena.obj
 0002:0000da00       ??_R3wait_task@internal@interface7@tbb@@8 0000000180045a00     arena.obj
 0002:0000da18       ??_R1A@?0A@EA@delegated_task@internal@interface7@tbb@@8 0000000180045a18     arena.obj
 0002:0000da40       ??_R1A@?0A@EA@job@rml@@8   0000000180045a40     scheduler.obj
 0002:0000da68       ??_R3scheduler_state@internal@tbb@@8 0000000180045a68     scheduler.obj
 0002:0000da80       ??_R3intrusive_list_node@internal@tbb@@8 0000000180045a80     scheduler.obj
 0002:0000da98       ??_R4generic_scheduler@internal@tbb@@6B@ 0000000180045a98     scheduler.obj
 0002:0000dac0       ??_R2?$custom_scheduler@UDefaultSchedulerTraits@internal@tbb@@@internal@tbb@@8 0000000180045ac0     scheduler.obj
 0002:0000db08       ??_R1BA@?0A@EJ@intrusive_list_node@internal@tbb@@8 0000000180045b08     scheduler.obj
 0002:0000db30       ??_R1CA@?0A@EJ@scheduler_state@internal@tbb@@8 0000000180045b30     scheduler.obj
 0002:0000db58       ??_R4?$custom_scheduler@UDefaultSchedulerTraits@internal@tbb@@@internal@tbb@@6B@ 0000000180045b58     scheduler.obj
 0002:0000db80       ??_R4scheduler@internal@tbb@@6B@ 0000000180045b80     scheduler.obj
 0002:0000dba8       ??_R1A@?0A@EA@?$custom_scheduler@UDefaultSchedulerTraits@internal@tbb@@@internal@tbb@@8 0000000180045ba8     scheduler.obj
 0002:0000dbd0       ??_R2?$custom_scheduler@UIntelSchedulerTraits@internal@tbb@@@internal@tbb@@8 0000000180045bd0     scheduler.obj
 0002:0000dc18       ??_R2intrusive_list_node@internal@tbb@@8 0000000180045c18     scheduler.obj
 0002:0000dc28       ??_R2generic_scheduler@internal@tbb@@8 0000000180045c28     scheduler.obj
 0002:0000dc68       ??_R3generic_scheduler@internal@tbb@@8 0000000180045c68     scheduler.obj
 0002:0000dc80       ??_R1A@?0A@EN@generic_scheduler@internal@tbb@@8 0000000180045c80     scheduler.obj
 0002:0000dca8       ??_R3?$custom_scheduler@UDefaultSchedulerTraits@internal@tbb@@@internal@tbb@@8 0000000180045ca8     scheduler.obj
 0002:0000dcc0       ??_R3scheduler@internal@tbb@@8 0000000180045cc0     scheduler.obj
 0002:0000dcd8       ??_R2scheduler@internal@tbb@@8 0000000180045cd8     scheduler.obj
 0002:0000dcf8       ??_R1BA@?0A@EA@intrusive_list_node@internal@tbb@@8 0000000180045cf8     scheduler.obj
 0002:0000dd20       ??_R1A@?0A@EJ@scheduler@internal@tbb@@8 0000000180045d20     scheduler.obj
 0002:0000dd48       ??_R1A@?0A@EA@generic_scheduler@internal@tbb@@8 0000000180045d48     scheduler.obj
 0002:0000dd70       ??_R2scheduler_state@internal@tbb@@8 0000000180045d70     scheduler.obj
 0002:0000dd80       ??_R1A@?0A@EA@?$custom_scheduler@UIntelSchedulerTraits@internal@tbb@@@internal@tbb@@8 0000000180045d80     scheduler.obj
 0002:0000dda8       ??_R2job@rml@@8            0000000180045da8     scheduler.obj
 0002:0000ddb8       ??_R17?0A@EA@job@rml@@8    0000000180045db8     scheduler.obj
 0002:0000dde0       ??_R17?0A@EJ@job@rml@@8    0000000180045de0     scheduler.obj
 0002:0000de08       ??_R1A@?0A@EA@intrusive_list_node@internal@tbb@@8 0000000180045e08     scheduler.obj
 0002:0000de30       ??_R3job@rml@@8            0000000180045e30     scheduler.obj
 0002:0000de48       ??_R1A@?0A@EA@scheduler_state@internal@tbb@@8 0000000180045e48     scheduler.obj
 0002:0000de70       ??_R1CA@?0A@EA@scheduler_state@internal@tbb@@8 0000000180045e70     scheduler.obj
 0002:0000de98       ??_R1A@?0A@EA@scheduler@internal@tbb@@8 0000000180045e98     scheduler.obj
 0002:0000dec0       ??_R3?$custom_scheduler@UIntelSchedulerTraits@internal@tbb@@@internal@tbb@@8 0000000180045ec0     scheduler.obj
 0002:0000ded8       ??_R4?$custom_scheduler@UIntelSchedulerTraits@internal@tbb@@@internal@tbb@@6B@ 0000000180045ed8     scheduler.obj
 0002:0000df00       ??_R3control_storage@internal@tbb@@8 0000000180045f00     tbb_main.obj
 0002:0000df18       ??_R2?$padded_base@Vcontrol_storage@internal@tbb@@$0IA@$0CA@@internal@tbb@@8 0000000180045f18     tbb_main.obj
 0002:0000df30       ??_R3?$padded@Vcontrol_storage@internal@tbb@@$0IA@@internal@tbb@@8 0000000180045f30     tbb_main.obj
 0002:0000df48       ??_R4allowed_parallelism_control@internal@tbb@@6B@ 0000000180045f48     tbb_main.obj
 0002:0000df70       ??_R1A@?0A@EA@?$padded@Vcontrol_storage@internal@tbb@@$0IA@@internal@tbb@@8 0000000180045f70     tbb_main.obj
 0002:0000df98       ??_R1A@?0A@EA@control_storage@internal@tbb@@8 0000000180045f98     tbb_main.obj
 0002:0000dfc0       ??_R2control_storage@internal@tbb@@8 0000000180045fc0     tbb_main.obj
 0002:0000dfd0       ??_R2?$padded@Vcontrol_storage@internal@tbb@@$0IA@@internal@tbb@@8 0000000180045fd0     tbb_main.obj
 0002:0000dff0       ??_R3?$padded_base@Vcontrol_storage@internal@tbb@@$0IA@$0CA@@internal@tbb@@8 0000000180045ff0     tbb_main.obj
 0002:0000e008       ??_R3stack_size_control@internal@tbb@@8 0000000180046008     tbb_main.obj
 0002:0000e020       ??_R1A@?0A@EA@stack_size_control@internal@tbb@@8 0000000180046020     tbb_main.obj
 0002:0000e048       ??_R2stack_size_control@internal@tbb@@8 0000000180046048     tbb_main.obj
 0002:0000e070       ??_R1A@?0A@EA@allowed_parallelism_control@internal@tbb@@8 0000000180046070     tbb_main.obj
 0002:0000e098       ??_R1A@?0A@EA@?$padded_base@Vcontrol_storage@internal@tbb@@$0IA@$0CA@@internal@tbb@@8 0000000180046098     tbb_main.obj
 0002:0000e0c0       ??_R3allowed_parallelism_control@internal@tbb@@8 00000001800460c0     tbb_main.obj
 0002:0000e0d8       ??_R2allowed_parallelism_control@internal@tbb@@8 00000001800460d8     tbb_main.obj
 0002:0000e100       ??_R4stack_size_control@internal@tbb@@6B@ 0000000180046100     tbb_main.obj
 0002:0000e128       ??_R2concurrent_queue_base@internal@tbb@@8 0000000180046128     concurrent_queue_v2.obj
 0002:0000e148       ??_R1A@?0A@EA@concurrent_queue_base@internal@tbb@@8 0000000180046148     concurrent_queue_v2.obj
 0002:0000e170       ??_R3concurrent_queue_base@internal@tbb@@8 0000000180046170     concurrent_queue_v2.obj
 0002:0000e188       ??_R4concurrent_queue_base@internal@tbb@@6B@ 0000000180046188     concurrent_queue_v2.obj
 0002:0000e580       __rtc_iaa                  0000000180046580     LIBCMT:_initsect_.obj
 0002:0000e588       __rtc_izz                  0000000180046588     LIBCMT:_initsect_.obj
 0002:0000e590       __rtc_taa                  0000000180046590     LIBCMT:_initsect_.obj
 0002:0000e598       __rtc_tzz                  0000000180046598     LIBCMT:_initsect_.obj
 0002:00012bc8       _TI2?AVbad_exception@std@@ 000000018004abc8     libcpmt:excptptr.obj
 0002:00012be8       _CTA2?AVbad_exception@std@@ 000000018004abe8     libcpmt:excptptr.obj
 0002:00012c00       _CT??_R0?AVbad_exception@std@@@8??0bad_exception@std@@QEAA@AEBV01@@Z24 000000018004ac00     libcpmt:excptptr.obj
 0002:00012c28       _TI3?AVbad_array_new_length@std@@ 000000018004ac28     LIBCMT:throw_bad_alloc.obj
 0002:00012c48       _CTA3?AVbad_array_new_length@std@@ 000000018004ac48     LIBCMT:throw_bad_alloc.obj
 0002:00012c68       _CT??_R0?AVbad_array_new_length@std@@@8??0bad_array_new_length@std@@QEAA@AEBV01@@Z24 000000018004ac68     LIBCMT:throw_bad_alloc.obj
 0002:00012c90       _TI3?AV__non_rtti_object@std@@ 000000018004ac90     libvcruntime:rtti.obj
 0002:00012cb0       _CTA3?AV__non_rtti_object@std@@ 000000018004acb0     libvcruntime:rtti.obj
 0002:00012cd0       _CT??_R0?AV__non_rtti_object@std@@@8??0__non_rtti_object@std@@QEAA@AEBV01@@Z24 000000018004acd0     libvcruntime:rtti.obj
 0002:00012cf8       _CT??_R0?AVbad_typeid@std@@@8??0bad_typeid@std@@QEAA@AEBV01@@Z24 000000018004acf8     libvcruntime:rtti.obj
 0002:00012d20       _TI2?AVbad_typeid@std@@    000000018004ad20     libvcruntime:rtti.obj
 0002:00012d40       _CTA2?AVbad_typeid@std@@   000000018004ad40     libvcruntime:rtti.obj
 0002:00012d58       _CT??_R0?AVmissing_wait@tbb@@@8??0missing_wait@tbb@@QEAA@AEBV01@@Z24 000000018004ad58     tbb_misc.obj
 0002:00012d80       _CTA2?AVimproper_lock@tbb@@ 000000018004ad80     tbb_misc.obj
 0002:00012d98       _CTA3?AVrange_error@std@@  000000018004ad98     tbb_misc.obj
 0002:00012db8       _TI2?AVimproper_lock@tbb@@ 000000018004adb8     tbb_misc.obj
 0002:00012dd8       _CTA2?AVinvalid_multiple_scheduling@tbb@@ 000000018004add8     tbb_misc.obj
 0002:00012df0       _TI3?AVout_of_range@std@@  000000018004adf0     tbb_misc.obj
 0002:00012e10       _CTA3?AVlength_error@std@@ 000000018004ae10     tbb_misc.obj
 0002:00012e30       _TI3?AVrange_error@std@@   000000018004ae30     tbb_misc.obj
 0002:00012e50       _CTA2?AVbad_alloc@std@@    000000018004ae50     tbb_misc.obj
 0002:00012e68       _CT??_R0?AVlogic_error@std@@@8??0logic_error@std@@QEAA@AEBV01@@Z24 000000018004ae68     tbb_misc.obj
 0002:00012e90       _CT??_R0?AVinvalid_multiple_scheduling@tbb@@@8??0invalid_multiple_scheduling@tbb@@QEAA@AEBV01@@Z24 000000018004ae90     tbb_misc.obj
 0002:00012eb8       _TI2?AVbad_alloc@std@@     000000018004aeb8     tbb_misc.obj
 0002:00012ed8       _CT??_R0?AVbad_last_alloc@tbb@@@8??0bad_last_alloc@tbb@@QEAA@AEBV01@@Z24 000000018004aed8     tbb_misc.obj
 0002:00012f00       _TI3?AVinvalid_argument@std@@ 000000018004af00     tbb_misc.obj
 0002:00012f20       _CTA3?AVout_of_range@std@@ 000000018004af20     tbb_misc.obj
 0002:00012f40       _TI2?AVruntime_error@std@@ 000000018004af40     tbb_misc.obj
 0002:00012f60       _CT??_R0?AVimproper_lock@tbb@@@8??0improper_lock@tbb@@QEAA@AEBV01@@Z24 000000018004af60     tbb_misc.obj
 0002:00012f88       _CTA3?AVinvalid_argument@std@@ 000000018004af88     tbb_misc.obj
 0002:00012fa8       _CTA2?AVuser_abort@tbb@@   000000018004afa8     tbb_misc.obj
 0002:00012fc0       _CT??_R0?AVout_of_range@std@@@8??0out_of_range@std@@QEAA@AEBV01@@Z24 000000018004afc0     tbb_misc.obj
 0002:00012fe8       _CT??_R0?AVinvalid_argument@std@@@8??0invalid_argument@std@@QEAA@AEBV01@@Z24 000000018004afe8     tbb_misc.obj
 0002:00013010       _TI2?AVinvalid_multiple_scheduling@tbb@@ 000000018004b010     tbb_misc.obj
 0002:00013030       _CT??_R0?AVuser_abort@tbb@@@8??0user_abort@tbb@@QEAA@AEBV01@@Z24 000000018004b030     tbb_misc.obj
 0002:00013058       _CT??_R0?AVruntime_error@std@@@8??0runtime_error@std@@QEAA@AEBV01@@Z24 000000018004b058     tbb_misc.obj
 0002:00013080       _CT??_R0?AVlength_error@std@@@8??0length_error@std@@QEAA@AEBV01@@Z24 000000018004b080     tbb_misc.obj
 0002:000130a8       _TI3?AVlength_error@std@@  000000018004b0a8     tbb_misc.obj
 0002:000130c8       _CT??_R0?AVbad_alloc@std@@@8??0bad_alloc@std@@QEAA@AEBV01@@Z24 000000018004b0c8     tbb_misc.obj
 0002:000130f0       _CTA3?AVbad_last_alloc@tbb@@ 000000018004b0f0     tbb_misc.obj
 0002:00013110       _CTA2?AVruntime_error@std@@ 000000018004b110     tbb_misc.obj
 0002:00013128       _CTA2?AVmissing_wait@tbb@@ 000000018004b128     tbb_misc.obj
 0002:00013140       _TI3?AVbad_last_alloc@tbb@@ 000000018004b140     tbb_misc.obj
 0002:00013160       _TI2?AVmissing_wait@tbb@@  000000018004b160     tbb_misc.obj
 0002:00013180       _CT??_R0?AVexception@std@@@8??0exception@std@@QEAA@AEBV01@@Z24 000000018004b180     tbb_misc.obj
 0002:000131a8       _CT??_R0?AVrange_error@std@@@8??0range_error@std@@QEAA@AEBV01@@Z24 000000018004b1a8     tbb_misc.obj
 0002:000131d0       _TI2?AVuser_abort@tbb@@    000000018004b1d0     tbb_misc.obj
 0002:000131f0       _CT??_R0?AVtbb_exception@tbb@@@8??0tbb_exception@tbb@@QEAA@AEBV01@@Z24 000000018004b1f0     task_group_context.obj
 0002:00013218       _TI3?AVcaptured_exception@tbb@@ 000000018004b218     task_group_context.obj
 0002:00013238       _CTA3?AVcaptured_exception@tbb@@ 000000018004b238     task_group_context.obj
 0002:00013258       _CT??_R0?AVcaptured_exception@tbb@@@8??0captured_exception@tbb@@QEAA@AEBV01@@Z48 000000018004b258     task_group_context.obj
 0002:00017044       __IMPORT_DESCRIPTOR_KERNEL32 000000018004f044     kernel32:KERNEL32.dll
 0002:00017058       __NULL_IMPORT_DESCRIPTOR   000000018004f058     kernel32:KERNEL32.dll
 0003:00000010       __scrt_native_dllmain_reason 0000000180050010     LIBCMT:utility.obj
 0003:00000020       __security_cookie          0000000180050020     LIBCMT:gs_cookie.obj
 0003:00000028       __security_cookie_complement 0000000180050028     LIBCMT:gs_cookie.obj
 0003:00000030       __isa_available            0000000180050030     LIBCMT:_cpu_disp_.obj
 0003:00000034       __isa_enabled              0000000180050034     LIBCMT:_cpu_disp_.obj
 0003:00000038       __memcpy_nt_iters          0000000180050038     LIBCMT:_cpu_disp_.obj
 0003:00000060       _iob                       0000000180050060     libucrt:_file.obj
 0003:00000168       __abort_behavior           0000000180050168     libucrt:abort.obj
 0003:00000170       __badioinfo                0000000180050170     libucrt:ioinit.obj
 0003:000001b0       __acrt_initial_locale_data 00000001800501b0     libucrt:nlsdata.obj
 0003:00000308       __acrt_initial_locale_pointers 0000000180050308     libucrt:nlsdata.obj
 0003:00000318       __acrt_wide_c_locale_string 0000000180050318     libucrt:nlsdata.obj
 0003:00000320       __acrt_initial_multibyte_data 0000000180050320     libucrt:mbctype.obj
 0003:00000548       __acrt_current_multibyte_data 0000000180050548     libucrt:mbctype.obj
 0003:00000650       _mbctype                   0000000180050650     libucrt:mbctype.obj
 0003:00000760       _mbcasemap                 0000000180050760     libucrt:mbctype.obj
 0003:00000860       __globallocalestatus       0000000180050860     libucrt:glstatus.obj
 0003:00000870       __acrt_lconv_c             0000000180050870     libucrt:localeconv.obj
 0003:00000908       __acrt_lconv_static_decimal 0000000180050908     libucrt:localeconv.obj
 0003:0000090c       __acrt_lconv_static_W_decimal 000000018005090c     libucrt:localeconv.obj
 0003:00000910       __dcrt_lowio_console_output_handle 0000000180050910     libucrt:initcon.obj
 0003:00000924       _fltused                   0000000180050924     LIBCMT:fltused.obj
 0003:00000940       __itt_counter_inc_v3_ptr__3_0 0000000180050940     itt_notify.obj
 0003:00000948       __itt_fsync_acquired_ptr__3_0 0000000180050948     itt_notify.obj
 0003:00000950       __itt_heap_internal_access_begin_ptr__3_0 0000000180050950     itt_notify.obj
 0003:00000958       __itt_memory_write_ptr__3_0 0000000180050958     itt_notify.obj
 0003:00000960       __itt_model_iteration_taskW_ptr__3_0 0000000180050960     itt_notify.obj
 0003:00000968       __itt_mark_off_ptr__3_0    0000000180050968     itt_notify.obj
 0003:00000970       __itt_heap_function_createW_ptr__3_0 0000000180050970     itt_notify.obj
 0003:00000978       __itt_id_destroy_ex_ptr__3_0 0000000180050978     itt_notify.obj
 0003:00000980       __itt_memory_read_ptr__3_0 0000000180050980     itt_notify.obj
 0003:00000988       __itt_task_group_ptr__3_0  0000000180050988     itt_notify.obj
 0003:00000990       __itt_mark_createW_ptr__3_0 0000000180050990     itt_notify.obj
 0003:00000998       __itt_counter_destroy_ptr__3_0 0000000180050998     itt_notify.obj
 0003:000009a0       __itt_heap_reallocate_end_ptr__3_0 00000001800509a0     itt_notify.obj
 0003:000009a8       __itt_heap_record_memory_growth_begin_ptr__3_0 00000001800509a8     itt_notify.obj
 0003:000009b0       __itt_id_create_ptr__3_0   00000001800509b0     itt_notify.obj
 0003:000009b8       __itt_event_createA_ptr__3_0 00000001800509b8     itt_notify.obj
 0003:000009c0       __itt_task_end_overlapped_ex_ptr__3_0 00000001800509c0     itt_notify.obj
 0003:000009c8       __itt_heap_allocate_end_ptr__3_0 00000001800509c8     itt_notify.obj
 0003:000009d0       __itt_model_iteration_taskA_ptr__3_0 00000001800509d0     itt_notify.obj
 0003:000009d8       __itt_av_saveA_ptr__3_0    00000001800509d8     itt_notify.obj
 0003:000009e0       __itt_task_end_ptr__3_0    00000001800509e0     itt_notify.obj
 0003:000009e8       __itt_get_timestamp_ptr__3_0 00000001800509e8     itt_notify.obj
 0003:000009f0       __itt_notify_sync_nameA_ptr__3_0 00000001800509f0     itt_notify.obj
 0003:000009f8       __itt_task_begin_ptr__3_0  00000001800509f8     itt_notify.obj
 0003:00000a00       __itt_mark_globalW_ptr__3_0 0000000180050a00     itt_notify.obj
 0003:00000a08       __itt_task_begin_fn_ex_ptr__3_0 0000000180050a08     itt_notify.obj
 0003:00000a10       __itt_thread_set_nameA_ptr__3_0 0000000180050a10     itt_notify.obj
 0003:00000a18       __itt_id_create_ex_ptr__3_0 0000000180050a18     itt_notify.obj
 0003:00000b20       __itt_model_observe_uses_ptr__3_0 0000000180050b20     itt_notify.obj
 0003:00000b28       __itt_model_lock_release_ptr__3_0 0000000180050b28     itt_notify.obj
 0003:00000b30       __itt_model_reduction_uses_ptr__3_0 0000000180050b30     itt_notify.obj
 0003:00000b38       __itt_resume_ptr__3_0      0000000180050b38     itt_notify.obj
 0003:00000b40       __itt_suppress_push_ptr__3_0 0000000180050b40     itt_notify.obj
 0003:00000b48       __itt_model_lock_acquire_ptr__3_0 0000000180050b48     itt_notify.obj
 0003:00000b50       __itt_id_destroy_ptr__3_0  0000000180050b50     itt_notify.obj
 0003:00000b58       __itt_task_begin_fn_ptr__3_0 0000000180050b58     itt_notify.obj
 0003:00000b60       __itt_event_start_ptr__3_0 0000000180050b60     itt_notify.obj
 0003:00000b68       __itt_string_handle_createA_ptr__3_0 0000000180050b68     itt_notify.obj
 0003:00000b70       __itt_counter_createA_ptr__3_0 0000000180050b70     itt_notify.obj
 0003:00000b78       __itt_sync_createW_ptr__3_0 0000000180050b78     itt_notify.obj
 0003:00000b80       __itt_marker_ptr__3_0      0000000180050b80     itt_notify.obj
 0003:00000b88       __itt_model_disable_pop_ptr__3_0 0000000180050b88     itt_notify.obj
 0003:00000b90       __itt_sync_releasing_ptr__3_0 0000000180050b90     itt_notify.obj
 0003:00000b98       __itt_model_site_begin_ptr__3_0 0000000180050b98     itt_notify.obj
 0003:00000ba0       __itt_marker_ex_ptr__3_0   0000000180050ba0     itt_notify.obj
 0003:00000ba8       __itt_heap_function_createA_ptr__3_0 0000000180050ba8     itt_notify.obj
 0003:00000bb0       __itt_markW_ptr__3_0       0000000180050bb0     itt_notify.obj
 0003:00000bb8       __itt_track_group_create_ptr__3_0 0000000180050bb8     itt_notify.obj
 0003:00000bc0       __itt_thr_name_setA_ptr__3_0 0000000180050bc0     itt_notify.obj
 0003:00000bc8       __itt_model_task_beginAL_ptr__3_0 0000000180050bc8     itt_notify.obj
 0003:00000bd0       __itt_frame_end_ptr__3_0   0000000180050bd0     itt_notify.obj
 0003:00000bd8       __itt_heap_internal_access_end_ptr__3_0 0000000180050bd8     itt_notify.obj
 0003:00000be0       __itt_region_end_ptr__3_0  0000000180050be0     itt_notify.obj
 0003:00000be8       __itt_frame_begin_v3_ptr__3_0 0000000180050be8     itt_notify.obj
 0003:00000bf0       __itt_metadata_add_ptr__3_0 0000000180050bf0     itt_notify.obj
 0003:00000bf8       __itt_thread_ignore_ptr__3_0 0000000180050bf8     itt_notify.obj
 0003:00000c00       __itt_heap_allocate_begin_ptr__3_0 0000000180050c00     itt_notify.obj
 0003:00000c08       __itt_heap_reset_detection_ptr__3_0 0000000180050c08     itt_notify.obj
 0003:00000c10       __itt_stack_callee_leave_ptr__3_0 0000000180050c10     itt_notify.obj
 0003:00000c18       __itt_heap_reallocate_begin_ptr__3_0 0000000180050c18     itt_notify.obj
 0003:00000c20       __itt_counter_inc_delta_ptr__3_0 0000000180050c20     itt_notify.obj
 0003:00000c28       __itt_stack_caller_destroy_ptr__3_0 0000000180050c28     itt_notify.obj
 0003:00000c30       __itt_model_disable_push_ptr__3_0 0000000180050c30     itt_notify.obj
 0003:00000c38       __itt_thr_name_setW_ptr__3_0 0000000180050c38     itt_notify.obj
 0003:00000c40       __itt_model_task_beginW_ptr__3_0 0000000180050c40     itt_notify.obj
 0003:00000c48       __itt_thr_mode_set_ptr__3_0 0000000180050c48     itt_notify.obj
 0003:00000c50       __itt_metadata_str_addA_ptr__3_0 0000000180050c50     itt_notify.obj
 0003:00000c58       __itt_mark_global_off_ptr__3_0 0000000180050c58     itt_notify.obj
 0003:00000c60       __itt_suppress_clear_range_ptr__3_0 0000000180050c60     itt_notify.obj
 0003:00000c68       __itt_notify_sync_nameW_ptr__3_0 0000000180050c68     itt_notify.obj
 0003:00000c70       __itt_sync_set_nameA_ptr__3_0 0000000180050c70     itt_notify.obj
 0003:00000c78       __itt_metadata_str_addW_ptr__3_0 0000000180050c78     itt_notify.obj
 0003:00000c80       __itt_model_record_deallocation_ptr__3_0 0000000180050c80     itt_notify.obj
 0003:00000c88       __itt_suppress_pop_ptr__3_0 0000000180050c88     itt_notify.obj
 0003:00000c90       __itt_stack_callee_enter_ptr__3_0 0000000180050c90     itt_notify.obj
 0003:00000c98       __itt_model_site_beginA_ptr__3_0 0000000180050c98     itt_notify.obj
 0003:00000ca0       __itt_state_set_ptr__3_0   0000000180050ca0     itt_notify.obj
 0003:00000ca8       __itt_state_get_ptr__3_0   0000000180050ca8     itt_notify.obj
 0003:00000cb0       __itt_model_lock_release_2_ptr__3_0 0000000180050cb0     itt_notify.obj
 0003:00000cb8       __itt_domain_createW_ptr__3_0 0000000180050cb8     itt_notify.obj
 0003:00000cc0       __itt_sync_prepare_ptr__3_0 0000000180050cc0     itt_notify.obj
 0003:00000cc8       __itt_obj_mode_set_ptr__3_0 0000000180050cc8     itt_notify.obj
 0003:00000cd0       __itt_heap_free_end_ptr__3_0 0000000180050cd0     itt_notify.obj
 0003:00000cd8       __itt_sync_set_nameW_ptr__3_0 0000000180050cd8     itt_notify.obj
 0003:00000ce0       __itt_metadata_str_add_with_scopeA_ptr__3_0 0000000180050ce0     itt_notify.obj
 0003:00000ce8       __itt_model_record_allocation_ptr__3_0 0000000180050ce8     itt_notify.obj
 0003:00000cf0       __itt_fsync_releasing_ptr__3_0 0000000180050cf0     itt_notify.obj
 0003:00000cf8       __itt_frame_createA_ptr__3_0 0000000180050cf8     itt_notify.obj
 0003:00000d00       __itt_memory_update_ptr__3_0 0000000180050d00     itt_notify.obj
 0003:00000d08       __itt_counter_createW_ptr__3_0 0000000180050d08     itt_notify.obj
 0003:00000d10       __itt_domain_createA_ptr__3_0 0000000180050d10     itt_notify.obj
 0003:00000d18       __itt_pause_ptr__3_0       0000000180050d18     itt_notify.obj
 0003:00000d20       __itt_clock_domain_create_ptr__3_0 0000000180050d20     itt_notify.obj
 0003:00000d28       __itt_notify_sync_cancel_ptr__3_0 0000000180050d28     itt_notify.obj
 0003:00000d30       __itt_task_begin_overlapped_ptr__3_0 0000000180050d30     itt_notify.obj
 0003:00000d38       __itt_model_site_end_ptr__3_0 0000000180050d38     itt_notify.obj
 0003:00000d40       __itt_thread_set_nameW_ptr__3_0 0000000180050d40     itt_notify.obj
 0003:00000d48       __itt_frame_end_v3_ptr__3_0 0000000180050d48     itt_notify.obj
 0003:000025d8       __itt_task_begin_overlapped_ex_ptr__3_0 00000001800525d8     itt_notify.obj
 0003:000025e0       __itt_sync_createA_ptr__3_0 00000001800525e0     itt_notify.obj
 0003:000025e8       __itt_task_end_overlapped_ptr__3_0 00000001800525e8     itt_notify.obj
 0003:000025f0       __itt_string_handle_createW_ptr__3_0 00000001800525f0     itt_notify.obj
 0003:000025f8       __itt_stack_caller_create_ptr__3_0 00000001800525f8     itt_notify.obj
 0003:00002600       __itt_model_task_begin_ptr__3_0 0000000180052600     itt_notify.obj
 0003:00002608       __itt_fsync_cancel_ptr__3_0 0000000180052608     itt_notify.obj
 0003:00002610       __itt_model_clear_uses_ptr__3_0 0000000180052610     itt_notify.obj
 0003:00002618       __itt_model_iteration_taskAL_ptr__3_0 0000000180052618     itt_notify.obj
 0003:00002620       __itt_frame_createW_ptr__3_0 0000000180052620     itt_notify.obj
 0003:00002628       __itt_set_track_ptr__3_0   0000000180052628     itt_notify.obj
 0003:00002630       __itt_sync_renameW_ptr__3_0 0000000180052630     itt_notify.obj
 0003:00002638       __itt_model_task_end_ptr__3_0 0000000180052638     itt_notify.obj
 0003:00002640       __itt_frame_begin_ptr__3_0 0000000180052640     itt_notify.obj
 0003:00002648       __itt_fsync_prepare_ptr__3_0 0000000180052648     itt_notify.obj
 0003:00002650       __itt_mark_createA_ptr__3_0 0000000180052650     itt_notify.obj
 0003:00002658       __itt_model_induction_uses_ptr__3_0 0000000180052658     itt_notify.obj
 0003:00002660       __itt_clock_domain_reset_ptr__3_0 0000000180052660     itt_notify.obj
 0003:00002668       __itt_heap_record_ptr__3_0 0000000180052668     itt_notify.obj
 0003:00002670       __itt_sync_destroy_ptr__3_0 0000000180052670     itt_notify.obj
 0003:00002678       __itt_model_task_end_2_ptr__3_0 0000000180052678     itt_notify.obj
 0003:00002680       __itt_sync_cancel_ptr__3_0 0000000180052680     itt_notify.obj
 0003:00002688       __itt_enable_attach_ptr__3_0 0000000180052688     itt_notify.obj
 0003:00002690       __itt_sync_acquired_ptr__3_0 0000000180052690     itt_notify.obj
 0003:00002698       __itt_model_lock_acquire_2_ptr__3_0 0000000180052698     itt_notify.obj
 0003:000026a0       __itt_track_create_ptr__3_0 00000001800526a0     itt_notify.obj
 0003:000026a8       __itt_model_site_beginAL_ptr__3_0 00000001800526a8     itt_notify.obj
 0003:000026b0       __itt_relation_add_ex_ptr__3_0 00000001800526b0     itt_notify.obj
 0003:000026b8       __itt_task_end_ex_ptr__3_0 00000001800526b8     itt_notify.obj
 0003:000026c0       __itt_mark_globalA_ptr__3_0 00000001800526c0     itt_notify.obj
 0003:000026c8       __itt_model_aggregate_task_ptr__3_0 00000001800526c8     itt_notify.obj
 0003:000026d0       __itt_api_version_ptr__3_0 00000001800526d0     itt_notify.obj
 0003:000026d8       __itt_heap_record_memory_growth_end_ptr__3_0 00000001800526d8     itt_notify.obj
 0003:000026e0       ?__itt__ittapi_global@@3U___itt_global@@A 00000001800526e0     itt_notify.obj
 0003:00002770       __itt_region_begin_ptr__3_0 0000000180052770     itt_notify.obj
 0003:00002778       __itt_model_site_beginW_ptr__3_0 0000000180052778     itt_notify.obj
 0003:00002780       __itt_event_createW_ptr__3_0 0000000180052780     itt_notify.obj
 0003:00002788       __itt_event_end_ptr__3_0   0000000180052788     itt_notify.obj
 0003:00002790       __itt_task_begin_ex_ptr__3_0 0000000180052790     itt_notify.obj
 0003:00002798       __itt_relation_add_to_current_ex_ptr__3_0 0000000180052798     itt_notify.obj
 0003:000027a0       __itt_counter_inc_delta_v3_ptr__3_0 00000001800527a0     itt_notify.obj
 0003:000027a8       __itt_av_saveW_ptr__3_0    00000001800527a8     itt_notify.obj
 0003:000027b0       __itt_metadata_str_add_with_scopeW_ptr__3_0 00000001800527b0     itt_notify.obj
 0003:000027b8       __itt_heap_free_begin_ptr__3_0 00000001800527b8     itt_notify.obj
 0003:00002800       __itt_markA_ptr__3_0       0000000180052800     itt_notify.obj
 0003:00002808       __itt_model_task_beginA_ptr__3_0 0000000180052808     itt_notify.obj
 0003:00002810       __itt_suppress_mark_range_ptr__3_0 0000000180052810     itt_notify.obj
 0003:00002818       __itt_detach_ptr__3_0      0000000180052818     itt_notify.obj
 0003:00002820       __itt_relation_add_to_current_ptr__3_0 0000000180052820     itt_notify.obj
 0003:00002828       __itt_thr_ignore_ptr__3_0  0000000180052828     itt_notify.obj
 0003:00002830       __itt_counter_inc_ptr__3_0 0000000180052830     itt_notify.obj
 0003:00002838       __itt_frame_submit_v3_ptr__3_0 0000000180052838     itt_notify.obj
 0003:00002840       __itt_metadata_add_with_scope_ptr__3_0 0000000180052840     itt_notify.obj
 0003:00002848       __itt_model_site_end_2_ptr__3_0 0000000180052848     itt_notify.obj
 0003:00002850       __itt_relation_add_ptr__3_0 0000000180052850     itt_notify.obj
 0003:00002858       __itt_sync_renameA_ptr__3_0 0000000180052858     itt_notify.obj
 0003:00002860       __itt_notify_sync_releasing_ptr__3_0 0000000180052860     itt_notify.obj
 0003:00002868       __itt_notify_sync_prepare_ptr__3_0 0000000180052868     itt_notify.obj
 0003:00002870       __itt_notify_sync_acquired_ptr__3_0 0000000180052870     itt_notify.obj
 0003:000028c0       ?NumGroups@ProcessorGroupInfo@internal@tbb@@2HA 00000001800528c0     tbb_misc_ex.obj
 0003:00002ae0       ??_R0?AVbad_exception@std@@@8 0000000180052ae0     libcpmt:excptptr.obj
 0003:00002b08       ??_R0?AV_Ref_count_base@std@@@8 0000000180052b08     libcpmt:excptptr.obj
 0003:00002b40       ??_R0?AV?$_Ref_count_obj_alloc@V__ExceptionPtr@@U?$_StaticAllocator@H@@@std@@@8 0000000180052b40     libcpmt:excptptr.obj
 0003:00002ba0       ??_R0?AV?$_Ref_count_obj@V__ExceptionPtr@@@std@@@8 0000000180052ba0     libcpmt:excptptr.obj
 0003:00002be0       ??_R0?AVtype_info@@@8      0000000180052be0     LIBCMT:std_type_info_static.obj
 0003:00002c00       ??_R0?AVbad_array_new_length@std@@@8 0000000180052c00     LIBCMT:throw_bad_alloc.obj
 0003:00002c30       ??_R0?AV__non_rtti_object@std@@@8 0000000180052c30     libvcruntime:rtti.obj
 0003:00002c60       ??_R0?AVbad_typeid@std@@@8 0000000180052c60     libvcruntime:rtti.obj
 0003:00002c88       ??_R0?AVDNameNode@@@8      0000000180052c88     libvcruntime:undname.obj
 0003:00002ca8       ??_R0?AVcharNode@@@8       0000000180052ca8     libvcruntime:undname.obj
 0003:00002cc8       ??_R0?AVpcharNode@@@8      0000000180052cc8     libvcruntime:undname.obj
 0003:00002ce8       ??_R0?AVpDNameNode@@@8     0000000180052ce8     libvcruntime:undname.obj
 0003:00002d10       ??_R0?AVDNameStatusNode@@@8 0000000180052d10     libvcruntime:undname.obj
 0003:00002d38       ??_R0?AVpairNode@@@8       0000000180052d38     libvcruntime:undname.obj
 0003:00002d58       ??_R0?AVuser_abort@tbb@@@8 0000000180052d58     concurrent_queue.obj
 0003:00002d80       ??_R0?AVconcurrent_queue_base_v3@internal@tbb@@@8 0000000180052d80     concurrent_queue.obj
 0003:00002dc0       ??_R0?AVno_assign@internal@tbb@@@8 0000000180052dc0     concurrent_queue.obj
 0003:00002df0       ??_R0?AVno_copy@internal@tbb@@@8 0000000180052df0     concurrent_queue.obj
 0003:00002e20       ??_R0?AUtask_info@internal@tbb@@@8 0000000180052e20     pipeline.obj
 0003:00002e50       ??_R0?AVpipeline_root_task@internal@tbb@@@8 0000000180052e50     pipeline.obj
 0003:00002e88       ??_R0?AVtask_base@internal@interface5@tbb@@@8 0000000180052e88     pipeline.obj
 0003:00002ec0       ??_R0?AVfilter@tbb@@@8     0000000180052ec0     pipeline.obj
 0003:00002ee8       ??_R0?AVtask@tbb@@@8       0000000180052ee8     pipeline.obj
 0003:00002f08       ??_R0?AVpipeline@tbb@@@8   0000000180052f08     pipeline.obj
 0003:00002f30       ??_R0?AVstage_task@internal@tbb@@@8 0000000180052f30     pipeline.obj
 0003:00002f60       ??_R0?AVversioned_object@rml@@@8 0000000180052f60     private_server.obj
 0003:00002f90       ??_R0?AVserver@rml@@@8     0000000180052f90     private_server.obj
 0003:00002fb8       ??_R0?AVtbb_server@rml@internal@tbb@@@8 0000000180052fb8     private_server.obj
 0003:00002ff0       ??_R0?AVprivate_server@rml@internal@tbb@@@8 0000000180052ff0     private_server.obj
 0003:00003028       ??_R0?AVruntime_error@std@@@8 0000000180053028     tbb_misc.obj
 0003:00003050       ??_R0?AVbad_alloc@std@@@8  0000000180053050     tbb_misc.obj
 0003:00003078       ??_R0?AVinvalid_multiple_scheduling@tbb@@@8 0000000180053078     tbb_misc.obj
 0003:000030b0       ??_R0?AVmissing_wait@tbb@@@8 00000001800530b0     tbb_misc.obj
 0003:000030d8       ??_R0?AVrange_error@std@@@8 00000001800530d8     tbb_misc.obj
 0003:00003100       ??_R0?AVlength_error@std@@@8 0000000180053100     tbb_misc.obj
 0003:00003128       ??_R0?AVimproper_lock@tbb@@@8 0000000180053128     tbb_misc.obj
 0003:00003150       ??_R0?AVlogic_error@std@@@8 0000000180053150     tbb_misc.obj
 0003:00003178       ??_R0?AVbad_last_alloc@tbb@@@8 0000000180053178     tbb_misc.obj
 0003:000031a8       ??_R0?AVout_of_range@std@@@8 00000001800531a8     tbb_misc.obj
 0003:000031d0       ??_R0?AVinvalid_argument@std@@@8 00000001800531d0     tbb_misc.obj
 0003:00003200       ??_R0?AVexception@std@@@8  0000000180053200     tbb_misc.obj
 0003:00003228       ??_R0?AVtbb_exception@tbb@@@8 0000000180053228     task_group_context.obj
 0003:00003250       ??_R0?AVcaptured_exception@tbb@@@8 0000000180053250     task_group_context.obj
 0003:00003280       ??_R0?AVtbb_client@rml@internal@tbb@@@8 0000000180053280     market.obj
 0003:000032b8       ??_R0?AVclient@rml@@@8     00000001800532b8     market.obj
 0003:000032e0       ??_R0?AVmarket@internal@tbb@@@8 00000001800532e0     market.obj
 0003:00003310       ??_R0?AVempty_task@tbb@@@8 0000000180053310     arena.obj
 0003:00003338       ??_R0?AVdelegated_task@internal@interface7@tbb@@@8 0000000180053338     arena.obj
 0003:00003378       ??_R0?AVwait_task@internal@interface7@tbb@@@8 0000000180053378     arena.obj
 0003:000033b0       ??_R0?AVjob@rml@@@8        00000001800533b0     scheduler.obj
 0003:000033d0       ??_R0?AVscheduler@internal@tbb@@@8 00000001800533d0     scheduler.obj
 0003:00003400       ??_R0?AV?$custom_scheduler@UDefaultSchedulerTraits@internal@tbb@@@internal@tbb@@@8 0000000180053400     scheduler.obj
 0003:00003460       ??_R0?AUscheduler_state@internal@tbb@@@8 0000000180053460     scheduler.obj
 0003:000034a0       ??_R0?AV?$custom_scheduler@UIntelSchedulerTraits@internal@tbb@@@internal@tbb@@@8 00000001800534a0     scheduler.obj
 0003:00003500       ??_R0?AVgeneric_scheduler@internal@tbb@@@8 0000000180053500     scheduler.obj
 0003:00003538       ??_R0?AUintrusive_list_node@internal@tbb@@@8 0000000180053538     scheduler.obj
 0003:00003570       ??_R0?AU?$padded@Vcontrol_storage@internal@tbb@@$0IA@@internal@tbb@@@8 0000000180053570     tbb_main.obj
 0003:000035c8       ??_R0?AVcontrol_storage@internal@tbb@@@8 00000001800535c8     tbb_main.obj
 0003:00003600       ??_R0?AVstack_size_control@internal@tbb@@@8 0000000180053600     tbb_main.obj
 0003:00003638       ??_R0?AVallowed_parallelism_control@internal@tbb@@@8 0000000180053638     tbb_main.obj
 0003:00003680       ??_R0?AU?$padded_base@Vcontrol_storage@internal@tbb@@$0IA@$0CA@@internal@tbb@@@8 0000000180053680     tbb_main.obj
 0003:000036e0       ??_R0?AVconcurrent_queue_base@internal@tbb@@@8 00000001800536e0     concurrent_queue_v2.obj
 0003:00003720       ?m_badAllocExceptionPtr@__ExceptionPtr@@0V?$shared_ptr@V__ExceptionPtr@@@std@@A 0000000180053720     libcpmt:excptptr.obj
 0003:00003d80       ?__type_info_root_node@@3U__type_info_node@@A 0000000180053d80     LIBCMT:tncleanup.obj
 0003:00003d90       __scrt_current_native_startup_state 0000000180053d90     LIBCMT:utility.obj
 0003:00003d98       __scrt_native_startup_lock 0000000180053d98     LIBCMT:utility.obj
 0003:00003dd8       __favor                    0000000180053dd8     LIBCMT:_cpu_disp_.obj
 0003:00003ddc       __scrt_debugger_hook_flag  0000000180053ddc     LIBCMT:utility_desktop.obj
 0003:00003de0       ?_OptionsStorage@?1??__local_stdio_scanf_options@@9@4_KA 0000000180053de0     LIBCMT:default_local_stdio_options.obj
 0003:00003de8       ?g_OutOfMemoryExceptionCallback@@3P6APEAXXZEA 0000000180053de8     libvcruntime:frame.obj
 0003:00003df0       __pPurecall                0000000180053df0     libvcruntime:purevirt_data.obj
 0003:00003e78       ?pArgList@UnDecorator@@0PEAVReplicator@@EA 0000000180053e78     libvcruntime:undname.obj
 0003:00003e80       ?pZNameList@UnDecorator@@0PEAVReplicator@@EA 0000000180053e80     libvcruntime:undname.obj
 0003:00003e88       ?pTemplateArgList@UnDecorator@@0PEAVReplicator@@EA 0000000180053e88     libvcruntime:undname.obj
 0003:00003e90       ?gName@UnDecorator@@0PEBDEB 0000000180053e90     libvcruntime:undname.obj
 0003:00003e98       ?name@UnDecorator@@0PEBDEB 0000000180053e98     libvcruntime:undname.obj
 0003:00003ea0       ?outputString@UnDecorator@@0PEADEA 0000000180053ea0     libvcruntime:undname.obj
 0003:00003ea8       ?maxStringLength@UnDecorator@@0HA 0000000180053ea8     libvcruntime:undname.obj
 0003:00003eac       ?disableFlags@UnDecorator@@0KA 0000000180053eac     libvcruntime:undname.obj
 0003:00003eb0       ?fExplicitTemplateParams@UnDecorator@@0_NA 0000000180053eb0     libvcruntime:undname.obj
 0003:00003eb1       ?fGetTemplateArgumentList@UnDecorator@@0_NA 0000000180053eb1     libvcruntime:undname.obj
 0003:00003eb8       ?m_pGetParameter@UnDecorator@@0P6APEADJ@ZEA 0000000180053eb8     libvcruntime:undname.obj
 0003:00003ef0       ?nodes@?1??make@DNameStatusNode@@SAPEAV2@W4DNameStatus@@@Z@4PAV2@A 0000000180053ef0     libvcruntime:undname.obj
 0003:00003f30       ??_B?1??make@DNameStatusNode@@SAPEAV1@W4DNameStatus@@@Z@51 0000000180053f30     libvcruntime:undname.obj
 0003:00003ff0       _nstream                   0000000180053ff0     libucrt:_file.obj
 0003:00003ff8       __piob                     0000000180053ff8     libucrt:_file.obj
 0003:00004000       _cflush                    0000000180054000     libucrt:_file.obj
 0003:00004118       _environ_table             0000000180054118     libucrt:environment_initialization.obj
 0003:00004120       _wenviron_table            0000000180054120     libucrt:environment_initialization.obj
 0003:00004128       __dcrt_initial_wide_environment 0000000180054128     libucrt:environment_initialization.obj
 0003:00004130       __dcrt_initial_narrow_environment 0000000180054130     libucrt:environment_initialization.obj
 0003:00004138       __acrt_atexit_table        0000000180054138     libucrt:onexit.obj
 0003:00004150       __acrt_at_quick_exit_table 0000000180054150     libucrt:onexit.obj
 0003:00004530       __pioinfo                  0000000180054530     libucrt:ioinit.obj
 0003:00004930       _nhandle                   0000000180054930     libucrt:ioinit.obj
 0003:00004940       __acrt_stdout_buffer       0000000180054940     libucrt:_sftbuf.obj
 0003:00004948       __acrt_stderr_buffer       0000000180054948     libucrt:_sftbuf.obj
 0003:00004950       __acrt_locale_changed_data 0000000180054950     libucrt:wsetlocale.obj
 0003:00004958       __acrt_current_locale_data 0000000180054958     libucrt:nlsdata.obj
 0003:00004980       __mbcodepage               0000000180054980     libucrt:mbctype.obj
 0003:00004984       __ismbcodepage             0000000180054984     libucrt:mbctype.obj
 0003:00004988       __mbulinfo                 0000000180054988     libucrt:mbctype.obj
 0003:00004998       __mblocalename             0000000180054998     libucrt:mbctype.obj
 0003:000049a4       __argc                     00000001800549a4     libucrt:argv_data.obj
 0003:000049a8       __argv                     00000001800549a8     libucrt:argv_data.obj
 0003:000049b0       __wargv                    00000001800549b0     libucrt:argv_data.obj
 0003:000049b8       _acmdln                    00000001800549b8     libucrt:argv_data.obj
 0003:000049c0       _wcmdln                    00000001800549c0     libucrt:argv_data.obj
 0003:000049c8       _pgmptr                    00000001800549c8     libucrt:argv_data.obj
 0003:000049d0       __acrt_heap                00000001800549d0     libucrt:heap_handle.obj
 0003:000049e4       __acrt_lconv_static_null   00000001800549e4     libucrt:localeconv.obj
 0003:000049e8       __acrt_lconv_static_W_null 00000001800549e8     libucrt:localeconv.obj
 0003:000049f0       __fma3_is_available        00000001800549f0     libucrt:fma3_available.obj
 0003:000049f4       __use_fma3_lib             00000001800549f4     libucrt:fma3_available.obj
 0003:00004a00       ?init_dl_data_state@internal@tbb@@3U?$atomic@W4do_once_state@internal@tbb@@@2@A 0000000180054a00     dynamic_link.obj
 0003:00004a05       ?is_speculation_enabled@governor@internal@tbb@@0_NA 0000000180054a05     tbb_main.obj
 0003:00004a06       ?InitializationLock@__TBB_InitOnce@internal@tbb@@0EA 0000000180054a06     tbb_main.obj
 0003:00004a07       ?InitializationDone@__TBB_InitOnce@internal@tbb@@0_NA 0000000180054a07     tbb_main.obj
 0003:00004a08       ?handles@internal@tbb@@3Uhandles_t@12@A 0000000180054a08     dynamic_link.obj
 0003:00004a60       ?theProcessorGroups@internal@tbb@@3PAUProcessorGroupInfo@12@A 0000000180054a60     tbb_misc_ex.obj
 0003:00004e70       ?HoleIndex@ProcessorGroupInfo@internal@tbb@@2HA 0000000180054e70     tbb_misc_ex.obj
 0003:00004e74       ?theTLS@governor@internal@tbb@@0V?$basic_tls@_K@23@A 0000000180054e74     tbb_main.obj
 0003:00004e80       ?the_context_state_propagation_epoch@internal@tbb@@3_KA 0000000180054e80     scheduler.obj
 0003:00004e88       ?theMarket@market@internal@tbb@@0PEAV123@EA 0000000180054e88     tbb_main.obj
 0003:00004e90       ?count@__TBB_InitOnce@internal@tbb@@0U?$atomic@H@3@A 0000000180054e90     tbb_main.obj
 0003:00004e94       ?DefaultNumberOfThreads@governor@internal@tbb@@0IA 0000000180054e94     tbb_main.obj
 0003:00004e98       ?theRMLServerFactory@governor@internal@tbb@@0Vtbb_factory@rml@23@A 0000000180054e98     tbb_main.obj
 0003:00004ec0       ?BlockingTSI@governor@internal@tbb@@0PEBVtask_scheduler_init@3@EB 0000000180054ec0     tbb_main.obj
 0003:00004ec8       ?UsePrivateRML@governor@internal@tbb@@0_NA 0000000180054ec8     tbb_main.obj
 0003:00004ed0       ?AllocateSchedulerPtr@internal@tbb@@3P6APEAVgeneric_scheduler@12@AEAVmarket@12@@ZEA 0000000180054ed0     tbb_main.obj
 0003:00004ed9       ?the_context_state_propagation_mutex@internal@tbb@@3Vspin_mutex@2@A 0000000180054ed9     scheduler.obj
 0003:00004eda       ?theMarketMutex@market@internal@tbb@@0Vspin_mutex@3@A 0000000180054eda     tbb_main.obj
 0003:00004ee0       ?the_global_observer_list@internal@tbb@@3U?$padded@Vobserver_list@internal@tbb@@$0IA@@12@A 0000000180054ee0     observer_proxy.obj
 0003:00006090       ?_OptionsStorage@?1??__local_stdio_printf_options@@9@4_KA 0000000180056090     private_server.obj
 0003:000060a0       __dyn_tls_init_callback    00000001800560a0     <common>
 0003:000060a8       __scrt_ucrt_dll_is_in_use  00000001800560a8     <common>

 entry point at        0001:0001c7ec

 Static symbols

 0000:fffa1000       .debug$S                   0000000180000000     kernel32:KERNEL32.dll
 0000:fffa1000       .debug$S                   0000000180000000     kernel32:KERNEL32.dll
 0000:fffa1000       .debug$S                   0000000180000000     kernel32:KERNEL32.dll
 0000:fffa1000       .debug$S                   0000000180000000     kernel32:KERNEL32.dll
 0000:fffa1000       .debug$S                   0000000180000000     kernel32:KERNEL32.dll
 0000:fffa1000       .debug$S                   0000000180000000     kernel32:KERNEL32.dll
 0000:fffa1000       .debug$S                   0000000180000000     kernel32:KERNEL32.dll
 0000:fffa1000       .debug$S                   0000000180000000     tbb.exp
 0000:fffa1000       .debug$S                   0000000180000000     kernel32:KERNEL32.dll
 0000:fffa1000       .debug$S                   0000000180000000     kernel32:KERNEL32.dll
 0000:fffa1000       .debug$S                   0000000180000000     kernel32:KERNEL32.dll
 0000:fffa1000       .debug$S                   0000000180000000     kernel32:KERNEL32.dll
 0000:fffa1000       .debug$S                   0000000180000000     kernel32:KERNEL32.dll
 0000:fffa1000       .debug$S                   0000000180000000     kernel32:KERNEL32.dll
 0000:fffa1000       .debug$S                   0000000180000000     kernel32:KERNEL32.dll
 0000:fffa1000       .debug$S                   0000000180000000     kernel32:KERNEL32.dll
 0000:fffa1000       .debug$S                   0000000180000000     kernel32:KERNEL32.dll
 0000:fffa1000       .debug$S                   0000000180000000     kernel32:KERNEL32.dll
 0000:fffa1000       .debug$S                   0000000180000000     kernel32:KERNEL32.dll
 0000:fffa1000       .debug$S                   0000000180000000     kernel32:KERNEL32.dll
 0000:fffa1000       .debug$S                   0000000180000000     kernel32:KERNEL32.dll
 0000:fffa1000       .debug$S                   0000000180000000     kernel32:KERNEL32.dll
 0000:fffa1000       .debug$S                   0000000180000000     kernel32:KERNEL32.dll
 0000:fffa1000       .debug$S                   0000000180000000     kernel32:KERNEL32.dll
 0000:fffa1000       .debug$S                   0000000180000000     kernel32:KERNEL32.dll
 0000:fffa1000       .debug$S                   0000000180000000     kernel32:KERNEL32.dll
 0000:fffa1000       .debug$S                   0000000180000000     kernel32:KERNEL32.dll
 0000:fffa1000       .debug$S                   0000000180000000     kernel32:KERNEL32.dll
 0000:fffa1000       .debug$S                   0000000180000000     kernel32:KERNEL32.dll
 0000:fffa1000       .debug$S                   0000000180000000     kernel32:KERNEL32.dll
 0000:fffa1000       .debug$S                   0000000180000000     kernel32:KERNEL32.dll
 0000:fffa1000       .debug$S                   0000000180000000     kernel32:KERNEL32.dll
 0000:fffa1000       .debug$S                   0000000180000000     kernel32:KERNEL32.dll
 0000:fffa1000       .debug$S                   0000000180000000     kernel32:KERNEL32.dll
 0000:fffa1000       .debug$S                   0000000180000000     kernel32:KERNEL32.dll
 0000:fffa1000       .debug$S                   0000000180000000     kernel32:KERNEL32.dll
 0000:fffa1000       .debug$S                   0000000180000000     kernel32:KERNEL32.dll
 0000:fffa1000       .debug$S                   0000000180000000     kernel32:KERNEL32.dll
 0000:fffa1000       .debug$S                   0000000180000000     kernel32:KERNEL32.dll
 0000:fffa1000       .debug$S                   0000000180000000     kernel32:KERNEL32.dll
 0000:fffa1000       .debug$S                   0000000180000000     kernel32:KERNEL32.dll
 0000:fffa1000       .debug$S                   0000000180000000     kernel32:KERNEL32.dll
 0000:fffa1000       .debug$S                   0000000180000000     kernel32:KERNEL32.dll
 0000:fffa1000       .debug$S                   0000000180000000     kernel32:KERNEL32.dll
 0000:fffa1000       .debug$S                   0000000180000000     kernel32:KERNEL32.dll
 0000:fffa1000       .debug$S                   0000000180000000     kernel32:KERNEL32.dll
 0000:fffa1000       .debug$S                   0000000180000000     kernel32:KERNEL32.dll
 0000:fffa1000       .debug$S                   0000000180000000     kernel32:KERNEL32.dll
 0000:fffa1000       .debug$S                   0000000180000000     kernel32:KERNEL32.dll
 0000:fffa1000       .debug$S                   0000000180000000     kernel32:KERNEL32.dll
 0000:fffa1000       .debug$S                   0000000180000000     kernel32:KERNEL32.dll
 0000:fffa1000       .debug$S                   0000000180000000     kernel32:KERNEL32.dll
 0000:fffa1000       .debug$S                   0000000180000000     kernel32:KERNEL32.dll
 0000:fffa1000       .debug$S                   0000000180000000     kernel32:KERNEL32.dll
 0000:fffa1000       .debug$S                   0000000180000000     kernel32:KERNEL32.dll
 0000:fffa1000       .debug$S                   0000000180000000     kernel32:KERNEL32.dll
 0000:fffa1000       .debug$S                   0000000180000000     kernel32:KERNEL32.dll
 0000:fffa1000       .debug$S                   0000000180000000     kernel32:KERNEL32.dll
 0000:fffa1000       .debug$S                   0000000180000000     kernel32:KERNEL32.dll
 0000:fffa1000       .debug$S                   0000000180000000     kernel32:KERNEL32.dll
 0000:fffa1000       .debug$S                   0000000180000000     kernel32:KERNEL32.dll
 0000:fffa1000       .debug$S                   0000000180000000     kernel32:KERNEL32.dll
 0000:fffa1000       .debug$S                   0000000180000000     kernel32:KERNEL32.dll
 0000:fffa1000       .debug$S                   0000000180000000     kernel32:KERNEL32.dll
 0000:fffa1000       .debug$S                   0000000180000000     kernel32:KERNEL32.dll
 0000:fffa1000       .debug$S                   0000000180000000     kernel32:KERNEL32.dll
 0000:fffa1000       .debug$S                   0000000180000000     kernel32:KERNEL32.dll
 0000:fffa1000       .debug$S                   0000000180000000     kernel32:KERNEL32.dll
 0000:fffa1000       .debug$S                   0000000180000000     kernel32:KERNEL32.dll
 0000:fffa1000       .debug$S                   0000000180000000     kernel32:KERNEL32.dll
 0000:fffa1000       .debug$S                   0000000180000000     kernel32:KERNEL32.dll
 0000:fffa1000       .debug$S                   0000000180000000     kernel32:KERNEL32.dll
 0000:fffa1000       .debug$S                   0000000180000000     kernel32:KERNEL32.dll
 0000:fffa1000       .debug$S                   0000000180000000     kernel32:KERNEL32.dll
 0000:fffa1000       .debug$S                   0000000180000000     kernel32:KERNEL32.dll
 0000:fffa1000       .debug$S                   0000000180000000     kernel32:KERNEL32.dll
 0000:fffa1000       .debug$S                   0000000180000000     kernel32:KERNEL32.dll
 0000:fffa1000       .debug$S                   0000000180000000     kernel32:KERNEL32.dll
 0000:fffa1000       .debug$S                   0000000180000000     kernel32:KERNEL32.dll
 0000:fffa1000       .debug$S                   0000000180000000     kernel32:KERNEL32.dll
 0000:fffa1000       .debug$S                   0000000180000000     kernel32:KERNEL32.dll
 0000:fffa1000       .debug$S                   0000000180000000     kernel32:KERNEL32.dll
 0000:fffa1000       .debug$S                   0000000180000000     kernel32:KERNEL32.dll
 0000:fffa1000       .debug$S                   0000000180000000     kernel32:KERNEL32.dll
 0000:fffa1000       .debug$S                   0000000180000000     kernel32:KERNEL32.dll
 0000:fffa1000       .debug$S                   0000000180000000     kernel32:KERNEL32.dll
 0000:fffa1000       .debug$S                   0000000180000000     kernel32:KERNEL32.dll
 0000:fffa1000       .debug$S                   0000000180000000     kernel32:KERNEL32.dll
 0000:fffa1000       .debug$S                   0000000180000000     kernel32:KERNEL32.dll
 0000:fffa1000       .debug$S                   0000000180000000     kernel32:KERNEL32.dll
 0000:fffa1000       .debug$S                   0000000180000000     kernel32:KERNEL32.dll
 0000:fffa1000       .debug$S                   0000000180000000     kernel32:KERNEL32.dll
 0000:fffa1000       .debug$S                   0000000180000000     kernel32:KERNEL32.dll
 0000:fffa1000       .debug$S                   0000000180000000     kernel32:KERNEL32.dll
 0000:fffa1000       .debug$S                   0000000180000000     kernel32:KERNEL32.dll
 0000:fffa1000       .debug$S                   0000000180000000     kernel32:KERNEL32.dll
 0000:fffa1000       .debug$S                   0000000180000000     kernel32:KERNEL32.dll
 0000:fffa1000       .debug$S                   0000000180000000     kernel32:KERNEL32.dll
 0000:fffa1000       .debug$S                   0000000180000000     kernel32:KERNEL32.dll
 0000:fffa1000       .debug$S                   0000000180000000     kernel32:KERNEL32.dll
 0000:fffa1000       .debug$S                   0000000180000000     kernel32:KERNEL32.dll
 0000:fffa1000       .debug$S                   0000000180000000     kernel32:KERNEL32.dll
 0000:fffa1000       .debug$S                   0000000180000000     kernel32:KERNEL32.dll
 0000:fffa1000       .debug$S                   0000000180000000     kernel32:KERNEL32.dll
 0000:fffa1000       .debug$S                   0000000180000000     kernel32:KERNEL32.dll
 0000:fffa1000       .debug$S                   0000000180000000     kernel32:KERNEL32.dll
 0000:fffa1000       .debug$S                   0000000180000000     kernel32:KERNEL32.dll
 0000:fffa1000       .debug$S                   0000000180000000     kernel32:KERNEL32.dll
 0000:fffa1000       .debug$S                   0000000180000000     kernel32:KERNEL32.dll
 0000:fffa1000       .debug$S                   0000000180000000     kernel32:KERNEL32.dll
 0000:fffa1000       .debug$S                   0000000180000000     kernel32:KERNEL32.dll
 0001:00000000       ??__Estatic_init_dl_data@internal@tbb@@YAXXZ 0000000180001000 f   dynamic_link.obj
 0001:00000010       ??__Ethe_dummy_context@internal@tbb@@YAXXZ 0000000180001010 f   scheduler.obj
 0001:0000001c       ??__E?m_badAllocExceptionPtr@__ExceptionPtr@@0V?$shared_ptr@V__ExceptionPtr@@@std@@A@@YAXXZ 000000018000101c f   libcpmt:excptptr.obj
 0001:00000070       ?__itt_enable_attach_init_3_0@@YAXXZ 0000000180001070 f i itt_notify.obj
 0001:00001d70       ??1segment_scope_guard@?1??enable_segment@helper@concurrent_vector_base_v3@internal@tbb@@SA_KAEAV345@_K1_N@Z@QEAA@XZ 0000000180002d70 f   concurrent_vector.obj
 0001:000034b0       ?resolve_symbols@internal@tbb@@YA_NPEAUHINSTANCE__@@QEBUdynamic_link_descriptor@12@_K@Z 00000001800044b0 f   dynamic_link.obj
 0001:00003590       ?atomic_once@internal@tbb@@YAXP6AXXZAEAU?$atomic@W4do_once_state@internal@tbb@@@2@@Z 0000000180004590 f   dynamic_link.obj
 0001:00003640       ?init_ap_data@internal@tbb@@YAXXZ 0000000180004640 f   dynamic_link.obj
 0001:000036e0       ?init_dl_data@internal@tbb@@YAXXZ 00000001800046e0 f   dynamic_link.obj
 0001:000038e0       ?__itt_detach_init_3_0@@YAXXZ 00000001800048e0 f   itt_notify.obj
 0001:00003910       ?__itt_sync_createA_init_3_0@@YAXPEAXPEBD1H@Z 0000000180004910 f   itt_notify.obj
 0001:00003970       ?__itt_sync_createW_init_3_0@@YAXPEAXPEB_W1H@Z 0000000180004970 f   itt_notify.obj
 0001:000039d0       ?__itt_sync_renameA_init_3_0@@YAXPEAXPEBD@Z 00000001800049d0 f   itt_notify.obj
 0001:00003a10       ?__itt_sync_renameW_init_3_0@@YAXPEAXPEB_W@Z 0000000180004a10 f   itt_notify.obj
 0001:00003a50       ?__itt_sync_destroy_init_3_0@@YAXPEAX@Z 0000000180004a50 f   itt_notify.obj
 0001:00003a90       ?__itt_sync_prepare_init_3_0@@YAXPEAX@Z 0000000180004a90 f   itt_notify.obj
 0001:00003ad0       ?__itt_sync_cancel_init_3_0@@YAXPEAX@Z 0000000180004ad0 f   itt_notify.obj
 0001:00003b10       ?__itt_sync_acquired_init_3_0@@YAXPEAX@Z 0000000180004b10 f   itt_notify.obj
 0001:00003b50       ?__itt_sync_releasing_init_3_0@@YAXPEAX@Z 0000000180004b50 f   itt_notify.obj
 0001:00003b90       ?__itt_suppress_push_init_3_0@@YAXI@Z 0000000180004b90 f   itt_notify.obj
 0001:00003bd0       ?__itt_suppress_pop_init_3_0@@YAXXZ 0000000180004bd0 f   itt_notify.obj
 0001:00003c00       ?__itt_suppress_mark_range_init_3_0@@YAXW4__itt_suppress_mode@@IPEAX_K@Z 0000000180004c00 f   itt_notify.obj
 0001:00003c60       ?__itt_suppress_clear_range_init_3_0@@YAXW4__itt_suppress_mode@@IPEAX_K@Z 0000000180004c60 f   itt_notify.obj
 0001:00003cc0       ?__itt_fsync_prepare_init_3_0@@YAXPEAX@Z 0000000180004cc0 f   itt_notify.obj
 0001:00003d00       ?__itt_fsync_cancel_init_3_0@@YAXPEAX@Z 0000000180004d00 f   itt_notify.obj
 0001:00003d40       ?__itt_fsync_acquired_init_3_0@@YAXPEAX@Z 0000000180004d40 f   itt_notify.obj
 0001:00003d80       ?__itt_fsync_releasing_init_3_0@@YAXPEAX@Z 0000000180004d80 f   itt_notify.obj
 0001:00003dc0       ?__itt_model_site_begin_init_3_0@@YAXPEAPEAX0PEBD@Z 0000000180004dc0 f   itt_notify.obj
 0001:00003e10       ?__itt_model_site_end_init_3_0@@YAXPEAPEAX0@Z 0000000180004e10 f   itt_notify.obj
 0001:00003e50       ?__itt_model_task_begin_init_3_0@@YAXPEAPEAX0PEBD@Z 0000000180004e50 f   itt_notify.obj
 0001:00003ea0       ?__itt_model_task_end_init_3_0@@YAXPEAPEAX0@Z 0000000180004ea0 f   itt_notify.obj
 0001:00003ee0       ?__itt_model_lock_acquire_init_3_0@@YAXPEAX@Z 0000000180004ee0 f   itt_notify.obj
 0001:00003f20       ?__itt_model_lock_release_init_3_0@@YAXPEAX@Z 0000000180004f20 f   itt_notify.obj
 0001:00003f60       ?__itt_model_record_allocation_init_3_0@@YAXPEAX_K@Z 0000000180004f60 f   itt_notify.obj
 0001:00003fa0       ?__itt_model_record_deallocation_init_3_0@@YAXPEAX@Z 0000000180004fa0 f   itt_notify.obj
 0001:00003fe0       ?__itt_model_induction_uses_init_3_0@@YAXPEAX_K@Z 0000000180004fe0 f   itt_notify.obj
 0001:00004020       ?__itt_model_reduction_uses_init_3_0@@YAXPEAX_K@Z 0000000180005020 f   itt_notify.obj
 0001:00004060       ?__itt_model_observe_uses_init_3_0@@YAXPEAX_K@Z 0000000180005060 f   itt_notify.obj
 0001:000040a0       ?__itt_model_clear_uses_init_3_0@@YAXPEAX@Z 00000001800050a0 f   itt_notify.obj
 0001:000040e0       ?__itt_model_site_beginW_init_3_0@@YAXPEB_W@Z 00000001800050e0 f   itt_notify.obj
 0001:00004120       ?__itt_model_task_beginW_init_3_0@@YAXPEB_W@Z 0000000180005120 f   itt_notify.obj
 0001:00004160       ?__itt_model_iteration_taskW_init_3_0@@YAXPEB_W@Z 0000000180005160 f   itt_notify.obj
 0001:000041a0       ?__itt_model_site_beginA_init_3_0@@YAXPEBD@Z 00000001800051a0 f   itt_notify.obj
 0001:000041e0       ?__itt_model_site_beginAL_init_3_0@@YAXPEBD_K@Z 00000001800051e0 f   itt_notify.obj
 0001:00004220       ?__itt_model_task_beginA_init_3_0@@YAXPEBD@Z 0000000180005220 f   itt_notify.obj
 0001:00004260       ?__itt_model_task_beginAL_init_3_0@@YAXPEBD_K@Z 0000000180005260 f   itt_notify.obj
 0001:000042a0       ?__itt_model_iteration_taskA_init_3_0@@YAXPEBD@Z 00000001800052a0 f   itt_notify.obj
 0001:000042e0       ?__itt_model_iteration_taskAL_init_3_0@@YAXPEBD_K@Z 00000001800052e0 f   itt_notify.obj
 0001:00004320       ?__itt_model_site_end_2_init_3_0@@YAXXZ 0000000180005320 f   itt_notify.obj
 0001:00004350       ?__itt_model_task_end_2_init_3_0@@YAXXZ 0000000180005350 f   itt_notify.obj
 0001:00004380       ?__itt_model_lock_acquire_2_init_3_0@@YAXPEAX@Z 0000000180005380 f   itt_notify.obj
 0001:000043c0       ?__itt_model_lock_release_2_init_3_0@@YAXPEAX@Z 00000001800053c0 f   itt_notify.obj
 0001:00004400       ?__itt_model_aggregate_task_init_3_0@@YAX_K@Z 0000000180005400 f   itt_notify.obj
 0001:00004440       ?__itt_model_disable_push_init_3_0@@YAXW4__itt_model_disable@@@Z 0000000180005440 f   itt_notify.obj
 0001:00004480       ?__itt_model_disable_pop_init_3_0@@YAXXZ 0000000180005480 f   itt_notify.obj
 0001:000044b0       ?__itt_heap_function_createA_init_3_0@@YAPEAXPEBD0@Z 00000001800054b0 f   itt_notify.obj
 0001:00004500       ?__itt_heap_function_createW_init_3_0@@YAPEAXPEB_W0@Z 0000000180005500 f   itt_notify.obj
 0001:00004550       ?__itt_heap_allocate_begin_init_3_0@@YAXPEAX_KH@Z 0000000180005550 f   itt_notify.obj
 0001:000045a0       ?__itt_heap_allocate_end_init_3_0@@YAXPEAXPEAPEAX_KH@Z 00000001800055a0 f   itt_notify.obj
 0001:00004600       ?__itt_heap_free_begin_init_3_0@@YAXPEAX0@Z 0000000180005600 f   itt_notify.obj
 0001:00004640       ?__itt_heap_free_end_init_3_0@@YAXPEAX0@Z 0000000180005640 f   itt_notify.obj
 0001:00004680       ?__itt_heap_reallocate_begin_init_3_0@@YAXPEAX0_KH@Z 0000000180005680 f   itt_notify.obj
 0001:000046e0       ?__itt_heap_reallocate_end_init_3_0@@YAXPEAX0PEAPEAX_KH@Z 00000001800056e0 f   itt_notify.obj
 0001:00004750       ?__itt_heap_internal_access_begin_init_3_0@@YAXXZ 0000000180005750 f   itt_notify.obj
 0001:00004780       ?__itt_heap_internal_access_end_init_3_0@@YAXXZ 0000000180005780 f   itt_notify.obj
 0001:000047b0       ?__itt_heap_record_memory_growth_begin_init_3_0@@YAXXZ 00000001800057b0 f   itt_notify.obj
 0001:000047e0       ?__itt_heap_record_memory_growth_end_init_3_0@@YAXXZ 00000001800057e0 f   itt_notify.obj
 0001:00004810       ?__itt_heap_reset_detection_init_3_0@@YAXI@Z 0000000180005810 f   itt_notify.obj
 0001:00004850       ?__itt_heap_record_init_3_0@@YAXI@Z 0000000180005850 f   itt_notify.obj
 0001:00004890       ?__itt_id_create_init_3_0@@YAXPEBU___itt_domain@@U___itt_id@@@Z 0000000180005890 f   itt_notify.obj
 0001:000048f0       ?__itt_id_destroy_init_3_0@@YAXPEBU___itt_domain@@U___itt_id@@@Z 00000001800058f0 f   itt_notify.obj
 0001:00004950       ?__itt_get_timestamp_init_3_0@@YA_KXZ 0000000180005950 f   itt_notify.obj
 0001:00004980       ?__itt_region_begin_init_3_0@@YAXPEBU___itt_domain@@U___itt_id@@1PEAU___itt_string_handle@@@Z 0000000180005980 f   itt_notify.obj
 0001:00004a10       ?__itt_region_end_init_3_0@@YAXPEBU___itt_domain@@U___itt_id@@@Z 0000000180005a10 f   itt_notify.obj
 0001:00004a70       ?__itt_frame_begin_v3_init_3_0@@YAXPEBU___itt_domain@@PEAU___itt_id@@@Z 0000000180005a70 f   itt_notify.obj
 0001:00004ab0       ?__itt_frame_end_v3_init_3_0@@YAXPEBU___itt_domain@@PEAU___itt_id@@@Z 0000000180005ab0 f   itt_notify.obj
 0001:00004af0       ?__itt_frame_submit_v3_init_3_0@@YAXPEBU___itt_domain@@PEAU___itt_id@@_K2@Z 0000000180005af0 f   itt_notify.obj
 0001:00004b50       ?__itt_task_group_init_3_0@@YAXPEBU___itt_domain@@U___itt_id@@1PEAU___itt_string_handle@@@Z 0000000180005b50 f   itt_notify.obj
 0001:00004be0       ?__itt_task_begin_init_3_0@@YAXPEBU___itt_domain@@U___itt_id@@1PEAU___itt_string_handle@@@Z 0000000180005be0 f   itt_notify.obj
 0001:00004c70       ?__itt_task_begin_fn_init_3_0@@YAXPEBU___itt_domain@@U___itt_id@@1PEAX@Z 0000000180005c70 f   itt_notify.obj
 0001:00004d00       ?__itt_task_end_init_3_0@@YAXPEBU___itt_domain@@@Z 0000000180005d00 f   itt_notify.obj
 0001:00004d40       ?__itt_counter_inc_v3_init_3_0@@YAXPEBU___itt_domain@@PEAU___itt_string_handle@@@Z 0000000180005d40 f   itt_notify.obj
 0001:00004d80       ?__itt_counter_inc_delta_v3_init_3_0@@YAXPEBU___itt_domain@@PEAU___itt_string_handle@@_K@Z 0000000180005d80 f   itt_notify.obj
 0001:00004dd0       ?__itt_marker_init_3_0@@YAXPEBU___itt_domain@@U___itt_id@@PEAU___itt_string_handle@@W4__itt_scope@@@Z 0000000180005dd0 f   itt_notify.obj
 0001:00004e50       ?__itt_metadata_add_init_3_0@@YAXPEBU___itt_domain@@U___itt_id@@PEAU___itt_string_handle@@W4__itt_metadata_type@@_KPEAX@Z 0000000180005e50 f   itt_notify.obj
 0001:00004ee0       ?__itt_metadata_str_addA_init_3_0@@YAXPEBU___itt_domain@@U___itt_id@@PEAU___itt_string_handle@@PEBD_K@Z 0000000180005ee0 f   itt_notify.obj
 0001:00004f70       ?__itt_metadata_str_addW_init_3_0@@YAXPEBU___itt_domain@@U___itt_id@@PEAU___itt_string_handle@@PEB_W_K@Z 0000000180005f70 f   itt_notify.obj
 0001:00005000       ?__itt_relation_add_to_current_init_3_0@@YAXPEBU___itt_domain@@W4__itt_relation@@U___itt_id@@@Z 0000000180006000 f   itt_notify.obj
 0001:00005070       ?__itt_relation_add_init_3_0@@YAXPEBU___itt_domain@@U___itt_id@@W4__itt_relation@@1@Z 0000000180006070 f   itt_notify.obj
 0001:00005100       ?__itt_event_createA_init_3_0@@YAHPEBDH@Z 0000000180006100 f   itt_notify.obj
 0001:00005150       ?__itt_event_createW_init_3_0@@YAHPEB_WH@Z 0000000180006150 f   itt_notify.obj
 0001:000051a0       ?__itt_event_start_init_3_0@@YAHH@Z 00000001800061a0 f   itt_notify.obj
 0001:000051e0       ?__itt_event_end_init_3_0@@YAHH@Z 00000001800061e0 f   itt_notify.obj
 0001:00005220       ?__itt_sync_set_nameA_init_3_0@@YAXPEAXPEBD1H@Z 0000000180006220 f   itt_notify.obj
 0001:00005280       ?__itt_sync_set_nameW_init_3_0@@YAXPEAXPEB_W1H@Z 0000000180006280 f   itt_notify.obj
 0001:000052e0       ?__itt_notify_sync_nameA_init_3_0@@YAHPEAXPEBDH1HH@Z 00000001800062e0 f   itt_notify.obj
 0001:00005360       ?__itt_notify_sync_nameW_init_3_0@@YAHPEAXPEB_WH1HH@Z 0000000180006360 f   itt_notify.obj
 0001:000053e0       ?__itt_notify_sync_prepare_init_3_0@@YAXPEAX@Z 00000001800063e0 f   itt_notify.obj
 0001:00005420       ?__itt_notify_sync_cancel_init_3_0@@YAXPEAX@Z 0000000180006420 f   itt_notify.obj
 0001:00005460       ?__itt_notify_sync_acquired_init_3_0@@YAXPEAX@Z 0000000180006460 f   itt_notify.obj
 0001:000054a0       ?__itt_notify_sync_releasing_init_3_0@@YAXPEAX@Z 00000001800064a0 f   itt_notify.obj
 0001:000054e0       ?__itt_memory_read_init_3_0@@YAXPEAX_K@Z 00000001800064e0 f   itt_notify.obj
 0001:00005520       ?__itt_memory_write_init_3_0@@YAXPEAX_K@Z 0000000180006520 f   itt_notify.obj
 0001:00005560       ?__itt_memory_update_init_3_0@@YAXPEAX_K@Z 0000000180006560 f   itt_notify.obj
 0001:000055a0       ?__itt_state_get_init_3_0@@YAHXZ 00000001800065a0 f   itt_notify.obj
 0001:000055d0       ?__itt_state_set_init_3_0@@YAHH@Z 00000001800065d0 f   itt_notify.obj
 0001:00005610       ?__itt_obj_mode_set_init_3_0@@YA?AW4__itt_obj_state@@W4__itt_obj_prop@@W41@@Z 0000000180006610 f   itt_notify.obj
 0001:00005660       ?__itt_thr_mode_set_init_3_0@@YA?AW4__itt_thr_state@@W4__itt_thr_prop@@W41@@Z 0000000180006660 f   itt_notify.obj
 0001:000056b0       ?__itt_frame_createA_init_3_0@@YAPEAU__itt_frame_t@@PEBD@Z 00000001800066b0 f   itt_notify.obj
 0001:000056f0       ?__itt_frame_createW_init_3_0@@YAPEAU__itt_frame_t@@PEB_W@Z 00000001800066f0 f   itt_notify.obj
 0001:00005730       ?__itt_frame_begin_init_3_0@@YAXPEAU__itt_frame_t@@@Z 0000000180006730 f   itt_notify.obj
 0001:00005770       ?__itt_frame_end_init_3_0@@YAXPEAU__itt_frame_t@@@Z 0000000180006770 f   itt_notify.obj
 0001:000057b0       ?__itt_counter_createA_init_3_0@@YAPEAU___itt_counter@@PEBD0@Z 00000001800067b0 f   itt_notify.obj
 0001:00005800       ?__itt_counter_createW_init_3_0@@YAPEAU___itt_counter@@PEB_W0@Z 0000000180006800 f   itt_notify.obj
 0001:00005850       ?__itt_counter_destroy_init_3_0@@YAXPEAU___itt_counter@@@Z 0000000180006850 f   itt_notify.obj
 0001:00005890       ?__itt_counter_inc_init_3_0@@YAXPEAU___itt_counter@@@Z 0000000180006890 f   itt_notify.obj
 0001:000058d0       ?__itt_counter_inc_delta_init_3_0@@YAXPEAU___itt_counter@@_K@Z 00000001800068d0 f   itt_notify.obj
 0001:00005910       ?__itt_mark_createA_init_3_0@@YAHPEBD@Z 0000000180006910 f   itt_notify.obj
 0001:00005950       ?__itt_mark_createW_init_3_0@@YAHPEB_W@Z 0000000180006950 f   itt_notify.obj
 0001:00005990       ?__itt_markA_init_3_0@@YAHHPEBD@Z 0000000180006990 f   itt_notify.obj
 0001:000059e0       ?__itt_markW_init_3_0@@YAHHPEB_W@Z 00000001800069e0 f   itt_notify.obj
 0001:00005a30       ?__itt_mark_off_init_3_0@@YAHH@Z 0000000180006a30 f   itt_notify.obj
 0001:00005a70       ?__itt_mark_globalA_init_3_0@@YAHHPEBD@Z 0000000180006a70 f   itt_notify.obj
 0001:00005ac0       ?__itt_mark_globalW_init_3_0@@YAHHPEB_W@Z 0000000180006ac0 f   itt_notify.obj
 0001:00005b10       ?__itt_mark_global_off_init_3_0@@YAHH@Z 0000000180006b10 f   itt_notify.obj
 0001:00005b50       ?__itt_stack_caller_create_init_3_0@@YAPEAU___itt_caller@@XZ 0000000180006b50 f   itt_notify.obj
 0001:00005b80       ?__itt_stack_caller_destroy_init_3_0@@YAXPEAU___itt_caller@@@Z 0000000180006b80 f   itt_notify.obj
 0001:00005bc0       ?__itt_stack_callee_enter_init_3_0@@YAXPEAU___itt_caller@@@Z 0000000180006bc0 f   itt_notify.obj
 0001:00005c00       ?__itt_stack_callee_leave_init_3_0@@YAXPEAU___itt_caller@@@Z 0000000180006c00 f   itt_notify.obj
 0001:00005c40       ?__itt_clock_domain_create_init_3_0@@YAPEAU___itt_clock_domain@@P6AXPEAU___itt_clock_info@@PEAX@Z1@Z 0000000180006c40 f   itt_notify.obj
 0001:00005c90       ?__itt_clock_domain_reset_init_3_0@@YAXXZ 0000000180006c90 f   itt_notify.obj
 0001:00005cc0       ?__itt_id_create_ex_init_3_0@@YAXPEBU___itt_domain@@PEAU___itt_clock_domain@@_KU___itt_id@@@Z 0000000180006cc0 f   itt_notify.obj
 0001:00005d40       ?__itt_id_destroy_ex_init_3_0@@YAXPEBU___itt_domain@@PEAU___itt_clock_domain@@_KU___itt_id@@@Z 0000000180006d40 f   itt_notify.obj
 0001:00005dc0       ?__itt_task_begin_ex_init_3_0@@YAXPEBU___itt_domain@@PEAU___itt_clock_domain@@_KU___itt_id@@3PEAU___itt_string_handle@@@Z 0000000180006dc0 f   itt_notify.obj
 0001:00005e70       ?__itt_task_begin_fn_ex_init_3_0@@YAXPEBU___itt_domain@@PEAU___itt_clock_domain@@_KU___itt_id@@3PEAX@Z 0000000180006e70 f   itt_notify.obj
 0001:00005f20       ?__itt_task_end_ex_init_3_0@@YAXPEBU___itt_domain@@PEAU___itt_clock_domain@@_K@Z 0000000180006f20 f   itt_notify.obj
 0001:00005f70       ?__itt_task_begin_overlapped_init_3_0@@YAXPEBU___itt_domain@@U___itt_id@@1PEAU___itt_string_handle@@@Z 0000000180006f70 f   itt_notify.obj
 0001:00006000       ?__itt_task_begin_overlapped_ex_init_3_0@@YAXPEBU___itt_domain@@PEAU___itt_clock_domain@@_KU___itt_id@@3PEAU___itt_string_handle@@@Z 0000000180007000 f   itt_notify.obj
 0001:000060b0       ?__itt_task_end_overlapped_init_3_0@@YAXPEBU___itt_domain@@U___itt_id@@@Z 00000001800070b0 f   itt_notify.obj
 0001:00006110       ?__itt_task_end_overlapped_ex_init_3_0@@YAXPEBU___itt_domain@@PEAU___itt_clock_domain@@_KU___itt_id@@@Z 0000000180007110 f   itt_notify.obj
 0001:00006190       ?__itt_marker_ex_init_3_0@@YAXPEBU___itt_domain@@PEAU___itt_clock_domain@@_KU___itt_id@@PEAU___itt_string_handle@@W4__itt_scope@@@Z 0000000180007190 f   itt_notify.obj
 0001:00006220       ?__itt_metadata_add_with_scope_init_3_0@@YAXPEBU___itt_domain@@W4__itt_scope@@PEAU___itt_string_handle@@W4__itt_metadata_type@@_KPEAX@Z 0000000180007220 f   itt_notify.obj
 0001:000062a0       ?__itt_metadata_str_add_with_scopeA_init_3_0@@YAXPEBU___itt_domain@@W4__itt_scope@@PEAU___itt_string_handle@@PEBD_K@Z 00000001800072a0 f   itt_notify.obj
 0001:00006310       ?__itt_metadata_str_add_with_scopeW_init_3_0@@YAXPEBU___itt_domain@@W4__itt_scope@@PEAU___itt_string_handle@@PEB_W_K@Z 0000000180007310 f   itt_notify.obj
 0001:00006380       ?__itt_relation_add_to_current_ex_init_3_0@@YAXPEBU___itt_domain@@PEAU___itt_clock_domain@@_KW4__itt_relation@@U___itt_id@@@Z 0000000180007380 f   itt_notify.obj
 0001:00006410       ?__itt_relation_add_ex_init_3_0@@YAXPEBU___itt_domain@@PEAU___itt_clock_domain@@_KU___itt_id@@W4__itt_relation@@3@Z 0000000180007410 f   itt_notify.obj
 0001:000064c0       ?__itt_track_group_create_init_3_0@@YAPEAU___itt_track_group@@PEAU___itt_string_handle@@W4___itt_track_group_type@@@Z 00000001800074c0 f   itt_notify.obj
 0001:00006510       ?__itt_track_create_init_3_0@@YAPEAU___itt_track@@PEAU___itt_track_group@@PEAU___itt_string_handle@@W4___itt_track_type@@@Z 0000000180007510 f   itt_notify.obj
 0001:00006580       ?__itt_set_track_init_3_0@@YAXPEAU___itt_track@@@Z 0000000180007580 f   itt_notify.obj
 0001:000065c0       ?__itt_api_version_init_3_0@@YAPEBDXZ 00000001800075c0 f   itt_notify.obj
 0001:000065f0       ?__itt_av_saveA_init_3_0@@YAHPEAXHPEBHHPEBDH@Z 00000001800075f0 f   itt_notify.obj
 0001:00006670       ?__itt_av_saveW_init_3_0@@YAHPEAXHPEBHHPEB_WH@Z 0000000180007670 f   itt_notify.obj
 0001:000066f0       ?__itt_report_error@@YAXW4__itt_error_code@@ZZ 00000001800076f0 f   itt_notify.obj
 0001:00006720       ?__itt_domain_createW_init_3_0@@YAPEAU___itt_domain@@PEB_W@Z 0000000180007720 f   itt_notify.obj
 0001:00006890       ?__itt_domain_createA_init_3_0@@YAPEAU___itt_domain@@PEBD@Z 0000000180007890 f   itt_notify.obj
 0001:000069f0       ?__itt_string_handle_createW_init_3_0@@YAPEAU___itt_string_handle@@PEB_W@Z 00000001800079f0 f   itt_notify.obj
 0001:00006b60       ?__itt_string_handle_createA_init_3_0@@YAPEAU___itt_string_handle@@PEBD@Z 0000000180007b60 f   itt_notify.obj
 0001:00006cc0       ?__itt_pause_init_3_0@@YAXXZ 0000000180007cc0 f   itt_notify.obj
 0001:00006d10       ?__itt_resume_init_3_0@@YAXXZ 0000000180007d10 f   itt_notify.obj
 0001:00006d60       ?__itt_thread_set_nameW_init_3_0@@YAXPEB_W@Z 0000000180007d60 f   itt_notify.obj
 0001:00006db0       ?__itt_thr_name_setW_init_3_0@@YAHPEB_WH@Z 0000000180007db0 f   itt_notify.obj
 0001:00006e00       ?__itt_thread_set_nameA_init_3_0@@YAXPEBD@Z 0000000180007e00 f   itt_notify.obj
 0001:00006e50       ?__itt_thr_name_setA_init_3_0@@YAHPEBDH@Z 0000000180007e50 f   itt_notify.obj
 0001:00006ea0       ?__itt_thr_ignore_init_3_0@@YAXXZ 0000000180007ea0 f   itt_notify.obj
 0001:00006ea0       ?__itt_thread_ignore_init_3_0@@YAXXZ 0000000180007ea0 f   itt_notify.obj
 0001:00006ef0       ?__itt_get_env_var@@YAPEBDPEBD@Z 0000000180007ef0 f   itt_notify.obj
 0001:00006fc0       ?__itt_get_groups@@YA?AW4___itt_group_id@@XZ 0000000180007fc0 f   itt_notify.obj
 0001:00007240       ?__itt_nullify_all_pointers@@YAXXZ 0000000180008240 f   itt_notify.obj
 0001:00007850       ?DummyMalloc@internal@tbb@@YAPEAX_K@Z 0000000180008850 f   cache_aligned_allocator.obj
 0001:00007870       ?DummyFree@internal@tbb@@YAXPEAX@Z 0000000180008870 f   cache_aligned_allocator.obj
 0001:00007890       ?dummy_padded_allocate@internal@tbb@@YAPEAX_K0@Z 0000000180008890 f   cache_aligned_allocator.obj
 0001:000078c0       ?dummy_padded_free@internal@tbb@@YAXPEAX@Z 00000001800088c0 f   cache_aligned_allocator.obj
 0001:00007960       ?padded_allocate@internal@tbb@@YAPEAX_K0@Z 0000000180008960 f   cache_aligned_allocator.obj
 0001:000079a0       ?padded_free@internal@tbb@@YAXPEAX@Z 00000001800089a0 f   cache_aligned_allocator.obj
 0001:0000d294       $LN131                     000000018000e294     tbb_misc.obj
 0001:0000d6a0       ?initialize_hardware_concurrency_info@internal@tbb@@YAXXZ 000000018000e6a0 f   tbb_misc_ex.obj
 0001:0000e350       initialize_global_state_isolation 000000018000f350 f   libucrt:initialization.obj
 0001:0000e350       report_memory_leaks        000000018000f350 f   libucrt:initialization.obj
 0001:0000e350       uninitialize_c             000000018000f350 f   libucrt:initialization.obj
 0001:0000e350       uninitialize_global_state_isolation 000000018000f350 f   libucrt:initialization.obj
 0001:0000e350       initialize_environment     000000018000f350 f   libucrt:initialization.obj
 0001:00010620       ?calc_workers_soft_limit@internal@tbb@@YAIII@Z 0000000180011620 f   market.obj
 0001:000130a0       ??1outermost_context@?1??execute@delegated_task@internal@interface7@tbb@@EEAAPEAVtask@5@XZ@QEAA@XZ 00000001800140a0 f   arena.obj
 0001:0001ada0       $$000000                   000000018001bda0     atomic_support.obj
 0001:0001adf0       $$000000                   000000018001bdf0     intel64_misc.obj
 0001:0001ae00       $$000000                   000000018001be00     itsx.obj
 0001:0001ba28       ?_StaticAlloc@@YAPEAX_K@Z  000000018001ca28 f   libcpmt:excptptr.obj
 0001:0001bc10       $$000000                   000000018001cc10     LIBCMT:_amdsecgs_.obj
 0001:0001be30       capture_current_context    000000018001ce30 f   LIBCMT:gs_report.obj
 0001:0001bea0       capture_previous_context   000000018001cea0 f   LIBCMT:gs_report.obj
 0001:0001c4a0       ?dllmain_crt_dispatch@@YAHQEAUHINSTANCE__@@KQEAX@Z 000000018001d4a0 f   LIBCMT:dll_dllmain.obj
 0001:0001c4f0       ?dllmain_crt_process_attach@@YAHQEAUHINSTANCE__@@QEAX@Z 000000018001d4f0 f   LIBCMT:dll_dllmain.obj
 0001:0001c61c       ?dllmain_crt_process_detach@@YAH_N@Z 000000018001d61c f   LIBCMT:dll_dllmain.obj
 0001:0001c6a0       ?dllmain_dispatch@@YAHQEAUHINSTANCE__@@KQEAX@Z 000000018001d6a0 f   LIBCMT:dll_dllmain.obj
 0001:0001c798       ?dllmain_raw@@YAHQEAUHINSTANCE__@@KQEAX@Z 000000018001d798 f   LIBCMT:dll_dllmain.obj
 0001:0001c8b0       $$000000                   000000018001d8b0     LIBCMT:_chkstk_.obj
 0001:0001cf14       ?CatchIt@@YAXPEAUEHExceptionRecord@@PEA_KPEAU_CONTEXT@@PEAU_xDISPATCHER_CONTEXT@@PEBU_s_FuncInfo@@PEBU_s_HandlerType@@PEBU_s_CatchableType@@PEBU_s_TryBlockMapEntry@@H1EE@Z 000000018001df14 f   libvcruntime:frame.obj
 0001:0001cfd8       ?ExFilterRethrow@@YAHPEAU_EXCEPTION_POINTERS@@PEAUEHExceptionRecord@@PEAH@Z 000000018001dfd8 f   libvcruntime:frame.obj
 0001:0001d060       ?FindHandler@@YAXPEAUEHExceptionRecord@@PEA_KPEAU_CONTEXT@@PEAU_xDISPATCHER_CONTEXT@@PEBU_s_FuncInfo@@EH1@Z 000000018001e060 f   libvcruntime:frame.obj
 0001:0001d530       ?FindHandlerForForeignException@@YAXPEAUEHExceptionRecord@@PEA_KPEAU_CONTEXT@@PEAU_xDISPATCHER_CONTEXT@@PEBU_s_FuncInfo@@HH1@Z 000000018001e530 f   libvcruntime:frame.obj
 0001:0001d79c       ?IsInExceptionSpec@@YAEPEAUEHExceptionRecord@@PEBU_s_ESTypeList@@@Z 000000018001e79c f   libvcruntime:frame.obj
 0001:0001e7a0       $$000000                   000000018001f7a0     libvcruntime:memcpy.obj
 0001:0001e847       MoveSmall                  000000018001f847     libvcruntime:memcpy.obj
 0001:0001f370       $$000000                   0000000180020370     libvcruntime:memset.obj
 0001:0001f45c       MsetTab                    000000018002045c     libvcruntime:memset.obj
 0001:0001fa90       $$000000                   0000000180020a90     libvcruntime:handlers.obj
 0001:0001fae0       $$000000                   0000000180020ae0     libvcruntime:_jmpuwind_.obj
 0001:00026288       ?try_get_function@@YAPEAXW4function_id@?A0x679b24ab@@QEBDQEBW4module_id@2@2@Z 0000000180027288 f   libvcruntime:winapi_downlevel.obj
 0001:000266c0       $$000000                   00000001800276c0     libucrt:strncpy.obj
 0001:00026a04       ?<lambda_invoker_cdecl>@<lambda_ef76f8da19e84f0c60b24a81f5fa36d3>@@CAPEAX_K@Z 0000000180027a04 f   libvcruntime:std_type_info.obj
 0001:00026a0c       ?<lambda_invoker_cdecl>@<lambda_c4560dd375471d1680776ed19953e709>@@CAXQEAX@Z 0000000180027a0c f   libvcruntime:std_type_info.obj
 0001:00026a14       ??$thread_start@P6AIPEAX@Z@@YAKQEAX@Z 0000000180027a14 f   libucrt:thread.obj
 0001:00026a8c       ?common_end_thread@@YAXI@Z 0000000180027a8c f   libucrt:thread.obj
 0001:00026b00       ?create_thread_parameter@@YAPEAU__acrt_thread_parameter@@QEAX0@Z 0000000180027b00 f   libucrt:thread.obj
 0001:00026d18       ?atexit_exception_filter@@YAHK@Z 0000000180027d18 f   libucrt:exit.obj
 0001:00026d24       ?common_exit@@YAXHW4_crt_exit_cleanup_mode@@W4_crt_exit_return_mode@@@Z 0000000180027d24 f   libucrt:exit.obj
 0001:00026e90       ?exit_or_terminate_process@@YAXI@Z 0000000180027e90 f   libucrt:exit.obj
 0001:00026edc       ?try_cor_exit_process@@YAXI@Z 0000000180027edc f   libucrt:exit.obj
 0001:00027168       ??$common_vsprintf@Vformat_validation_base@__crt_stdio_output@@D@@YAH_KQEAD0QEBDQEAU__crt_locale_pointers@@1@Z 0000000180028168 f   libucrt:output.obj
 0001:00027710       ??R<lambda_0a64b6a4deda75c01876f29c44fc5eb3>@@QEBAHXZ 0000000180028710 f   libucrt:output.obj
 0001:000297b4       common_flush_all           000000018002a7b4 f   libucrt:fflush.obj
 0001:0002991c       ??R<lambda_9a20e10065b92b5193c3597a66cba9d4>@@QEBAHXZ 000000018002a91c f   libucrt:fputs.obj
 0001:00029b2c       ??$common_getenv@D@@YAPEADQEBD@Z 000000018002ab2c f   libucrt:getenv.obj
 0001:00029b98       ??$common_getenv_nolock@D@@YAPEADQEBD@Z 000000018002ab98 f   libucrt:getenv.obj
 0001:00029e70       ??$parse_command_line@D@@YAXPEADPEAPEAD0PEA_K2@Z 000000018002ae70 f   libucrt:argv_parsing.obj
 0001:0002a208       ??$common_get_or_create_environment_nolock@D@@YAPEAPEADXZ 000000018002b208 f   libucrt:environment_initialization.obj
 0001:0002a250       ??$common_initialize_environment_nolock@D@@YAHXZ 000000018002b250 f   libucrt:environment_initialization.obj
 0001:0002a2bc       ??$create_environment@D@@YAQEAPEADQEAD@Z 000000018002b2bc f   libucrt:environment_initialization.obj
 0001:0002a3b8       ??$free_environment@D@@YAXQEAPEAD@Z 000000018002b3b8 f   libucrt:environment_initialization.obj
 0001:0002a3b8       ??$free_environment@_W@@YAXQEAPEA_W@Z 000000018002b3b8 f   libucrt:environment_initialization.obj
 0001:0002a3fc       ??$initialize_environment_by_cloning_nolock@D@@YAHXZ 000000018002b3fc f   libucrt:environment_initialization.obj
 0001:0002a4d0       ??$uninitialize_environment_internal@D@@YAXAEAPEAPEAD@Z 000000018002b4d0 f   libucrt:environment_initialization.obj
 0001:0002a4ec       ??$uninitialize_environment_internal@_W@@YAXAEAPEAPEA_W@Z 000000018002b4ec f   libucrt:environment_initialization.obj
 0001:0002a72c       ??R<lambda_4e60a939b0d047cfe11ddc22648dfba9>@@QEBAHXZ 000000018002b72c f   libucrt:onexit.obj
 0001:0002a9dc       initialize_global_variables 000000018002b9dc f   libucrt:initialization.obj
 0001:0002a9f0       initialize_c               000000018002b9f0 f   libucrt:initialization.obj
 0001:0002aa14       uninitialize_environment   000000018002ba14 f   libucrt:initialization.obj
 0001:0002aa24       initialize_pointers        000000018002ba24 f   libucrt:initialization.obj
 0001:0002aa78       uninitialize_vcruntime     000000018002ba78 f   libucrt:initialization.obj
 0001:0002aa80       uninitialize_allocated_memory 000000018002ba80 f   libucrt:initialization.obj
 0001:0002b518       ?construct_ptd_array@@YAXQEAU__acrt_ptd@@@Z 000000018002c518 f   libucrt:per_thread_data.obj
 0001:0002b5e8       ?destroy_fls@@YAXPEAX@Z    000000018002c5e8 f   libucrt:per_thread_data.obj
 0001:0002b608       ?destroy_ptd_array@@YAXQEAU__acrt_ptd@@@Z 000000018002c608 f   libucrt:per_thread_data.obj
 0001:0002b700       ?replace_current_thread_locale_nolock@@YAXQEAU__acrt_ptd@@QEAU__crt_locale_data@@@Z 000000018002c700 f   libucrt:per_thread_data.obj
 0001:0002b940       ?try_get_function@@YAPEAXW4function_id@?A0x63058377@@QEBDQEBW4module_id@2@2@Z 000000018002c940 f   libucrt:winapi_thunks.obj
 0001:0002c24c       ?initialize_inherited_file_handles_nolock@@YAXXZ 000000018002d24c f   libucrt:ioinit.obj
 0001:0002c338       ?initialize_stdio_handles_nolock@@YAXXZ 000000018002d338 f   libucrt:ioinit.obj
 0001:0002c524       ?internal_isupper_l@@YA_NHQEAU__crt_locale_pointers@@@Z 000000018002d524 f   libucrt:tolower_toupper.obj
 0001:0002ce28       ?fp_format_a@@YAHQEBNPEAD_KQEAD2H_NIQEAU__crt_locale_pointers@@@Z 000000018002de28 f   libucrt:cvt.obj
 0001:0002d188       ?fp_format_e@@YAHQEBNQEAD_K12H_NIQEAU__crt_locale_pointers@@@Z 000000018002e188 f   libucrt:cvt.obj
 0001:0002d258       ?fp_format_e_internal@@YAHQEAD_KH_NIQEAU_strflt@@2QEAU__crt_locale_pointers@@@Z 000000018002e258 f   libucrt:cvt.obj
 0001:0002d434       ?fp_format_f_internal@@YAHQEAD_KHQEAU_strflt@@_NQEAU__crt_locale_pointers@@@Z 000000018002e434 f   libucrt:cvt.obj
 0001:0002d57c       ?fp_format_g@@YAHQEBNQEAD_K12H_NIQEAU__crt_locale_pointers@@@Z 000000018002e57c f   libucrt:cvt.obj
 0001:0002d6b4       ?fp_format_nan_or_infinity@@YAHW4__acrt_fp_class@@_NPEAD_K1@Z 000000018002e6b4 f   libucrt:cvt.obj
 0001:0002e048       ?write_double_translated_ansi_nolock@@YA?AUwrite_result@?A0x9c548279@@HQEBDI@Z 000000018002f048 f   libucrt:write.obj
 0001:0002e250       ?write_text_ansi_nolock@@YA?AUwrite_result@?A0x9c548279@@HQEBDI@Z 000000018002f250 f   libucrt:write.obj
 0001:0002e358       ?write_text_utf16le_nolock@@YA?AUwrite_result@?A0x9c548279@@HQEBDI@Z 000000018002f358 f   libucrt:write.obj
 0001:0002e474       ?write_text_utf8_nolock@@YA?AUwrite_result@?A0x9c548279@@HQEBDI@Z 000000018002f474 f   libucrt:write.obj
 0001:0002ec7c       ?<helper_func_cdecl>@<lambda_2feae5270eb4d0d5532525f423405775>@@CAHPEBX0@Z 000000018002fc7c f   libucrt:argv_wildcards.obj
 0001:0002ec90       ??$common_expand_argv_wildcards@D@@YAHQEAPEADQEAPEAPEAD@Z 000000018002fc90 f   libucrt:argv_wildcards.obj
 0001:0002ee9c       ??$copy_and_add_argument_to_buffer@D@@YAHQEBD0_KAEAV?$argument_list@D@?A0xca0879c4@@@Z 000000018002fe9c f   libucrt:argv_wildcards.obj
 0001:0002efac       ??$expand_argument_wildcards@D@@YAHQEAD0AEAV?$argument_list@D@?A0xca0879c4@@@Z 000000018002ffac f   libucrt:argv_wildcards.obj
 0001:0002f260       ??R<lambda_ad1ced32f4ac17aa236e5ef05d6b3b7c>@@QEBAXXZ 0000000180030260 f   libucrt:mbctype.obj
 0001:0002f478       ?getSystemCP@@YAHH@Z       0000000180030478 f   libucrt:mbctype.obj
 0001:0002f4f8       ?setSBCS@@YAXPEAU__crt_multibyte_data@@@Z 00000001800304f8 f   libucrt:mbctype.obj
 0001:0002f588       ?setSBUpLow@@YAXPEAU__crt_multibyte_data@@@Z 0000000180030588 f   libucrt:mbctype.obj
 0001:0002f76c       ?setmbcp_internal@@YAHH_N@Z 000000018003076c f   libucrt:mbctype.obj
 0001:0002fcb4       ?x_ismbbtype_l@@YAHPEAU__crt_locale_pointers@@IHH@Z 0000000180030cb4 f   libucrt:ismbbyte.obj
 0001:0002fe6c       ??$common_set_variable_in_environment_nolock@D@@YAHQEADH@Z 0000000180030e6c f   libucrt:setenv.obj
 0001:0003015c       ??$copy_environment@D@@YAPEAPEADQEAPEAD@Z 000000018003115c f   libucrt:setenv.obj
 0001:000309c0       ?GetTableIndexFromLocaleName@@YAHPEB_W@Z 00000001800319c0 f   libucrt:lcidtoname_downlevel.obj
 0001:00030f08       ?__acrt_LCMapStringA_stat@@YAHPEAU__crt_locale_pointers@@PEB_WKPEBDHPEADHHH@Z 0000000180031f08 f   libucrt:lcmapstringa.obj
 0001:00032bfc       memcpy_s                   0000000180033bfc f   libucrt:cfout.obj
 0001:00032c84       ??$write_buffer_nolock@D@@YA_NDV__crt_stdio_stream@@@Z 0000000180033c84 f   libucrt:_flsbuf.obj
 0001:00033048       ?free_crt_array_internal@@YAXQEAPEBX_K@Z 0000000180034048 f   libucrt:inittime.obj
 0001:0003335c       ??$common_lseek@_J@@YA_JH_JH@Z 000000018003435c f   libucrt:lseek.obj
 0001:0003344c       ??$common_lseek_nolock@_J@@YA_JH_JH@Z 000000018003444c f   libucrt:lseek.obj
 0001:000336c8       ?InternalCompareStringA@@YAHPEAU__crt_locale_pointers@@PEB_WKPEBDH2HH@Z 00000001800346c8 f   libucrt:comparestringa.obj
 0001:00033af0       ?shortsort@@YAXPEAD0_KP6AHPEBX2@Z@Z 0000000180034af0 f   libucrt:qsort.obj
 0001:00034034       ?initialize_multibyte@@YAHXZ 0000000180035034 f   libucrt:multibyte_initializer.obj
 0001:000344d0       $$000000                   00000001800354d0     libucrt:log10.obj
 0001:00034c6c       common_control87           0000000180035c6c f   libucrt:ieee.obj
 0001:00034f04       _call_matherr              0000000180035f04 f   libucrt:libm_error.obj
 0001:00034f6c       _exception_enabled         0000000180035f6c f   libucrt:libm_error.obj
 0001:00035200       _log_special_common        0000000180036200 f   libucrt:log_special.obj
 0001:000352a0       $$000000                   00000001800362a0     libucrt:fpsr.obj
 0001:00035810       $$000000                   0000000180036810     libvcruntime:memcmp.obj
 0001:00035a00       $$000000                   0000000180036a00     LIBCMT:_guard_dispatch_.obj
 0001:00035a20       ?catch$2@?0??push@micro_queue@internal@tbb@@QEAAXPEBX_KAEAVconcurrent_queue_base_v3@23@W4copy_specifics@423@@Z@4HA 0000000180036a20 f   concurrent_queue.obj
 0001:00035a2d       __catch$?push@micro_queue@internal@tbb@@QEAAXPEBX_KAEAVconcurrent_queue_base_v3@23@W4copy_specifics@423@@Z$0 0000000180036a2d f   concurrent_queue.obj
 0001:00035a54       ?catch$3@?0??push@micro_queue@internal@tbb@@QEAAXPEBX_KAEAVconcurrent_queue_base_v3@23@W4copy_specifics@423@@Z@4HA 0000000180036a54 f   concurrent_queue.obj
 0001:00035a61       __catch$?push@micro_queue@internal@tbb@@QEAAXPEBX_KAEAVconcurrent_queue_base_v3@23@W4copy_specifics@423@@Z$2 0000000180036a61 f   concurrent_queue.obj
 0001:00035a90       ?dtor$0@?0??pop@micro_queue@internal@tbb@@QEAA_NPEAX_KAEAVconcurrent_queue_base_v3@23@@Z@4HA 0000000180036a90 f   concurrent_queue.obj
 0001:00035aa0       ?catch$0@?0??assign@micro_queue@internal@tbb@@QEAAAEAU123@AEBU123@AEAVconcurrent_queue_base_v3@23@W4copy_specifics@423@@Z@4HA 0000000180036aa0 f   concurrent_queue.obj
 0001:00035aad       __catch$?assign@micro_queue@internal@tbb@@QEAAAEAU123@AEBU123@AEAVconcurrent_queue_base_v3@23@W4copy_specifics@423@@Z$0 0000000180036aad f   concurrent_queue.obj
 0001:00035ac0       ?dtor$0@?0??internal_insert_item@concurrent_queue_base_v3@internal@tbb@@IEAAXPEBXW4copy_specifics@123@@Z@4HA 0000000180036ac0 f   concurrent_queue.obj
 0001:00035acc       ?catch$6@?0??internal_insert_item@concurrent_queue_base_v3@internal@tbb@@IEAAXPEBXW4copy_specifics@123@@Z@4HA 0000000180036acc f   concurrent_queue.obj
 0001:00035ad9       __catch$?internal_insert_item@concurrent_queue_base_v3@internal@tbb@@IEAAXPEBXW4copy_specifics@123@@Z$0 0000000180036ad9 f   concurrent_queue.obj
 0001:00035b11       ?catch$5@?0??internal_insert_item@concurrent_queue_base_v3@internal@tbb@@IEAAXPEBXW4copy_specifics@123@@Z@4HA 0000000180036b11 f   concurrent_queue.obj
 0001:00035b1e       __catch$?internal_insert_item@concurrent_queue_base_v3@internal@tbb@@IEAAXPEBXW4copy_specifics@123@@Z$1 0000000180036b1e f   concurrent_queue.obj
 0001:00035b30       ?dtor$0@?0??internal_pop@concurrent_queue_base_v3@internal@tbb@@IEAAXPEAX@Z@4HA 0000000180036b30 f   concurrent_queue.obj
 0001:00035b3c       ?catch$8@?0??internal_pop@concurrent_queue_base_v3@internal@tbb@@IEAAXPEAX@Z@4HA 0000000180036b3c f   concurrent_queue.obj
 0001:00035b49       __catch$?internal_pop@concurrent_queue_base_v3@internal@tbb@@IEAAXPEAX@Z$0 0000000180036b49 f   concurrent_queue.obj
 0001:00035b60       ?catch$7@?0??internal_pop@concurrent_queue_base_v3@internal@tbb@@IEAAXPEAX@Z@4HA 0000000180036b60 f   concurrent_queue.obj
 0001:00035b6d       __catch$?internal_pop@concurrent_queue_base_v3@internal@tbb@@IEAAXPEAX@Z$1 0000000180036b6d f   concurrent_queue.obj
 0001:00035b80       ?dtor$0@?0??enable_segment@helper@concurrent_vector_base_v3@internal@tbb@@SA_KAEAV234@_K1_N@Z@4HA 0000000180036b80 f   concurrent_vector.obj
 0001:00035b8c       ?dtor$1@?0??enable_segment@helper@concurrent_vector_base_v3@internal@tbb@@SA_KAEAV234@_K1_N@Z@4HA 0000000180036b8c f   concurrent_vector.obj
 0001:00035ba0       ?dtor$0@?0??internal_grow@concurrent_vector_base_v3@internal@tbb@@IEAAX_K00P6AXPEAXPEBX0@Z2@Z@4HA 0000000180036ba0 f   concurrent_vector.obj
 0001:00035bb0       ?dtor$0@?0??internal_resize@concurrent_vector_base_v3@internal@tbb@@IEAAX_K00PEBXP6AXPEAX0@ZP6AX210@Z@Z@4HA 0000000180036bb0 f   concurrent_vector.obj
 0001:00035bbc       ?dtor$1@?0??internal_resize@concurrent_vector_base_v3@internal@tbb@@IEAAX_K00PEBXP6AXPEAX0@ZP6AX210@Z@Z@4HA 0000000180036bbc f   concurrent_vector.obj
 0001:00035bd0       ?dtor$0@?0??internal_clear@concurrent_vector_base_v3@internal@tbb@@IEAA_KP6AXPEAX_K@Z@Z@4HA 0000000180036bd0 f   concurrent_vector.obj
 0001:00035be0       ?catch$4@?0??internal_compact@concurrent_vector_base_v3@internal@tbb@@IEAAPEAX_KPEAXP6AX10@ZP6AX1PEBX0@Z@Z@4HA 0000000180036be0 f   concurrent_vector.obj
 0001:00035bed       __catch$?internal_compact@concurrent_vector_base_v3@internal@tbb@@IEAAPEAX_KPEAXP6AX10@ZP6AX1PEBX0@Z@Z$0 0000000180036bed f   concurrent_vector.obj
 0001:00035c75       ?dtor$0@?0??internal_compact@concurrent_vector_base_v3@internal@tbb@@IEAAPEAX_KPEAXP6AX10@ZP6AX1PEBX0@Z@Z@4HA 0000000180036c75 f   concurrent_vector.obj
 0001:00035c90       ?dtor$0@?0??put_token@input_buffer@internal@tbb@@QEAA_NAEAUtask_info@23@_N@Z@4HA 0000000180036c90 f   pipeline.obj
 0001:00035c90       ?dtor$1@?0??create_master@generic_scheduler@internal@tbb@@SAPEAV123@PEAVarena@23@@Z@4HA 0000000180036c90 f   scheduler.obj
 0001:00035c90       ?dtor$0@?0??push@?$task_stream@$02@internal@tbb@@QEAAXPEAVtask@3@HAEAVFastRandom@23@@Z@4HA 0000000180036c90 f   arena.obj
 0001:00035c90       ?dtor$0@?0??return_item@input_buffer@internal@tbb@@QEAA_NAEAUtask_info@23@_N@Z@4HA 0000000180036c90 f   pipeline.obj
 0001:00035c90       ?dtor$0@?0??cleanup_master@generic_scheduler@internal@tbb@@QEAAX_N@Z@4HA 0000000180036c90 f   scheduler.obj
 0001:00035ca0       ?dtor$0@?0??add_filter@pipeline@tbb@@QEAAXAEAVfilter@2@@Z@4HA 0000000180036ca0 f   pipeline.obj
 0001:00035cbd       ?dtor$1@?0??add_filter@pipeline@tbb@@QEAAXAEAVfilter@2@@Z@4HA 0000000180036cbd f   pipeline.obj
 0001:00035cda       ?dtor$2@?0??add_filter@pipeline@tbb@@QEAAXAEAVfilter@2@@Z@4HA 0000000180036cda f   pipeline.obj
 0001:00035cf7       ?dtor$3@?0??add_filter@pipeline@tbb@@QEAAXAEAVfilter@2@@Z@4HA 0000000180036cf7 f   pipeline.obj
 0001:00035d20       ?dtor$0@?0??run@pipeline@tbb@@QEAAX_KAEAVtask_group_context@2@@Z@4HA 0000000180036d20 f   pipeline.obj
 0001:00035d30       ?dtor$0@?0??run@pipeline@tbb@@QEAAX_K@Z@4HA 0000000180036d30 f   pipeline.obj
 0001:00035d40       ?dtor$0@?0???$note_done@Vstage_task@internal@tbb@@@input_buffer@internal@tbb@@QEAAXKAEAVstage_task@12@@Z@4HA 0000000180036d40 f   pipeline.obj
 0001:00035d50       ?dtor$0@?0??lock_read@reader_writer_lock@interface5@tbb@@QEAAXXZ@4HA 0000000180036d50 f   reader_writer_lock.obj
 0001:00035d60       ?dtor$0@?0???0private_server@rml@internal@tbb@@QEAA@AEAVtbb_client@123@@Z@4HA 0000000180036d60 f   private_server.obj
 0001:00035d91       ?dtor$6@?0???0private_server@rml@internal@tbb@@QEAA@AEAVtbb_client@123@@Z@4HA 0000000180036d91 f   private_server.obj
 0001:00035db0       ?dtor$0@?0??_Copy_exception@exception_ptr@std@@SA?AV12@PEAXPEBX@Z@4HA 0000000180036db0 f   task_group_context.obj
 0001:00035dc0       ?dtor$0@?0??allocate@tbb_exception_ptr@internal@tbb@@SAPEAV123@XZ@4HA 0000000180036dc0 f   task_group_context.obj
 0001:00035dc0       ?dtor$0@?0??allocate@tbb_exception_ptr@internal@tbb@@SAPEAV123@AEBVtbb_exception@3@@Z@4HA 0000000180036dc0 f   task_group_context.obj
 0001:00035dd0       ?catch$0@?0??register_pending_exception@task_group_context@tbb@@QEAAXXZ@4HA 0000000180036dd0 f   task_group_context.obj
 0001:00035dde       __catch$?register_pending_exception@task_group_context@tbb@@QEAAXXZ$0 0000000180036dde f   task_group_context.obj
 0001:00035e1d       ?catch$1@?0??register_pending_exception@task_group_context@tbb@@QEAAXXZ@4HA 0000000180036e1d f   task_group_context.obj
 0001:00035e2d       __catch$?register_pending_exception@task_group_context@tbb@@QEAAXXZ$1 0000000180036e2d f   task_group_context.obj
 0001:00035ea4       ?catch$2@?0??register_pending_exception@task_group_context@tbb@@QEAAXXZ@4HA 0000000180036ea4 f   task_group_context.obj
 0001:00035eb2       __catch$?register_pending_exception@task_group_context@tbb@@QEAAXXZ$2 0000000180036eb2 f   task_group_context.obj
 0001:00035f10       ?dtor$0@?0??create_rml_server@governor@internal@tbb@@CAPEAVtbb_server@rml@23@AEAVtbb_client@523@@Z@4HA 0000000180036f10 f   governor.obj
 0001:00035f30       ?dtor$0@?0??global_market@market@internal@tbb@@CAAEAV123@_NI_K@Z@4HA 0000000180036f30 f   market.obj
 0001:00035f3c       ?dtor$1@?0??global_market@market@internal@tbb@@CAAEAV123@_NI_K@Z@4HA 0000000180036f3c f   market.obj
 0001:00035f60       ?dtor$1@?0??throw_self@tbb_exception_ptr@internal@tbb@@QEAAXXZ@4HA 0000000180036f60 f   arena.obj
 0001:00035f70       ?dtor$0@?0???0arena@internal@tbb@@QEAA@AEAVmarket@12@II@Z@4HA 0000000180036f70 f   arena.obj
 0001:00035f80       ?dtor$0@?0??allocate_arena@arena@internal@tbb@@SAAEAV123@AEAVmarket@23@II@Z@4HA 0000000180036f80 f   arena.obj
 0001:00035fa0       ?dtor$0@?0??execute@delegated_task@internal@interface7@tbb@@EEAAPEAVtask@4@XZ@4HA 0000000180036fa0 f   arena.obj
 0001:00035fb0       ?dtor$0@?0??internal_execute@task_arena_base@internal@interface7@tbb@@IEBAXAEAVdelegate_base@234@@Z@4HA 0000000180036fb0 f   arena.obj
 0001:00035fbc       ?dtor$1@?0??internal_execute@task_arena_base@internal@interface7@tbb@@IEBAXAEAVdelegate_base@234@@Z@4HA 0000000180036fbc f   arena.obj
 0001:00035fc8       ?catch$16@?0??internal_execute@task_arena_base@internal@interface7@tbb@@IEBAXAEAVdelegate_base@234@@Z@4HA 0000000180036fc8 f   arena.obj
 0001:00035fd5       __catch$?internal_execute@task_arena_base@internal@interface7@tbb@@IEBAXAEAVdelegate_base@234@@Z$0 0000000180036fd5 f   arena.obj
 0001:0003608b       ?dtor$2@?0??internal_execute@task_arena_base@internal@interface7@tbb@@IEBAXAEAVdelegate_base@234@@Z@4HA 000000018003708b f   arena.obj
 0001:00036097       ?dtor$3@?0??internal_execute@task_arena_base@internal@interface7@tbb@@IEBAXAEAVdelegate_base@234@@Z@4HA 0000000180037097 f   arena.obj
 0001:000360a3       ?dtor$4@?0??internal_execute@task_arena_base@internal@interface7@tbb@@IEBAXAEAVdelegate_base@234@@Z@4HA 00000001800370a3 f   arena.obj
 0001:000360af       ?dtor$5@?0??internal_execute@task_arena_base@internal@interface7@tbb@@IEBAXAEAVdelegate_base@234@@Z@4HA 00000001800370af f   arena.obj
 0001:000360bb       ?dtor$7@?0??internal_execute@task_arena_base@internal@interface7@tbb@@IEBAXAEAVdelegate_base@234@@Z@4HA 00000001800370bb f   arena.obj
 0001:000360d0       ?dtor$0@?0??internal_wait@task_arena_base@internal@interface7@tbb@@IEBAXXZ@4HA 00000001800370d0 f   arena.obj
 0001:000360dc       ?dtor$1@?0??internal_wait@task_arena_base@internal@interface7@tbb@@IEBAXXZ@4HA 00000001800370dc f   arena.obj
 0001:000360f0       ?dtor$0@?0??initialize@?$task_stream@$02@internal@tbb@@QEAAXI@Z@4HA 00000001800370f0 f   arena.obj
 0001:00036140       ?dtor$0@?0???0generic_scheduler@internal@tbb@@IEAA@AEAVmarket@12@@Z@4HA 0000000180037140 f   scheduler.obj
 0001:00036150       ?dtor$0@?0??local_spawn@generic_scheduler@internal@tbb@@QEAAXAEAVtask@3@AEAPEAV43@@Z@4HA 0000000180037150 f   scheduler.obj
 0001:00036160       ?dtor$0@?0??local_spawn_root_and_wait@generic_scheduler@internal@tbb@@QEAAXAEAVtask@3@AEAPEAV43@@Z@4HA 0000000180037160 f   scheduler.obj
 0001:00036170       ?dtor$0@?0??winnow_task_pool@generic_scheduler@internal@tbb@@QEAAPEAVtask@3@XZ@4HA 0000000180037170 f   scheduler.obj
 0001:00036180       ?dtor$0@?0??reload_tasks@generic_scheduler@internal@tbb@@QEAAPEAVtask@3@AEAPEAV43@AEAPEAPEAV43@_J@Z@4HA 0000000180037180 f   scheduler.obj
 0001:00036190       ?dtor$0@?0??allocate_scheduler@?$custom_scheduler@UIntelSchedulerTraits@internal@tbb@@@internal@tbb@@SAPEAVgeneric_scheduler@23@AEAVmarket@23@@Z@4HA 0000000180037190 f   scheduler.obj
 0001:00036190       ?dtor$0@?0??allocate_scheduler@?$custom_scheduler@UDefaultSchedulerTraits@internal@tbb@@@internal@tbb@@SAPEAVgeneric_scheduler@23@AEAVmarket@23@@Z@4HA 0000000180037190 f   scheduler.obj
 0001:000361b0       ?dtor$0@?0??local_wait_for_all@?$custom_scheduler@UDefaultSchedulerTraits@internal@tbb@@@internal@tbb@@EEAAXAEAVtask@3@PEAV43@@Z@4HA 00000001800371b0 f   scheduler.obj
 0001:000361bc       ?catch$4@?0??local_wait_for_all@?$custom_scheduler@UDefaultSchedulerTraits@internal@tbb@@@internal@tbb@@EEAAXAEAVtask@3@PEAV43@@Z@4HA 00000001800371bc f   scheduler.obj
 0001:000361ca       __catch$?local_wait_for_all@?$custom_scheduler@UDefaultSchedulerTraits@internal@tbb@@@internal@tbb@@EEAAXAEAVtask@3@PEAV43@@Z$3 00000001800371ca f   scheduler.obj
 0001:00036218       ?catch$5@?0??local_wait_for_all@?$custom_scheduler@UDefaultSchedulerTraits@internal@tbb@@@internal@tbb@@EEAAXAEAVtask@3@PEAV43@@Z@4HA 0000000180037218 f   scheduler.obj
 0001:00036228       __catch$?local_wait_for_all@?$custom_scheduler@UDefaultSchedulerTraits@internal@tbb@@@internal@tbb@@EEAAXAEAVtask@3@PEAV43@@Z$4 0000000180037228 f   scheduler.obj
 0001:000362ae       ?catch$6@?0??local_wait_for_all@?$custom_scheduler@UDefaultSchedulerTraits@internal@tbb@@@internal@tbb@@EEAAXAEAVtask@3@PEAV43@@Z@4HA 00000001800372ae f   scheduler.obj
 0001:000362bc       __catch$?local_wait_for_all@?$custom_scheduler@UDefaultSchedulerTraits@internal@tbb@@@internal@tbb@@EEAAXAEAVtask@3@PEAV43@@Z$5 00000001800372bc f   scheduler.obj
 0001:00036320       ?dtor$0@?0??local_wait_for_all@?$custom_scheduler@UIntelSchedulerTraits@internal@tbb@@@internal@tbb@@EEAAXAEAVtask@3@PEAV43@@Z@4HA 0000000180037320 f   scheduler.obj
 0001:0003632c       ?catch$4@?0??local_wait_for_all@?$custom_scheduler@UIntelSchedulerTraits@internal@tbb@@@internal@tbb@@EEAAXAEAVtask@3@PEAV43@@Z@4HA 000000018003732c f   scheduler.obj
 0001:0003633a       __catch$?local_wait_for_all@?$custom_scheduler@UIntelSchedulerTraits@internal@tbb@@@internal@tbb@@EEAAXAEAVtask@3@PEAV43@@Z$3 000000018003733a f   scheduler.obj
 0001:00036388       ?catch$5@?0??local_wait_for_all@?$custom_scheduler@UIntelSchedulerTraits@internal@tbb@@@internal@tbb@@EEAAXAEAVtask@3@PEAV43@@Z@4HA 0000000180037388 f   scheduler.obj
 0001:00036398       __catch$?local_wait_for_all@?$custom_scheduler@UIntelSchedulerTraits@internal@tbb@@@internal@tbb@@EEAAXAEAVtask@3@PEAV43@@Z$4 0000000180037398 f   scheduler.obj
 0001:0003641e       ?catch$6@?0??local_wait_for_all@?$custom_scheduler@UIntelSchedulerTraits@internal@tbb@@@internal@tbb@@EEAAXAEAVtask@3@PEAV43@@Z@4HA 000000018003741e f   scheduler.obj
 0001:0003642c       __catch$?local_wait_for_all@?$custom_scheduler@UIntelSchedulerTraits@internal@tbb@@@internal@tbb@@EEAAXAEAVtask@3@PEAV43@@Z$5 000000018003742c f   scheduler.obj
 0001:00036490       ?dtor$0@?0??do_notify_exit_observers@observer_list@internal@tbb@@AEAAXPEAVobserver_proxy@23@_N@Z@4HA 0000000180037490 f   observer_proxy.obj
 0001:00036490       ?dtor$0@?0??do_notify_entry_observers@observer_list@internal@tbb@@AEAAXAEAPEAVobserver_proxy@23@_N@Z@4HA 0000000180037490 f   observer_proxy.obj
 0001:000364a0       ?dtor$0@?0??internal_destroy@global_control@interface9@tbb@@AEAAXXZ@4HA 00000001800374a0 f   tbb_main.obj
 0001:000364a0       ?dtor$0@?0??internal_create@global_control@interface9@tbb@@AEAAXXZ@4HA 00000001800374a0 f   tbb_main.obj
 0001:000364b0       ?dtor$0@?0??push@micro_queue@internal@tbb@@QEAAXPEBX_KAEAVconcurrent_queue_base@23@@Z@4HA 00000001800374b0 f   concurrent_queue_v2.obj
 0001:000364c0       ?dtor$0@?0??pop@micro_queue@internal@tbb@@QEAA_NPEAX_KAEAVconcurrent_queue_base@23@@Z@4HA 00000001800374c0 f   concurrent_queue_v2.obj
 0001:000364cc       ?dtor$0@?0???$?0AEAPEAUEHExceptionRecord@@_N@?$_Ref_count_obj_alloc@V__ExceptionPtr@@U?$_StaticAllocator@H@@@std@@QEAA@AEBU?$_StaticAllocator@H@@AEAPEAUEHExceptionRecord@@$$QEA_N@Z@4HA 00000001800374cc f   libcpmt:excptptr.obj
 0001:000364d8       ?dtor$1@?0???$?0AEAPEAUEHExceptionRecord@@_N@?$_Ref_count_obj_alloc@V__ExceptionPtr@@U?$_StaticAllocator@H@@@std@@QEAA@AEBU?$_StaticAllocator@H@@AEAPEAUEHExceptionRecord@@$$QEA_N@Z@4HA 00000001800374d8 f   libcpmt:excptptr.obj
 0001:000364f4       ?dtor$11@?0???$allocate_shared@V__ExceptionPtr@@U?$_StaticAllocator@H@@AEAPEAUEHExceptionRecord@@_N@std@@YA?AV?$shared_ptr@V__ExceptionPtr@@@0@AEBU?$_StaticAllocator@H@@AEAPEAUEHExceptionRecord@@$$QEA_N@Z@4HA 00000001800374f4 f   libcpmt:excptptr.obj
 0001:00036510       ?catch$18@?0???$allocate_shared@V__ExceptionPtr@@U?$_StaticAllocator@H@@AEAPEAUEHExceptionRecord@@_N@std@@YA?AV?$shared_ptr@V__ExceptionPtr@@@0@AEBU?$_StaticAllocator@H@@AEAPEAUEHExceptionRecord@@$$QEA_N@Z@4HA 0000000180037510 f   libcpmt:excptptr.obj
 0001:0003651d       __catch$??$allocate_shared@V__ExceptionPtr@@U?$_StaticAllocator@H@@AEAPEAUEHExceptionRecord@@_N@std@@YA?AV?$shared_ptr@V__ExceptionPtr@@@0@AEBU?$_StaticAllocator@H@@AEAPEAUEHExceptionRecord@@$$QEA_N@Z$0 000000018003751d f   libcpmt:excptptr.obj
 0001:00036527       ?dtor$0@?0???$make_shared@V__ExceptionPtr@@AEAPEAUEHExceptionRecord@@_N@std@@YA?AV?$shared_ptr@V__ExceptionPtr@@@0@AEAPEAUEHExceptionRecord@@$$QEA_N@Z@4HA 0000000180037527 f   libcpmt:excptptr.obj
 0001:00036544       ?dtor$4@?0???$make_shared@V__ExceptionPtr@@AEAPEAUEHExceptionRecord@@_N@std@@YA?AV?$shared_ptr@V__ExceptionPtr@@@0@AEAPEAUEHExceptionRecord@@$$QEA_N@Z@4HA 0000000180037544 f   libcpmt:excptptr.obj
 0001:00036550       ?dtor$5@?0???$make_shared@V__ExceptionPtr@@AEAPEAUEHExceptionRecord@@_N@std@@YA?AV?$shared_ptr@V__ExceptionPtr@@@0@AEAPEAUEHExceptionRecord@@$$QEA_N@Z@4HA 0000000180037550 f   libcpmt:excptptr.obj
 0001:00036570       ?catch$0@?0??_CallCopyCtor@__ExceptionPtr@@AEBAXPEAX0_KQEBU_s_CatchableType@@@Z@4HA 0000000180037570 f   libcpmt:excptptr.obj
 0001:0003657d       __catch$?_CallCopyCtor@__ExceptionPtr@@AEBAXPEAX0_KQEBU_s_CatchableType@@@Z$0 000000018003757d f   libcpmt:excptptr.obj
 0001:00036583       ?catch$3@?0??_CopyException@__ExceptionPtr@@SA?AV?$shared_ptr@V__ExceptionPtr@@@std@@PEBXPEBU_s_ThrowInfo@@_N@Z@4HA 0000000180037583 f   libcpmt:excptptr.obj
 0001:00036590       __catch$?_CopyException@__ExceptionPtr@@SA?AV?$shared_ptr@V__ExceptionPtr@@@std@@PEBXPEBU_s_ThrowInfo@@_N@Z$0 0000000180037590 f   libcpmt:excptptr.obj
 0001:000365cc       ?catch$4@?0??_CopyException@__ExceptionPtr@@SA?AV?$shared_ptr@V__ExceptionPtr@@@std@@PEBXPEBU_s_ThrowInfo@@_N@Z@4HA 00000001800375cc f   libcpmt:excptptr.obj
 0001:000365d9       __catch$?_CopyException@__ExceptionPtr@@SA?AV?$shared_ptr@V__ExceptionPtr@@@std@@PEBXPEBU_s_ThrowInfo@@_N@Z$1 00000001800375d9 f   libcpmt:excptptr.obj
 0001:000365df       ?catch$6@?0??_CurrentException@__ExceptionPtr@@SA?AV?$shared_ptr@V__ExceptionPtr@@@std@@XZ@4HA 00000001800375df f   libcpmt:excptptr.obj
 0001:000365ec       __catch$?_CurrentException@__ExceptionPtr@@SA?AV?$shared_ptr@V__ExceptionPtr@@@std@@XZ$0 00000001800375ec f   libcpmt:excptptr.obj
 0001:00036625       ?catch$5@?0??_CurrentException@__ExceptionPtr@@SA?AV?$shared_ptr@V__ExceptionPtr@@@std@@XZ@4HA 0000000180037625 f   libcpmt:excptptr.obj
 0001:00036632       __catch$?_CurrentException@__ExceptionPtr@@SA?AV?$shared_ptr@V__ExceptionPtr@@@std@@XZ$1 0000000180037632 f   libcpmt:excptptr.obj
 0001:00036638       ?dtor$0@?0??_InitBadAllocException@__ExceptionPtr@@CA?AV?$shared_ptr@V__ExceptionPtr@@@std@@XZ@4HA 0000000180037638 f   libcpmt:excptptr.obj
 0001:00036644       ?fin$0@?0???_M@YAXPEAX_K1P6AX0@Z@Z@4HA 0000000180037644 f   LIBCMT:ehvecdtr.obj
 0001:00036670       ?filt$0@?0??__ArrayUnwind@@YAXPEAX_K1P6AX0@Z@Z@4HA 0000000180037670 f   LIBCMT:ehvecdtr.obj
 0001:000366b1       ?fin$0@?0???_L@YAXPEAX_K1P6AX0@Z2@Z@4HA 00000001800376b1 f   LIBCMT:ehvecctr.obj
 0001:000366dd       __scrt_is_nonwritable_in_current_image$filt$0 00000001800376dd f   LIBCMT:utility.obj
 0001:000366f5       ?fin$0@?0??dllmain_crt_process_attach@@YAHQEAUHINSTANCE__@@QEAX@Z@4HA 00000001800376f5 f   LIBCMT:dll_dllmain.obj
 0001:0003670c       ?fin$0@?0??dllmain_crt_process_detach@@YAH_N@Z@4HA 000000018003770c f   LIBCMT:dll_dllmain.obj
 0001:00036728       ?filt$0@?0??dllmain_dispatch@@YAHQEAUHINSTANCE__@@KQEAX@Z@4HA 0000000180037728 f   LIBCMT:dll_dllmain.obj
 0001:0003675e       __CxxCallCatchBlock$filt$0 000000018003775e f   libvcruntime:frame.obj
 0001:00036783       __CxxCallCatchBlock$fin$1  0000000180037783 f   libvcruntime:frame.obj
 0001:000367fb       __DestructExceptionObject$filt$0 00000001800377fb f   libvcruntime:frame.obj
 0001:00036813       __FrameUnwindToState$filt$0 0000000180037813 f   libvcruntime:frame.obj
 0001:00036829       __FrameUnwindToState$fin$1 0000000180037829 f   libvcruntime:frame.obj
 0001:0003684c       _CallSETranslator$filt$0   000000018003784c f   libvcruntime:trnsctrl.obj
 0001:00036898       __unDName$fin$0            0000000180037898 f   libvcruntime:undname.obj
 0001:000368ae       ?filt$0@?0???$thread_start@P6AIPEAX@Z@@YAKQEAX@Z@4HA 00000001800378ae f   libucrt:thread.obj
 0001:000368cc       ?filt$0@?0??common_exit@@YAXHW4_crt_exit_cleanup_mode@@W4_crt_exit_return_mode@@@Z@4HA 00000001800378cc f   libucrt:exit.obj
 0001:000368e7       ?fin$1@?0??common_exit@@YAXHW4_crt_exit_cleanup_mode@@W4_crt_exit_return_mode@@@Z@4HA 00000001800378e7 f   libucrt:exit.obj
 0001:00036900       ?fin$0@?0???$?RV<lambda_a81aa23bb2c9577c1e55b9d0b57d9de4>@@AEAV<lambda_9a20e10065b92b5193c3597a66cba9d4>@@V<lambda_cb3a421ff86d8a5f008440ee6b28fa9c>@@@?$__crt_seh_guarded_call@H@@QEAAH$$QEAV<lambda_a81aa23bb2c9577c1e55b9d0b57d9de4>@@AEAV<lambda_9a20e10065b92b5193c3597a66cba9d4>@@$$QEAV<lambda_cb3a421ff86d8a5f008440ee6b28fa9c>@@@Z@4HA 0000000180037900 f   libucrt:fputs.obj
 0001:00036900       ?fin$0@?0???$?RV<lambda_aa279a7bcb127014629d5b1d62c7325d>@@AEAV<lambda_0a64b6a4deda75c01876f29c44fc5eb3>@@V<lambda_3323e69fbefe9d1a11713e670d47cdfa>@@@?$__crt_seh_guarded_call@H@@QEAAH$$QEAV<lambda_aa279a7bcb127014629d5b1d62c7325d>@@AEAV<lambda_0a64b6a4deda75c01876f29c44fc5eb3>@@$$QEAV<lambda_3323e69fbefe9d1a11713e670d47cdfa>@@@Z@4HA 0000000180037900 f   libucrt:output.obj
 0001:0003691b       common_flush_all$fin$0     000000018003791b f   libucrt:fflush.obj
 0001:00036935       common_flush_all$fin$1     0000000180037935 f   libucrt:fflush.obj
 0001:0003694e       fclose$fin$0               000000018003794e f   libucrt:fclose.obj
 0001:0003694e       fflush$fin$0               000000018003794e f   libucrt:fflush.obj
 0001:00036966       ?fin$0@?0???$common_getenv@D@@YAPEADQEBD@Z@4HA 0000000180037966 f   libucrt:getenv.obj
 0001:0003697f       _query_new_handler$fin$0   000000018003797f f   libucrt:new_handler.obj
 0001:00036995       ?fin$0@?0???$?RV<lambda_e24bbb7b643b32fcea6fa61b31d4c984>@@AEAV<lambda_275893d493268fdec8709772e3fcec0e>@@V<lambda_9d71df4d7cf3f480f8d633942495c3b0>@@@?$__crt_seh_guarded_call@H@@QEAAH$$QEAV<lambda_e24bbb7b643b32fcea6fa61b31d4c984>@@AEAV<lambda_275893d493268fdec8709772e3fcec0e>@@$$QEAV<lambda_9d71df4d7cf3f480f8d633942495c3b0>@@@Z@4HA 0000000180037995 f   libucrt:onexit.obj
 0001:000369b2       ?fin$0@?0???$?RV<lambda_c36588078e9f5dfd39652860aa6b3aaf>@@AEAV<lambda_ec61778202f4f5fc7e7711acc23c3bca>@@V<lambda_dc9d2797ccde5d239b4a0efae8ebd7db>@@@?$__crt_seh_guarded_call@P6AXH@Z@@QEAAP6AXH@Z$$QEAV<lambda_c36588078e9f5dfd39652860aa6b3aaf>@@AEAV<lambda_ec61778202f4f5fc7e7711acc23c3bca>@@$$QEAV<lambda_dc9d2797ccde5d239b4a0efae8ebd7db>@@@Z@4HA 00000001800379b2 f   libucrt:signal.obj
 0001:000369b2       ?fin$0@?0???$?RV<lambda_5e887d1dcbef67a5eb4283622ba103bf>@@AEAV<lambda_4466841279450cc726390878d4a41900>@@V<lambda_341c25c0346d94847f1f3c463c57e077>@@@?$__crt_seh_guarded_call@X@@QEAAX$$QEAV<lambda_5e887d1dcbef67a5eb4283622ba103bf>@@AEAV<lambda_4466841279450cc726390878d4a41900>@@$$QEAV<lambda_341c25c0346d94847f1f3c463c57e077>@@@Z@4HA 00000001800379b2 f   libucrt:per_thread_data.obj
 0001:000369b2       ?fin$0@?0???$?RV<lambda_46352004c1216016012b18bd6f87e700>@@AEAV<lambda_3bd07e1a1191394380780325891bf33f>@@V<lambda_334532d3f185bcaa59b5be82d7d22bff>@@@?$__crt_seh_guarded_call@X@@QEAAX$$QEAV<lambda_46352004c1216016012b18bd6f87e700>@@AEAV<lambda_3bd07e1a1191394380780325891bf33f>@@$$QEAV<lambda_334532d3f185bcaa59b5be82d7d22bff>@@@Z@4HA 00000001800379b2 f   libucrt:per_thread_data.obj
 0001:000369b2       ?fin$0@?0???$?RV<lambda_b8c45f8f788dd370798f47cfe8ac3a86>@@AEAV<lambda_4e60a939b0d047cfe11ddc22648dfba9>@@V<lambda_332c3edc96d0294ec56c57d38c1cdfd5>@@@?$__crt_seh_guarded_call@H@@QEAAH$$QEAV<lambda_b8c45f8f788dd370798f47cfe8ac3a86>@@AEAV<lambda_4e60a939b0d047cfe11ddc22648dfba9>@@$$QEAV<lambda_332c3edc96d0294ec56c57d38c1cdfd5>@@@Z@4HA 00000001800379b2 f   libucrt:onexit.obj
 0001:000369b2       ?fin$0@?0???$?RV<lambda_72d1df2b273a38828b1ce30cbf4cdab5>@@AEAV<lambda_876a65b173b8412d3a47c70a915b0cf4>@@V<lambda_41932305e351933ebe8f8be3ed8bb5dc>@@@?$__crt_seh_guarded_call@X@@QEAAX$$QEAV<lambda_72d1df2b273a38828b1ce30cbf4cdab5>@@AEAV<lambda_876a65b173b8412d3a47c70a915b0cf4>@@$$QEAV<lambda_41932305e351933ebe8f8be3ed8bb5dc>@@@Z@4HA 00000001800379b2 f   libucrt:per_thread_data.obj
 0001:000369b2       ?fin$0@?0???$?RV<lambda_fb3a7dec4e47f37f22dae91bb15c9095>@@AEAV<lambda_698284760c8add0bfb0756c19673e34b>@@V<lambda_dfb8eca1e75fef3034a8fb18dd509707>@@@?$__crt_seh_guarded_call@X@@QEAAX$$QEAV<lambda_fb3a7dec4e47f37f22dae91bb15c9095>@@AEAV<lambda_698284760c8add0bfb0756c19673e34b>@@$$QEAV<lambda_dfb8eca1e75fef3034a8fb18dd509707>@@@Z@4HA 00000001800379b2 f   libucrt:per_thread_data.obj
 0001:000369b2       ?fin$0@?0???$?RV<lambda_99476a1ad63dd22509b5d3e65b0ffc95>@@AEAV<lambda_ad1ced32f4ac17aa236e5ef05d6b3b7c>@@V<lambda_f7424dd8d45958661754dc4f2697e9c3>@@@?$__crt_seh_guarded_call@X@@QEAAX$$QEAV<lambda_99476a1ad63dd22509b5d3e65b0ffc95>@@AEAV<lambda_ad1ced32f4ac17aa236e5ef05d6b3b7c>@@$$QEAV<lambda_f7424dd8d45958661754dc4f2697e9c3>@@@Z@4HA 00000001800379b2 f   libucrt:mbctype.obj
 0001:000369cc       _fcloseall$fin$0           00000001800379cc f   libucrt:closeall.obj
 0001:000369e5       __acrt_update_thread_locale_data$fin$0 00000001800379e5 f   libucrt:locale_refcounting.obj
 0001:000369e5       __acrt_uninitialize_locale$fin$0 00000001800379e5 f   libucrt:wsetlocale.obj
 0001:000369fe       raise$fin$0                00000001800379fe f   libucrt:signal.obj
 0001:00036a22       ?fin$0@?0???$common_lseek@_J@@YA_JH_JH@Z@4HA 0000000180037a22 f   libucrt:lseek.obj
 0001:00036a22       _write$fin$0               0000000180037a22 f   libucrt:write.obj
 0001:00036a39       __acrt_update_thread_multibyte_data$fin$0 0000000180037a39 f   libucrt:mbctype.obj
 0001:00036a52       __acrt_lowio_ensure_fh_exists$fin$0 0000000180037a52 f   libucrt:osfinfo.obj
 0001:00036a52       __acrt_initialize_lowio$fin$0 0000000180037a52 f   libucrt:ioinit.obj
 0001:00036a6b       ?fin$0@?0???$?RV<lambda_bfedae4ebbf01fab1bb6dcc6a9e276e0>@@AEAV<lambda_2fe9b910cf3cbf4a0ab98a02ba45b3ec>@@V<lambda_237c231691f317818eb88cc1d5d642d6>@@@?$__crt_seh_guarded_call@H@@QEAAH$$QEAV<lambda_bfedae4ebbf01fab1bb6dcc6a9e276e0>@@AEAV<lambda_2fe9b910cf3cbf4a0ab98a02ba45b3ec>@@$$QEAV<lambda_237c231691f317818eb88cc1d5d642d6>@@@Z@4HA 0000000180037a6b f   libucrt:close.obj
 0001:00036a6b       ?fin$0@?0???$?RV<lambda_b521505b218e5242e90febf6bfebc422>@@AEAV<lambda_6978c1fb23f02e42e1d9e99668cc68aa>@@V<lambda_314360699dd331753a4119843814e9a7>@@@?$__crt_seh_guarded_call@H@@QEAAH$$QEAV<lambda_b521505b218e5242e90febf6bfebc422>@@AEAV<lambda_6978c1fb23f02e42e1d9e99668cc68aa>@@$$QEAV<lambda_314360699dd331753a4119843814e9a7>@@@Z@4HA 0000000180037a6b f   libucrt:commit.obj
 0001:00036a85       _ctrlfp$filt$0             0000000180037a85 f   libucrt:fpctrl.obj
 0001:00036a85       common_control87$filt$0    0000000180037a85 f   libucrt:ieee.obj
 0001:00036ac0       _IsNonwritableInCurrentImage$filt$0 0000000180037ac0 f   LIBCMT:pesect.obj
 0001:00036ac0       __RTtypeid$filt$0          0000000180037ac0 f   libvcruntime:rtti.obj
 0001:00036ae0       ??__Fthe_dummy_context@internal@tbb@@YAXXZ 0000000180037ae0 f   scheduler.obj
 0001:00036aec       ??__F?m_badAllocExceptionPtr@__ExceptionPtr@@0V?$shared_ptr@V__ExceptionPtr@@@std@@A@@YAXXZ 0000000180037aec f   libcpmt:excptptr.obj
 0002:00000320       ??m_badAllocExceptionPtr$initializer$@__ExceptionPtr@@0P6AXXZEA@@3P6AXXZEA 0000000180038320     libcpmt:excptptr.obj
 0002:00000328       ?static_init_dl_data$initializer$@internal@tbb@@3P6AXXZEA 0000000180038328     dynamic_link.obj
 0002:00000330       ?the_dummy_context$initializer$@internal@tbb@@3P6AXXZEA 0000000180038330     scheduler.obj
 0002:000003a0       $cppxdata$?_CurrentException@__ExceptionPtr@@SA?AV?$shared_ptr@V__ExceptionPtr@@@std@@XZ 00000001800383a0     libcpmt:excptptr.obj
 0002:000003c8       $cppxdata$?_CopyException@__ExceptionPtr@@SA?AV?$shared_ptr@V__ExceptionPtr@@@std@@PEBXPEBU_s_ThrowInfo@@_N@Z 00000001800383c8     libcpmt:excptptr.obj
 0002:000003f0       $cppxdata$??1__ExceptionPtr@@QEAA@XZ 00000001800383f0     libcpmt:excptptr.obj
 0002:00000418       $cppxdata$?_InitBadAllocException@__ExceptionPtr@@CA?AV?$shared_ptr@V__ExceptionPtr@@@std@@XZ 0000000180038418     libcpmt:excptptr.obj
 0002:00000440       $cppxdata$?_CallCopyCtor@__ExceptionPtr@@AEBAXPEAX0_KQEBU_s_CatchableType@@@Z 0000000180038440     libcpmt:excptptr.obj
 0002:00000468       $cppxdata$??$make_shared@V__ExceptionPtr@@AEAPEAUEHExceptionRecord@@_N@std@@YA?AV?$shared_ptr@V__ExceptionPtr@@@0@AEAPEAUEHExceptionRecord@@$$QEA_N@Z 0000000180038468     libcpmt:excptptr.obj
 0002:00000490       $cppxdata$??$allocate_shared@V__ExceptionPtr@@U?$_StaticAllocator@H@@AEAPEAUEHExceptionRecord@@_N@std@@YA?AV?$shared_ptr@V__ExceptionPtr@@@0@AEBU?$_StaticAllocator@H@@AEAPEAUEHExceptionRecord@@$$QEA_N@Z 0000000180038490     libcpmt:excptptr.obj
 0002:000004b8       $cppxdata$??$?0AEAPEAUEHExceptionRecord@@_N@?$_Ref_count_obj_alloc@V__ExceptionPtr@@U?$_StaticAllocator@H@@@std@@QEAA@AEBU?$_StaticAllocator@H@@AEAPEAUEHExceptionRecord@@$$QEA_N@Z 00000001800384b8     libcpmt:excptptr.obj
 0002:00000638       GS_ExceptionPointers       0000000180038638     LIBCMT:gs_report.obj
 0002:00000730       ?ExceptionTemplate@?1??_CxxThrowException@@9@4UEHExceptionRecord@@B 0000000180038730     libvcruntime:throw.obj
 0002:00000770       ?ExceptionTemplate@?1??_UnwindNestedFrames@@9@4U_EXCEPTION_RECORD@@B 0000000180038770     libvcruntime:trnsctrl.obj
 0002:00000810       ?tokenTable@@3QBQEBDB      0000000180038810     libvcruntime:undname.obj
 0002:00000880       ?nameTable@@3QBQEBDB       0000000180038880     libvcruntime:undname.obj
 0002:00000b08       ?rttiTable@@3QBQEBDB       0000000180038b08     libvcruntime:undname.obj
 0002:00001678       ?module_names@?A0x679b24ab@@3QBQEB_WB 0000000180039678     libvcruntime:winapi_downlevel.obj
 0002:00001748       ?candidate_modules@?1??try_get_FlsAlloc@@YAP6AKP6AXPEAX@Z@ZXZ@4QBW4module_id@?A0x679b24ab@@B 0000000180039748     libvcruntime:winapi_downlevel.obj
 0002:00001760       ?candidate_modules@?1??try_get_FlsFree@@YAP6AHK@ZXZ@4QBW4module_id@?A0x679b24ab@@B 0000000180039760     libvcruntime:winapi_downlevel.obj
 0002:00001770       ?candidate_modules@?1??try_get_FlsGetValue@@YAP6APEAXK@ZXZ@4QBW4module_id@?A0x679b24ab@@B 0000000180039770     libvcruntime:winapi_downlevel.obj
 0002:00001788       ?candidate_modules@?1??try_get_FlsSetValue@@YAP6AHKPEAX@ZXZ@4QBW4module_id@?A0x679b24ab@@B 0000000180039788     libvcruntime:winapi_downlevel.obj
 0002:000017a0       ?candidate_modules@?1??try_get_InitializeCriticalSectionEx@@YAP6AHPEAU_RTL_CRITICAL_SECTION@@KK@ZXZ@4QBW4module_id@?A0x679b24ab@@B 00000001800397a0     libvcruntime:winapi_downlevel.obj
 0002:000017d0       errtable                   00000001800397d0     libucrt:errno.obj
 0002:00001b60       __acrt_initializers        0000000180039b60     libucrt:initialization.obj
 0002:00001c50       module_names               0000000180039c50     libucrt:winapi_thunks.obj
 0002:00002180       ?candidate_modules@?1??try_get_CompareStringEx@@YAP6AHPEB_WK0H0HPEAU_nlsversioninfo@@PEAX_J@ZXZ@4QBW4module_id@?A0x63058377@@B 000000018003a180     libucrt:winapi_thunks.obj
 0002:00002198       ?candidate_modules@?1??try_get_FlsAlloc@@YAP6AKP6AXPEAX@Z@ZXZ@4QBW4module_id@?A0x63058377@@B 000000018003a198     libucrt:winapi_thunks.obj
 0002:000021a0       ?candidate_modules@?1??try_get_FlsFree@@YAP6AHK@ZXZ@4QBW4module_id@?A0x63058377@@B 000000018003a1a0     libucrt:winapi_thunks.obj
 0002:000021a8       ?candidate_modules@?1??try_get_FlsGetValue@@YAP6APEAXK@ZXZ@4QBW4module_id@?A0x63058377@@B 000000018003a1a8     libucrt:winapi_thunks.obj
 0002:000021b0       ?candidate_modules@?1??try_get_FlsSetValue@@YAP6AHKPEAX@ZXZ@4QBW4module_id@?A0x63058377@@B 000000018003a1b0     libucrt:winapi_thunks.obj
 0002:000021b8       ?candidate_modules@?1??try_get_GetCurrentPackageId@@YAP6AJPEAIPEAE@ZXZ@4QBW4module_id@?A0x63058377@@B 000000018003a1b8     libucrt:winapi_thunks.obj
 0002:000021d8       ?candidate_modules@?1??try_get_InitializeCriticalSectionEx@@YAP6AHPEAU_RTL_CRITICAL_SECTION@@KK@ZXZ@4QBW4module_id@?A0x63058377@@B 000000018003a1d8     libucrt:winapi_thunks.obj
 0002:000021e0       ?candidate_modules@?1??try_get_LCMapStringEx@@YAP6AHPEB_WK0HPEA_WHPEAU_nlsversioninfo@@PEAX_J@ZXZ@4QBW4module_id@?A0x63058377@@B 000000018003a1e0     libucrt:winapi_thunks.obj
 0002:000021f8       ?candidate_modules@?1??try_get_LocaleNameToLCID@@YAP6AKPEB_WK@ZXZ@4QBW4module_id@?A0x63058377@@B 000000018003a1f8     libucrt:winapi_thunks.obj
 0002:00002214       ?candidate_modules@?1??try_get_RoInitialize@@YAP6AJW4RO_INIT_TYPE@@@ZXZ@4QBW4module_id@?A0x63058377@@B 000000018003a214     libucrt:winapi_thunks.obj
 0002:00002228       ?candidate_modules@?1??try_get_RoUninitialize@@YAP6AXXZXZ@4QBW4module_id@?A0x63058377@@B 000000018003a228     libucrt:winapi_thunks.obj
 0002:00002e08       _mb_locale_names           000000018003ae08     libucrt:mbctype.obj
 0002:00003470       LcidToLocaleNameTable      000000018003b470     libucrt:lcidtoname_downlevel.obj
 0002:00004ed0       LocaleNameToIndexTable     000000018003ced0     libucrt:lcidtoname_downlevel.obj
 0002:00007160       __real_ninf                000000018003f160     libucrt:log10.obj
 0002:00007170       __real_inf                 000000018003f170     libucrt:log10.obj
 0002:00007180       __real_neg_qnan            000000018003f180     libucrt:log10.obj
 0002:00007190       __real_qnanbit             000000018003f190     libucrt:log10.obj
 0002:000071a0       __int_1023                 000000018003f1a0     libucrt:log10.obj
 0002:000071b0       __mask_001                 000000018003f1b0     libucrt:log10.obj
 0002:000071c0       __mask_mant                000000018003f1c0     libucrt:log10.obj
 0002:000071d0       __mask_mant_top8           000000018003f1d0     libucrt:log10.obj
 0002:000071e0       __mask_mant9               000000018003f1e0     libucrt:log10.obj
 0002:000071f0       __real_log10_e             000000018003f1f0     libucrt:log10.obj
 0002:00007200       __real_log10_e_lead        000000018003f200     libucrt:log10.obj
 0002:00007210       __real_log10_e_tail        000000018003f210     libucrt:log10.obj
 0002:00007220       __real_log10_2_lead        000000018003f220     libucrt:log10.obj
 0002:00007230       __real_log10_2_tail        000000018003f230     libucrt:log10.obj
 0002:00007240       __real_two                 000000018003f240     libucrt:log10.obj
 0002:00007250       __real_one                 000000018003f250     libucrt:log10.obj
 0002:00007260       __real_half                000000018003f260     libucrt:log10.obj
 0002:00007270       __mask_100                 000000018003f270     libucrt:log10.obj
 0002:00007280       __real_1_over_512          000000018003f280     libucrt:log10.obj
 0002:00007290       __real_1_over_2            000000018003f290     libucrt:log10.obj
 0002:000072a0       __real_1_over_3            000000018003f2a0     libucrt:log10.obj
 0002:000072b0       __real_1_over_4            000000018003f2b0     libucrt:log10.obj
 0002:000072c0       __real_1_over_5            000000018003f2c0     libucrt:log10.obj
 0002:000072d0       __real_1_over_6            000000018003f2d0     libucrt:log10.obj
 0002:000072e0       __real_neg_1023            000000018003f2e0     libucrt:log10.obj
 0002:000072f0       __mask_2045                000000018003f2f0     libucrt:log10.obj
 0002:00007300       __real_threshold           000000018003f300     libucrt:log10.obj
 0002:00007310       __real_near_one_lt         000000018003f310     libucrt:log10.obj
 0002:00007320       __real_near_one_gt         000000018003f320     libucrt:log10.obj
 0002:00007330       __real_min_norm            000000018003f330     libucrt:log10.obj
 0002:00007340       __real_notsign             000000018003f340     libucrt:log10.obj
 0002:00007350       __real_ca1                 000000018003f350     libucrt:log10.obj
 0002:00007360       __real_ca2                 000000018003f360     libucrt:log10.obj
 0002:00007370       __real_ca3                 000000018003f370     libucrt:log10.obj
 0002:00007380       __real_ca4                 000000018003f380     libucrt:log10.obj
 0002:00007390       __mask_lower               000000018003f390     libucrt:log10.obj
 0002:000073a0       __flag_x_zero              000000018003f3a0     libucrt:log10.obj
 0002:000073a4       __flag_x_neg               000000018003f3a4     libucrt:log10.obj
 0002:000073a8       __flag_x_nan               000000018003f3a8     libucrt:log10.obj
 0002:00008c00       __real@433fffffffffffff    0000000180040c00     libucrt:fpsr.obj
 0002:00008c08       __real@c33fffffffffffff    0000000180040c08     libucrt:fpsr.obj
 0002:00009d70       ?ittnotify_lib_name@@3PEBDEB 0000000180041d70     itt_notify.obj
 0002:00009d78       ?__itt_fini_ittlib_ptr@@3P6AXXZEA 0000000180041d78     itt_notify.obj
 0002:00009d80       ?api_version@@3QBDB        0000000180041d80     itt_notify.obj
 0002:00009e18       ?NFS_LineSize@internal@tbb@@3_KA 0000000180041e18     cache_aligned_allocator.obj
 0002:00009e20       ?dll_path@@3QBDB           0000000180041e20     itt_notify.obj
 0002:0000a020       ?MallocLinkTable@internal@tbb@@3QBUdynamic_link_descriptor@12@B 0000000180042020     cache_aligned_allocator.obj
 0002:0000a060       ?CondVarLinkTable@internal@tbb@@3QBUdynamic_link_descriptor@12@B 0000000180042060     condition_variable.obj
 0002:0000a0a0       ?SyncObj_ThreadMonitor@internal@rml@@3PEB_WEB 00000001800420a0     private_server.obj
 0002:0000a0a8       ?SyncType_RML@internal@rml@@3PEB_WEB 00000001800420a8     private_server.obj
 0002:0000a0b0       ?VersionString@internal@tbb@@3QBDB 00000001800420b0     tbb_misc.obj
 0002:0000a150       ?ProcessorGroupsApiLinkTable@internal@tbb@@3QBUdynamic_link_descriptor@12@B 0000000180042150     tbb_misc_ex.obj
 0002:0000a190       ?priority_from_normalized_rep@internal@tbb@@3QBW4priority_t@2@B 0000000180042190     task_group_context.obj
 0002:0000a1a0       ?CilkLinkTable@internal@tbb@@3QBUdynamic_link_descriptor@12@B 00000001800421a0     governor.obj
 0002:0000a1b0       ?controls@internal@tbb@@3PAPEAVcontrol_storage@12@A 00000001800421b0     tbb_main.obj
 0002:0000a1c0       ?_pad@internal@tbb@@3QBDB  00000001800421c0     tbb_main.obj
 0002:0000b420       $cppxdata$??1concurrent_queue_iterator_base_v3@internal@tbb@@IEAA@XZ 0000000180043420     concurrent_queue.obj
 0002:0000b448       $cppxdata$?internal_pop@concurrent_queue_base_v3@internal@tbb@@IEAAXPEAX@Z 0000000180043448     concurrent_queue.obj
 0002:0000b470       $cppxdata$?internal_insert_item@concurrent_queue_base_v3@internal@tbb@@IEAAXPEBXW4copy_specifics@123@@Z 0000000180043470     concurrent_queue.obj
 0002:0000b498       $cppxdata$??1concurrent_queue_base_v3@internal@tbb@@MEAA@XZ 0000000180043498     concurrent_queue.obj
 0002:0000b4c0       $cppxdata$??_Gconcurrent_queue_base_v3@internal@tbb@@MEAAPEAXI@Z 00000001800434c0     concurrent_queue.obj
 0002:0000b4e8       $cppxdata$?assign@micro_queue@internal@tbb@@QEAAAEAU123@AEBU123@AEAVconcurrent_queue_base_v3@23@W4copy_specifics@423@@Z 00000001800434e8     concurrent_queue.obj
 0002:0000b510       $cppxdata$?pop@micro_queue@internal@tbb@@QEAA_NPEAX_KAEAVconcurrent_queue_base_v3@23@@Z 0000000180043510     concurrent_queue.obj
 0002:0000b538       $cppxdata$?push@micro_queue@internal@tbb@@QEAAXPEBX_KAEAVconcurrent_queue_base_v3@23@W4copy_specifics@423@@Z 0000000180043538     concurrent_queue.obj
 0002:0000b560       $cppxdata$??1micro_queue_pop_finalizer@internal@tbb@@QEAA@XZ 0000000180043560     concurrent_queue.obj
 0002:0000b588       $cppxdata$?internal_compact@concurrent_vector_base_v3@internal@tbb@@IEAAPEAX_KPEAXP6AX10@ZP6AX1PEBX0@Z@Z 0000000180043588     concurrent_vector.obj
 0002:0000b5b0       $cppxdata$?internal_clear@concurrent_vector_base_v3@internal@tbb@@IEAA_KP6AXPEAX_K@Z@Z 00000001800435b0     concurrent_vector.obj
 0002:0000b5d8       $cppxdata$?internal_resize@concurrent_vector_base_v3@internal@tbb@@IEAAX_K00PEBXP6AXPEAX0@ZP6AX210@Z@Z 00000001800435d8     concurrent_vector.obj
 0002:0000b600       $cppxdata$?internal_grow@concurrent_vector_base_v3@internal@tbb@@IEAAX_K00P6AXPEAXPEBX0@Z2@Z 0000000180043600     concurrent_vector.obj
 0002:0000b628       $cppxdata$??1concurrent_vector_base_v3@internal@tbb@@IEAA@XZ 0000000180043628     concurrent_vector.obj
 0002:0000b650       $cppxdata$??1segment_scope_guard@?1??enable_segment@helper@concurrent_vector_base_v3@internal@tbb@@SA_KAEAV345@_K1_N@Z@QEAA@XZ 0000000180043650     concurrent_vector.obj
 0002:0000b678       $cppxdata$?enable_segment@helper@concurrent_vector_base_v3@internal@tbb@@SA_KAEAV234@_K1_N@Z 0000000180043678     concurrent_vector.obj
 0002:0000b6a0       $cppxdata$??1helper@concurrent_vector_base_v3@internal@tbb@@QEAA@XZ 00000001800436a0     concurrent_vector.obj
 0002:0000b6c8       $cppxdata$??$note_done@Vstage_task@internal@tbb@@@input_buffer@internal@tbb@@QEAAXKAEAVstage_task@12@@Z 00000001800436c8     pipeline.obj
 0002:0000b6f0       $cppxdata$?run@pipeline@tbb@@QEAAX_K@Z 00000001800436f0     pipeline.obj
 0002:0000b718       $cppxdata$?run@pipeline@tbb@@QEAAX_KAEAVtask_group_context@2@@Z 0000000180043718     pipeline.obj
 0002:0000b740       $cppxdata$?add_filter@pipeline@tbb@@QEAAXAEAVfilter@2@@Z 0000000180043740     pipeline.obj
 0002:0000b768       $cppxdata$??_Ginput_buffer@internal@tbb@@QEAAPEAXI@Z 0000000180043768     pipeline.obj
 0002:0000b790       $cppxdata$?clear@pipeline@tbb@@QEAAXXZ 0000000180043790     pipeline.obj
 0002:0000b7b8       $cppxdata$??1pipeline_cleaner@internal@tbb@@QEAA@XZ 00000001800437b8     pipeline.obj
 0002:0000b7e0       $cppxdata$??_Gstage_task@internal@tbb@@UEAAPEAXI@Z 00000001800437e0     pipeline.obj
 0002:0000b808       $cppxdata$?return_item@input_buffer@internal@tbb@@QEAA_NAEAUtask_info@23@_N@Z 0000000180043808     pipeline.obj
 0002:0000b830       $cppxdata$?put_token@input_buffer@internal@tbb@@QEAA_NAEAUtask_info@23@_N@Z 0000000180043830     pipeline.obj
 0002:0000b858       $cppxdata$?unlock@reader_writer_lock@interface5@tbb@@QEAAXXZ 0000000180043858     reader_writer_lock.obj
 0002:0000b880       $cppxdata$?lock_read@reader_writer_lock@interface5@tbb@@QEAAXXZ 0000000180043880     reader_writer_lock.obj
 0002:0000b8a8       $cppxdata$??_Gscoped_lock@reader_writer_lock@interface5@tbb@@QEAAPEAXI@Z 00000001800438a8     reader_writer_lock.obj
 0002:0000b8d0       $cppxdata$?start_write@reader_writer_lock@interface5@tbb@@AEAA_NPEAVscoped_lock@123@@Z 00000001800438d0     reader_writer_lock.obj
 0002:0000b8f8       $cppxdata$??1scoped_lock_read@reader_writer_lock@interface5@tbb@@QEAA@XZ 00000001800438f8     reader_writer_lock.obj
 0002:0000b920       $cppxdata$?hardware_concurrency@tbb_thread_v3@internal@tbb@@SAIXZ 0000000180043920     tbb_thread.obj
 0002:0000b948       $cppxdata$??1private_server@rml@internal@tbb@@EEAA@XZ 0000000180043948     private_server.obj
 0002:0000b970       $cppxdata$??0private_server@rml@internal@tbb@@QEAA@AEAVtbb_client@123@@Z 0000000180043970     private_server.obj
 0002:0000b998       $cppxdata$??$make_exception_ptr@Vcaptured_exception@tbb@@@std@@YA?AVexception_ptr@0@Vcaptured_exception@tbb@@@Z 0000000180043998     task_group_context.obj
 0002:0000b9c0       $cppxdata$?register_pending_exception@task_group_context@tbb@@QEAAXXZ 00000001800439c0     task_group_context.obj
 0002:0000b9e8       $cppxdata$?allocate@tbb_exception_ptr@internal@tbb@@SAPEAV123@AEBVtbb_exception@3@@Z 00000001800439e8     task_group_context.obj
 0002:0000b9e8       $cppxdata$?allocate@tbb_exception_ptr@internal@tbb@@SAPEAV123@XZ 00000001800439e8     task_group_context.obj
 0002:0000ba10       $cppxdata$??_Gtbb_exception@tbb@@UEAAPEAXI@Z 0000000180043a10     task_group_context.obj
 0002:0000ba38       $cppxdata$??_Gcaptured_exception@tbb@@UEAAPEAXI@Z 0000000180043a38     task_group_context.obj
 0002:0000ba60       $cppxdata$?_Copy_exception@exception_ptr@std@@SA?AV12@PEAXPEBX@Z 0000000180043a60     task_group_context.obj
 0002:0000ba88       $cppxdata$??1task_group_context@tbb@@QEAA@XZ 0000000180043a88     task_group_context.obj
 0002:0000bab0       $cppxdata$?create_rml_server@governor@internal@tbb@@CAPEAVtbb_server@rml@23@AEAVtbb_client@523@@Z 0000000180043ab0     governor.obj
 0002:0000bad8       $cppxdata$?global_market@market@internal@tbb@@CAAEAV123@_NI_K@Z 0000000180043ad8     market.obj
 0002:0000bb00       $cppxdata$??1?$padded@U?$queue_and_mutex@PEAVtask@tbb@@Vspin_mutex@2@@internal@tbb@@$0IA@@internal@tbb@@QEAA@XZ 0000000180043b00     arena.obj
 0002:0000bb28       $cppxdata$?initialize@?$task_stream@$02@internal@tbb@@QEAAXI@Z 0000000180043b28     arena.obj
 0002:0000bb50       $cppxdata$??1?$task_stream@$02@internal@tbb@@QEAA@XZ 0000000180043b50     arena.obj
 0002:0000bb78       $cppxdata$?push@?$task_stream@$02@internal@tbb@@QEAAXPEAVtask@3@HAEAVFastRandom@23@@Z 0000000180043b78     arena.obj
 0002:0000bba0       $cppxdata$?internal_wait@task_arena_base@internal@interface7@tbb@@IEBAXXZ 0000000180043ba0     arena.obj
 0002:0000bbc8       $cppxdata$?internal_execute@task_arena_base@internal@interface7@tbb@@IEBAXAEAVdelegate_base@234@@Z 0000000180043bc8     arena.obj
 0002:0000bbf0       $cppxdata$?execute@delegated_task@internal@interface7@tbb@@EEAAPEAVtask@4@XZ 0000000180043bf0     arena.obj
 0002:0000bc18       $cppxdata$??1auto_empty_task@internal@tbb@@QEAA@XZ 0000000180043c18     arena.obj
 0002:0000bc40       $cppxdata$??1nested_arena_context@internal@tbb@@QEAA@XZ 0000000180043c40     arena.obj
 0002:0000bc68       $cppxdata$??0arena@internal@tbb@@QEAA@AEAVmarket@12@II@Z 0000000180043c68     arena.obj
 0002:0000bc90       $cppxdata$?throw_self@tbb_exception_ptr@internal@tbb@@QEAAXXZ 0000000180043c90     arena.obj
 0002:0000bcb8       $cppxdata$?allocate_arena@arena@internal@tbb@@SAAEAV123@AEAVmarket@23@II@Z 0000000180043cb8     arena.obj
 0002:0000bce0       $cppxdata$?local_wait_for_all@?$custom_scheduler@UIntelSchedulerTraits@internal@tbb@@@internal@tbb@@EEAAXAEAVtask@3@PEAV43@@Z 0000000180043ce0     scheduler.obj
 0002:0000bd08       $cppxdata$?local_wait_for_all@?$custom_scheduler@UDefaultSchedulerTraits@internal@tbb@@@internal@tbb@@EEAAXAEAVtask@3@PEAV43@@Z 0000000180043d08     scheduler.obj
 0002:0000bd30       $cppxdata$?allocate_scheduler@?$custom_scheduler@UDefaultSchedulerTraits@internal@tbb@@@internal@tbb@@SAPEAVgeneric_scheduler@23@AEAVmarket@23@@Z 0000000180043d30     scheduler.obj
 0002:0000bd58       $cppxdata$?allocate_scheduler@?$custom_scheduler@UIntelSchedulerTraits@internal@tbb@@@internal@tbb@@SAPEAVgeneric_scheduler@23@AEAVmarket@23@@Z 0000000180043d58     scheduler.obj
 0002:0000bd80       $cppxdata$??1?$fast_reverse_vector@PEAVtask@tbb@@$0BA@@internal@tbb@@QEAA@XZ 0000000180043d80     scheduler.obj
 0002:0000bda8       $cppxdata$?reload_tasks@generic_scheduler@internal@tbb@@QEAAPEAVtask@3@AEAPEAV43@AEAPEAPEAV43@_J@Z 0000000180043da8     scheduler.obj
 0002:0000bdd0       $cppxdata$?winnow_task_pool@generic_scheduler@internal@tbb@@QEAAPEAVtask@3@XZ 0000000180043dd0     scheduler.obj
 0002:0000bdf8       $cppxdata$?local_spawn_root_and_wait@generic_scheduler@internal@tbb@@QEAAXAEAVtask@3@AEAPEAV43@@Z 0000000180043df8     scheduler.obj
 0002:0000be20       $cppxdata$??0generic_scheduler@internal@tbb@@IEAA@AEAVmarket@12@@Z 0000000180043e20     scheduler.obj
 0002:0000be48       $cppxdata$?cleanup_master@generic_scheduler@internal@tbb@@QEAAX_N@Z 0000000180043e48     scheduler.obj
 0002:0000be70       $cppxdata$?create_master@generic_scheduler@internal@tbb@@SAPEAV123@PEAVarena@23@@Z 0000000180043e70     scheduler.obj
 0002:0000be98       $cppxdata$?local_spawn@generic_scheduler@internal@tbb@@QEAAXAEAVtask@3@AEAPEAV43@@Z 0000000180043e98     scheduler.obj
 0002:0000bec0       $cppxdata$?do_notify_exit_observers@observer_list@internal@tbb@@AEAAXPEAVobserver_proxy@23@_N@Z 0000000180043ec0     observer_proxy.obj
 0002:0000bee8       $cppxdata$?do_notify_entry_observers@observer_list@internal@tbb@@AEAAXAEAPEAVobserver_proxy@23@_N@Z 0000000180043ee8     observer_proxy.obj
 0002:0000bf10       $cppxdata$?internal_destroy@global_control@interface9@tbb@@AEAAXXZ 0000000180043f10     tbb_main.obj
 0002:0000bf38       $cppxdata$?internal_create@global_control@interface9@tbb@@AEAAXXZ 0000000180043f38     tbb_main.obj
 0002:0000bf60       $cppxdata$??1concurrent_queue_base@internal@tbb@@MEAA@XZ 0000000180043f60     concurrent_queue_v2.obj
 0002:0000bf88       $cppxdata$?pop@micro_queue@internal@tbb@@QEAA_NPEAX_KAEAVconcurrent_queue_base@23@@Z 0000000180043f88     concurrent_queue_v2.obj
 0002:0000bfb0       $cppxdata$?push@micro_queue@internal@tbb@@QEAAXPEBX_KAEAVconcurrent_queue_base@23@@Z 0000000180043fb0     concurrent_queue_v2.obj
 0002:0000e5a0       $unwind$?prepare_wait@concurrent_monitor@internal@tbb@@QEAAXAEAVthread_context@123@_K@Z 00000001800465a0     concurrent_monitor.obj
 0002:0000e5a0       $unwind$?expand_if_necessary@?$argument_list@D@?A0xca0879c4@@AEAAHXZ 00000001800465a0     libucrt:argv_wildcards.obj
 0002:0000e5a0       $unwind$?__itt_sync_set_nameW_init_3_0@@YAXPEAXPEB_W1H@Z 00000001800465a0     itt_notify.obj
 0002:0000e5a0       $unwind$??_G?$shared_ptr@V__ExceptionPtr@@@std@@QEAAPEAXI@Z 00000001800465a0     libcpmt:excptptr.obj
 0002:0000e5a0       $unwind$?__itt_heap_allocate_end_init_3_0@@YAXPEAXPEAPEAX_KH@Z 00000001800465a0     itt_notify.obj
 0002:0000e5a0       $unwind$?enqueue_task@arena@internal@tbb@@QEAAXAEAVtask@3@_JAEAVFastRandom@23@@Z 00000001800465a0     arena.obj
 0002:0000e5a0       $unwind$__acrt_InitializeCriticalSectionEx 00000001800465a0     libucrt:winapi_thunks.obj
 0002:0000e5a0       $unwind$??$ensure_buffer_is_big_enough@D@formatting_buffer@__crt_stdio_output@@QEAA_N_K@Z 00000001800465a0     libucrt:output.obj
 0002:0000e5a0       $unwind$?dllmain_raw@@YAHQEAUHINSTANCE__@@KQEAX@Z 00000001800465a0     LIBCMT:dll_dllmain.obj
 0002:0000e5a0       $unwind$__vcrt_InitializeCriticalSectionEx 00000001800465a0     libvcruntime:winapi_downlevel.obj
 0002:0000e5a0       $unwind$?getString@pDNameNode@@UEBAPEADPEAD0@Z 00000001800465a0     libvcruntime:undname.obj
 0002:0000e5a0       $unwind$?length@pairNode@@UEBAHXZ 00000001800465a0     libvcruntime:undname.obj
 0002:0000e5a0       $unwind$_seh_filter_exe    00000001800465a0     libucrt:exception_filter.obj
 0002:0000e5a0       $unwind$__acrt_execute_initializers 00000001800465a0     libucrt:shared_initialization.obj
 0002:0000e5a0       $unwind$?internal_assign@concurrent_queue_base_v3@internal@tbb@@IEAAXAEBV123@W4copy_specifics@123@@Z 00000001800465a0     concurrent_queue.obj
 0002:0000e5a0       $unwind$?__itt_sync_createA_init_3_0@@YAXPEAXPEBD1H@Z 00000001800465a0     itt_notify.obj
 0002:0000e5a0       $unwind$?__itt_sync_createW_init_3_0@@YAXPEAXPEB_W1H@Z 00000001800465a0     itt_notify.obj
 0002:0000e5a0       $unwind$?internal_acquire@scoped_lock@spin_mutex@tbb@@AEAAXAEAV23@@Z 00000001800465a0     spin_mutex.obj
 0002:0000e5a0       $unwind$?__itt_sync_set_nameA_init_3_0@@YAXPEAXPEBD1H@Z 00000001800465a0     itt_notify.obj
 0002:0000e5a0       $unwind$_recalloc_base     00000001800465a0     libucrt:recalloc.obj
 0002:0000e5a0       $unwind$__acrt_lowio_create_handle_array 00000001800465a0     libucrt:osfinfo.obj
 0002:0000e5a0       $unwind$__acrt_free_locale 00000001800465a0     libucrt:locale_refcounting.obj
 0002:0000e5a0       $unwind$?__itt_heap_reallocate_begin_init_3_0@@YAXPEAX0_KH@Z 00000001800465a0     itt_notify.obj
 0002:0000e5a0       $unwind$?spawn_and_wait_for_all@task@tbb@@QEAAXAEAVtask_list@2@@Z 00000001800465a0     task.obj
 0002:0000e5a0       $unwind$?process@?$output_processor@DV?$string_output_adapter@D@__crt_stdio_output@@V?$format_validation_base@DV?$string_output_adapter@D@__crt_stdio_output@@@2@@__crt_stdio_output@@QEAAHXZ 00000001800465a0     libucrt:output.obj
 0002:0000e5a0       $unwind$__scrt_dllmain_exception_filter 00000001800465a0     LIBCMT:utility.obj
 0002:0000e5a0       $unwind$?_ExecutionInCatch@@YAHPEAU_xDISPATCHER_CONTEXT@@PEBU_s_FuncInfo@@@Z 00000001800465a0     libvcruntime:trnsctrl.obj
 0002:0000e5a0       $unwind$??0scoped_lock@spin_mutex@tbb@@QEAA@AEAV12@@Z 00000001800465a0     concurrent_queue.obj
 0002:0000e5a0       $unwind$?__itt_suppress_mark_range_init_3_0@@YAXW4__itt_suppress_mode@@IPEAX_K@Z 00000001800465a0     itt_notify.obj
 0002:0000e5a0       $unwind$?__itt_suppress_clear_range_init_3_0@@YAXW4__itt_suppress_mode@@IPEAX_K@Z 00000001800465a0     itt_notify.obj
 0002:0000e5a0       $unwind$?__itt_frame_submit_v3_init_3_0@@YAXPEBU___itt_domain@@PEAU___itt_id@@_K2@Z 00000001800465a0     itt_notify.obj
 0002:0000e5a0       $unwind$?try_destroy_arena@market@internal@tbb@@QEAAXPEAVarena@23@_K@Z 00000001800465a0     market.obj
 0002:0000e5a0       $unwind$?release@market@internal@tbb@@QEAAX_N@Z 00000001800465a0     market.obj
 0002:0000e5a0       $unwind$?setSBCS@@YAXPEAU__crt_multibyte_data@@@Z 00000001800465a0     libucrt:mbctype.obj
 0002:0000e5b4       $unwind$?internal_release_writer@spin_rw_mutex@tbb@@CAXPEAV12@@Z 00000001800465b4     spin_rw_mutex_v2.obj
 0002:0000e5b4       $unwind$?__itt_stack_callee_enter_init_3_0@@YAXPEAU___itt_caller@@@Z 00000001800465b4     itt_notify.obj
 0002:0000e5b4       $unwind$_IsExceptionObjectToBeDestroyed 00000001800465b4     libvcruntime:trnsctrl.obj
 0002:0000e5b4       $unwind$_CreateFrameInfo   00000001800465b4     libvcruntime:trnsctrl.obj
 0002:0000e5b4       $unwind$?__itt_fsync_releasing_init_3_0@@YAXPEAX@Z 00000001800465b4     itt_notify.obj
 0002:0000e5b4       $unwind$??0market@internal@tbb@@AEAA@II_K@Z 00000001800465b4     market.obj
 0002:0000e5b4       $unwind$?__itt_fsync_acquired_init_3_0@@YAXPEAX@Z 00000001800465b4     itt_notify.obj
 0002:0000e5b4       $unwind$?internal_downgrade@spin_rw_mutex@tbb@@CAXPEAV12@@Z 00000001800465b4     spin_rw_mutex_v2.obj
 0002:0000e5b4       $unwind$?__itt_fsync_cancel_init_3_0@@YAXPEAX@Z 00000001800465b4     itt_notify.obj
 0002:0000e5b4       $unwind$?__itt_state_set_init_3_0@@YAHH@Z 00000001800465b4     itt_notify.obj
 0002:0000e5b4       $unwind$?__itt_fsync_prepare_init_3_0@@YAXPEAX@Z 00000001800465b4     itt_notify.obj
 0002:0000e5b4       $unwind$?internal_release_reader@spin_rw_mutex@tbb@@CAXPEAV12@@Z 00000001800465b4     spin_rw_mutex_v2.obj
 0002:0000e5b4       $unwind$__acrt_update_locale_info 00000001800465b4     libucrt:locale_update.obj
 0002:0000e5b4       $unwind$strcpy_s           00000001800465b4     libucrt:strcpy_s.obj
 0002:0000e5b4       $unwind$?__itt_model_lock_acquire_init_3_0@@YAXPEAX@Z 00000001800465b4     itt_notify.obj
 0002:0000e5b4       $unwind$?__itt_stack_callee_leave_init_3_0@@YAXPEAU___itt_caller@@@Z 00000001800465b4     itt_notify.obj
 0002:0000e5b4       $unwind$?__itt_stack_caller_destroy_init_3_0@@YAXPEAU___itt_caller@@@Z 00000001800465b4     itt_notify.obj
 0002:0000e5b4       $unwind$?__itt_model_lock_release_init_3_0@@YAXPEAX@Z 00000001800465b4     itt_notify.obj
 0002:0000e5b4       $unwind$?__itt_suppress_push_init_3_0@@YAXI@Z 00000001800465b4     itt_notify.obj
 0002:0000e5b4       $unwind$_SetThrowImageBase 00000001800465b4     libvcruntime:trnsctrl.obj
 0002:0000e5b4       $unwind$?__itt_sync_releasing_init_3_0@@YAXPEAX@Z 00000001800465b4     itt_notify.obj
 0002:0000e5b4       $unwind$wcscpy_s           00000001800465b4     libucrt:wcscpy_s.obj
 0002:0000e5b4       $unwind$?__itt_sync_acquired_init_3_0@@YAXPEAX@Z 00000001800465b4     itt_notify.obj
 0002:0000e5b4       $unwind$?is_set@governor@internal@tbb@@SA_NPEAVgeneric_scheduler@23@@Z 00000001800465b4     governor.obj
 0002:0000e5b4       $unwind$?__itt_sync_cancel_init_3_0@@YAXPEAX@Z 00000001800465b4     itt_notify.obj
 0002:0000e5b4       $unwind$__acrt_update_multibyte_info 00000001800465b4     libucrt:locale_update.obj
 0002:0000e5b4       $unwind$?__itt_sync_prepare_init_3_0@@YAXPEAX@Z 00000001800465b4     itt_notify.obj
 0002:0000e5b4       $unwind$?__StateFromIp@@YAHPEBU_s_FuncInfo@@PEAU_xDISPATCHER_CONTEXT@@_J@Z 00000001800465b4     libvcruntime:ehstate.obj
 0002:0000e5b4       $unwind$?__itt_sync_destroy_init_3_0@@YAXPEAX@Z 00000001800465b4     itt_notify.obj
 0002:0000e5b4       $unwind$?initialize_cilk_interop@internal@tbb@@YA_NXZ 00000001800465b4     governor.obj
 0002:0000e5b4       $unwind$?__itt_model_record_deallocation_init_3_0@@YAXPEAX@Z 00000001800465b4     itt_notify.obj
 0002:0000e5b4       $unwind$?__GetUnwindTryBlock@@YAHPEA_KPEAU_xDISPATCHER_CONTEXT@@PEBU_s_FuncInfo@@@Z 00000001800465b4     libvcruntime:ehstate.obj
 0002:0000e5b4       $unwind$fegetenv           00000001800465b4     libucrt:fegetenv.obj
 0002:0000e5b4       $unwind$?stack_op_handler@governor@internal@tbb@@SAHW4__cilk_tbb_stack_op@@PEAX@Z 00000001800465b4     governor.obj
 0002:0000e5b4       $unwind$??$advertise_new_work@$01@arena@internal@tbb@@QEAAXXZ 00000001800465b4     arena.obj
 0002:0000e5b4       $unwind$__acrt_stdio_allocate_buffer_nolock 00000001800465b4     libucrt:_getbuf.obj
 0002:0000e5b4       $unwind$initialize_pointers 00000001800465b4     libucrt:initialization.obj
 0002:0000e5b4       $unwind$?__itt_model_clear_uses_init_3_0@@YAXPEAX@Z 00000001800465b4     itt_notify.obj
 0002:0000e5b4       $unwind$__acrt_uninitialize_locks 00000001800465b4     libucrt:locks.obj
 0002:0000e5b4       $unwind$__acrt_stdio_free_buffer_nolock 00000001800465b4     libucrt:_freebuf.obj
 0002:0000e5b4       $unwind$?init@task_group_context@tbb@@IEAAXXZ 00000001800465b4     task_group_context.obj
 0002:0000e5b4       $unwind$?__itt_frame_begin_init_3_0@@YAXPEAU__itt_frame_t@@@Z 00000001800465b4     itt_notify.obj
 0002:0000e5b4       $unwind$__acrt_uninitialize_stdio 00000001800465b4     libucrt:_file.obj
 0002:0000e5b4       $unwind$?__itt_frame_end_init_3_0@@YAXPEAU__itt_frame_t@@@Z 00000001800465b4     itt_notify.obj
 0002:0000e5b4       $unwind$?__itt_model_site_beginW_init_3_0@@YAXPEB_W@Z 00000001800465b4     itt_notify.obj
 0002:0000e5b4       $unwind$__acrt_freeptd     00000001800465b4     libucrt:per_thread_data.obj
 0002:0000e5b4       $unwind$?_Current_exception@exception_ptr@std@@SA?AV12@XZ 00000001800465b4     task_group_context.obj
 0002:0000e5b4       $unwind$_clearfp           00000001800465b4     libucrt:ieee.obj
 0002:0000e5b4       $unwind$?allocate_via_handler_v3@internal@tbb@@YAPEAX_K@Z 00000001800465b4     cache_aligned_allocator.obj
 0002:0000e5b4       $unwind$?__itt_model_task_beginW_init_3_0@@YAXPEB_W@Z 00000001800465b4     itt_notify.obj
 0002:0000e5b4       $unwind$feholdexcept       00000001800465b4     libucrt:feholdexcept.obj
 0002:0000e5b4       $unwind$?__itt_frame_createA_init_3_0@@YAPEAU__itt_frame_t@@PEBD@Z 00000001800465b4     itt_notify.obj
 0002:0000e5b4       $unwind$?dummy_padded_free@internal@tbb@@YAXPEAX@Z 00000001800465b4     cache_aligned_allocator.obj
 0002:0000e5b4       $unwind$?__itt_model_iteration_taskW_init_3_0@@YAXPEB_W@Z 00000001800465b4     itt_notify.obj
 0002:0000e5b4       $unwind$?current_exception@std@@YA?AVexception_ptr@1@XZ 00000001800465b4     task_group_context.obj
 0002:0000e5b4       $unwind$fesetenv           00000001800465b4     libucrt:fesetenv.obj
 0002:0000e5b4       $unwind$?DummyFree@internal@tbb@@YAXPEAX@Z 00000001800465b4     cache_aligned_allocator.obj
 0002:0000e5b4       $unwind$?__itt_model_site_beginA_init_3_0@@YAXPEBD@Z 00000001800465b4     itt_notify.obj
 0002:0000e5b4       $unwind$?DummyMalloc@internal@tbb@@YAPEAX_K@Z 00000001800465b4     cache_aligned_allocator.obj
 0002:0000e5b4       $unwind$??0tbb_exception@tbb@@QEAA@AEBV01@@Z 00000001800465b4     task_group_context.obj
 0002:0000e5b4       $unwind$??1concurrent_queue_iterator_base@internal@tbb@@IEAA@XZ 00000001800465b4     concurrent_queue_v2.obj
 0002:0000e5b4       $unwind$??_Ggeneric_scheduler@internal@tbb@@UEAAPEAXI@Z 00000001800465b4     scheduler.obj
 0002:0000e5b4       $unwind$??1captured_exception@tbb@@UEAA@XZ 00000001800465b4     task_group_context.obj
 0002:0000e5b4       $unwind$?clear@captured_exception@tbb@@QEAAXXZ 00000001800465b4     task_group_context.obj
 0002:0000e5b4       $unwind$?destroy@captured_exception@tbb@@UEAAXXZ 00000001800465b4     task_group_context.obj
 0002:0000e5b4       $unwind$_clrfp             00000001800465b4     libucrt:fpctrl.obj
 0002:0000e5b4       $unwind$?__itt_model_task_beginA_init_3_0@@YAXPEBD@Z 00000001800465b4     itt_notify.obj
 0002:0000e5b4       $unwind$??0bad_exception@std@@QEAA@AEBV01@@Z 00000001800465b4     libcpmt:excptptr.obj
 0002:0000e5b4       $unwind$?__itt_model_iteration_taskA_init_3_0@@YAXPEBD@Z 00000001800465b4     itt_notify.obj
 0002:0000e5b4       $unwind$?getDispatchTarget@UnDecorator@@CA?AVDName@@XZ 00000001800465b4     libvcruntime:undname.obj
 0002:0000e5b4       $unwind$?cancel_group_execution@task_group_context@tbb@@QEAA_NXZ 00000001800465b4     task_group_context.obj
 0002:0000e5b4       $unwind$??0?$output_processor@DV?$stream_output_adapter@D@__crt_stdio_output@@V?$standard_base@DV?$stream_output_adapter@D@__crt_stdio_output@@@2@@__crt_stdio_output@@QEAA@AEBV?$stream_output_adapter@D@1@_KQEBDQEAU__crt_locale_pointers@@QEAD@Z 00000001800465b4     libucrt:output.obj
 0002:0000e5b4       $unwind$?state_case_normal@?$output_processor@DV?$stream_output_adapter@D@__crt_stdio_output@@V?$standard_base@DV?$stream_output_adapter@D@__crt_stdio_output@@@2@@__crt_stdio_output@@AEAA_NXZ 00000001800465b4     libucrt:output.obj
 0002:0000e5b4       $unwind$??_G_Ref_count_base@std@@UEAAPEAXI@Z 00000001800465b4     libcpmt:excptptr.obj
 0002:0000e5b4       $unwind$?capture_fp_settings@task_group_context@tbb@@QEAAXXZ 00000001800465b4     task_group_context.obj
 0002:0000e5b4       $unwind$?state_case_normal_tchar@?$output_processor@DV?$stream_output_adapter@D@__crt_stdio_output@@V?$standard_base@DV?$stream_output_adapter@D@__crt_stdio_output@@@2@@__crt_stdio_output@@AEAA_ND@Z 00000001800465b4     libucrt:output.obj
 0002:0000e5b4       $unwind$?__itt_counter_destroy_init_3_0@@YAXPEAU___itt_counter@@@Z 00000001800465b4     itt_notify.obj
 0002:0000e5b4       $unwind$?__itt_mark_global_off_init_3_0@@YAHH@Z 00000001800465b4     itt_notify.obj
 0002:0000e5b4       $unwind$?__itt_counter_inc_init_3_0@@YAXPEAU___itt_counter@@@Z 00000001800465b4     itt_notify.obj
 0002:0000e5b4       $unwind$__acrt_uninitialize_winapi_thunks 00000001800465b4     libucrt:winapi_thunks.obj
 0002:0000e5b4       $unwind$??1thread_context@concurrent_monitor@internal@tbb@@QEAA@XZ 00000001800465b4     concurrent_queue.obj
 0002:0000e5b4       $unwind$??$advertise_new_work@$0A@@arena@internal@tbb@@QEAAXXZ 00000001800465b4     scheduler.obj
 0002:0000e5b4       $unwind$??_Gwait_task@internal@interface7@tbb@@UEAAPEAXI@Z 00000001800465b4     arena.obj
 0002:0000e5b4       $unwind$?__itt_mark_off_init_3_0@@YAHH@Z 00000001800465b4     itt_notify.obj
 0002:0000e5b4       $unwind$_set_statfp        00000001800465b4     libucrt:fpctrl.obj
 0002:0000e5b4       $unwind$uninitialize_allocated_memory 00000001800465b4     libucrt:initialization.obj
 0002:0000e5b4       $unwind$?__itt_model_lock_acquire_2_init_3_0@@YAXPEAX@Z 00000001800465b4     itt_notify.obj
 0002:0000e5b4       $unwind$?free@allocate_child_proxy@internal@tbb@@QEBAXAEAVtask@3@@Z 00000001800465b4     task.obj
 0002:0000e5b4       $unwind$?free@allocate_root_with_context_proxy@internal@tbb@@QEBAXAEAVtask@3@@Z 00000001800465b4     task.obj
 0002:0000e5b4       $unwind$??1filter@tbb@@UEAA@XZ 00000001800465b4     pipeline.obj
 0002:0000e5b4       $unwind$?free@allocate_root_proxy@internal@tbb@@SAXAEAVtask@3@@Z 00000001800465b4     task.obj
 0002:0000e5b4       $unwind$?free@allocate_continuation_proxy@internal@tbb@@QEBAXAEAVtask@3@@Z 00000001800465b4     task.obj
 0002:0000e5b4       $unwind$?type_case_integer@?$output_processor@DV?$stream_output_adapter@D@__crt_stdio_output@@V?$standard_base@DV?$stream_output_adapter@D@__crt_stdio_output@@@2@@__crt_stdio_output@@AEAA_NI_N@Z 00000001800465b4     libucrt:output.obj
 0002:0000e5b4       $unwind$?__itt_notify_sync_releasing_init_3_0@@YAXPEAX@Z 00000001800465b4     itt_notify.obj
 0002:0000e5b4       $unwind$??_G?$_Ref_count_obj_alloc@V__ExceptionPtr@@U?$_StaticAllocator@H@@@std@@UEAAPEAXI@Z 00000001800465b4     libcpmt:excptptr.obj
 0002:0000e5b4       $unwind$??_G?$_Ref_count_obj@V__ExceptionPtr@@@std@@UEAAPEAXI@Z 00000001800465b4     libcpmt:excptptr.obj
 0002:0000e5b4       $unwind$?__itt_model_lock_release_2_init_3_0@@YAXPEAX@Z 00000001800465b4     itt_notify.obj
 0002:0000e5b4       $unwind$?internal_decrement_ref_count@task@tbb@@AEAA_JXZ 00000001800465b4     task.obj
 0002:0000e5b4       $unwind$?__itt_notify_sync_acquired_init_3_0@@YAXPEAX@Z 00000001800465b4     itt_notify.obj
 0002:0000e5b4       $unwind$?__itt_model_aggregate_task_init_3_0@@YAX_K@Z 00000001800465b4     itt_notify.obj
 0002:0000e5b4       $unwind$?__itt_task_end_init_3_0@@YAXPEBU___itt_domain@@@Z 00000001800465b4     itt_notify.obj
 0002:0000e5b4       $unwind$?__itt_notify_sync_cancel_init_3_0@@YAXPEAX@Z 00000001800465b4     itt_notify.obj
 0002:0000e5b4       $unwind$?getReturnType@UnDecorator@@CA?AVDName@@PEAV2@@Z 00000001800465b4     libvcruntime:undname.obj
 0002:0000e5b4       $unwind$?__itt_model_disable_push_init_3_0@@YAXW4__itt_model_disable@@@Z 00000001800465b4     itt_notify.obj
 0002:0000e5b4       $unwind$_calloc_base       00000001800465b4     libucrt:calloc_base.obj
 0002:0000e5b4       $unwind$??0exception@std@@QEAA@AEBV01@@Z 00000001800465b4     tbb_misc.obj
 0002:0000e5b4       $unwind$__raise_securityfailure 00000001800465b4     LIBCMT:gs_report.obj
 0002:0000e5b4       $unwind$??0?$output_processor@DV?$string_output_adapter@D@__crt_stdio_output@@V?$standard_base@DV?$string_output_adapter@D@__crt_stdio_output@@@2@@__crt_stdio_output@@QEAA@AEBV?$string_output_adapter@D@1@_KQEBDQEAU__crt_locale_pointers@@QEAD@Z 00000001800465b4     libucrt:output.obj
 0002:0000e5b4       $unwind$__acrt_RoUninitialize 00000001800465b4     libucrt:winapi_thunks.obj
 0002:0000e5b4       $unwind$?state_case_normal@?$output_processor@DV?$string_output_adapter@D@__crt_stdio_output@@V?$standard_base@DV?$string_output_adapter@D@__crt_stdio_output@@@2@@__crt_stdio_output@@AEAA_NXZ 00000001800465b4     libucrt:output.obj
 0002:0000e5b4       $unwind$?__itt_notify_sync_prepare_init_3_0@@YAXPEAX@Z 00000001800465b4     itt_notify.obj
 0002:0000e5b4       $unwind$??0runtime_error@std@@QEAA@AEBV01@@Z 00000001800465b4     tbb_misc.obj
 0002:0000e5b4       $unwind$??0bad_alloc@std@@QEAA@AEBV01@@Z 00000001800465b4     tbb_misc.obj
 0002:0000e5b4       $unwind$??0bad_last_alloc@tbb@@QEAA@AEBV01@@Z 00000001800465b4     tbb_misc.obj
 0002:0000e5b4       $unwind$??_Gtype_info@@UEAAPEAXI@Z 00000001800465b4     LIBCMT:std_type_info_static.obj
 0002:0000e5b4       $unwind$??0invalid_argument@std@@QEAA@AEBV01@@Z 00000001800465b4     tbb_misc.obj
 0002:0000e5b4       $unwind$?internal_attach@task_arena_base@internal@interface7@tbb@@IEAAXXZ 00000001800465b4     arena.obj
 0002:0000e5b4       $unwind$??0logic_error@std@@QEAA@AEBV01@@Z 00000001800465b4     tbb_misc.obj
 0002:0000e5b4       $unwind$??2@YAPEAX_K@Z     00000001800465b4     LIBCMT:new_scalar.obj
 0002:0000e5b4       $unwind$??0out_of_range@std@@QEAA@AEBV01@@Z 00000001800465b4     tbb_misc.obj
 0002:0000e5b4       $unwind$??0bad_array_new_length@std@@QEAA@AEBV01@@Z 00000001800465b4     LIBCMT:throw_bad_alloc.obj
 0002:0000e5b4       $unwind$?leave_task_pool@generic_scheduler@internal@tbb@@QEAAXXZ 00000001800465b4     scheduler.obj
 0002:0000e5b4       $unwind$??0range_error@std@@QEAA@AEBV01@@Z 00000001800465b4     tbb_misc.obj
 0002:0000e5b4       $unwind$??0missing_wait@tbb@@QEAA@AEBV01@@Z 00000001800465b4     tbb_misc.obj
 0002:0000e5b4       $unwind$??0invalid_multiple_scheduling@tbb@@QEAA@AEBV01@@Z 00000001800465b4     tbb_misc.obj
 0002:0000e5b4       $unwind$??0improper_lock@tbb@@QEAA@AEBV01@@Z 00000001800465b4     tbb_misc.obj
 0002:0000e5b4       $unwind$??0length_error@std@@QEAA@AEBV01@@Z 00000001800465b4     tbb_misc.obj
 0002:0000e5b4       $unwind$??0user_abort@tbb@@QEAA@AEBV01@@Z 00000001800465b4     tbb_misc.obj
 0002:0000e5b4       $unwind$??$common_get_or_create_environment_nolock@D@@YAPEAPEADXZ 00000001800465b4     libucrt:environment_initialization.obj
 0002:0000e5b4       $unwind$?internal_terminate@task_arena_base@internal@interface7@tbb@@IEAAXXZ 00000001800465b4     arena.obj
 0002:0000e5b4       $unwind$?request_close_connection@private_server@rml@internal@tbb@@UEAAX_N@Z 00000001800465b4     private_server.obj
 0002:0000e5b4       $unwind$__acrt_allocate_buffer_for_argv 00000001800465b4     libucrt:argv_parsing.obj
 0002:0000e5b4       $unwind$_onexit            00000001800465b4     LIBCMT:utility.obj
 0002:0000e5b4       $unwind$??_Gempty_task@tbb@@UEAAPEAXI@Z 00000001800465b4     arena.obj
 0002:0000e5b4       $unwind$__acrt_initialize_locks 00000001800465b4     libucrt:locks.obj
 0002:0000e5b4       $unwind$__scrt_release_startup_lock 00000001800465b4     LIBCMT:utility.obj
 0002:0000e5b4       $unwind$??_Gpipeline_root_task@internal@tbb@@UEAAPEAXI@Z 00000001800465b4     pipeline.obj
 0002:0000e5b4       $unwind$?type_case_integer@?$output_processor@DV?$string_output_adapter@D@__crt_stdio_output@@V?$standard_base@DV?$string_output_adapter@D@__crt_stdio_output@@@2@@__crt_stdio_output@@AEAA_NI_N@Z 00000001800465b4     libucrt:output.obj
 0002:0000e5b4       $unwind$DllMain            00000001800465b4     tbb_main.obj
 0002:0000e5b4       $unwind$?release_task_pool@generic_scheduler@internal@tbb@@QEBAXXZ 00000001800465b4     scheduler.obj
 0002:0000e5b4       $unwind$__scrt_initialize_crt 00000001800465b4     LIBCMT:utility.obj
 0002:0000e5b4       $unwind$?getSymbolName@UnDecorator@@CA?AVDName@@XZ 00000001800465b4     libvcruntime:undname.obj
 0002:0000e5b4       $unwind$?__itt_mark_createW_init_3_0@@YAHPEB_W@Z 00000001800465b4     itt_notify.obj
 0002:0000e5b4       $unwind$??AReplicator@@QEBA?AVDName@@H@Z 00000001800465b4     libvcruntime:undname.obj
 0002:0000e5b4       $unwind$__scrt_uninitialize_crt 00000001800465b4     LIBCMT:utility.obj
 0002:0000e5b4       $unwind$?itt_load_pointer_with_acquire_v3@internal@tbb@@YAPEAXPEBX@Z 00000001800465b4     tbb_main.obj
 0002:0000e5b4       $unwind$??1?$padded@Uarena_base@internal@tbb@@$0IA@@internal@tbb@@QEAA@XZ 00000001800465b4     arena.obj
 0002:0000e5b4       $unwind$?active_value@allowed_parallelism_control@internal@tbb@@EEBA_KXZ 00000001800465b4     tbb_main.obj
 0002:0000e5b4       $unwind$?exit_or_terminate_process@@YAXI@Z 00000001800465b4     libucrt:exit.obj
 0002:0000e5b4       $unwind$?__itt_event_end_init_3_0@@YAHH@Z 00000001800465b4     itt_notify.obj
 0002:0000e5b4       $unwind$?__itt_event_start_init_3_0@@YAHH@Z 00000001800465b4     itt_notify.obj
 0002:0000e5b4       $unwind$?thread_get_id_v3@internal@tbb@@YA?AVid@tbb_thread_v3@12@XZ 00000001800465b4     tbb_thread.obj
 0002:0000e5b4       $unwind$?allocate_closure_v3@internal@tbb@@YAPEAX_K@Z 00000001800465b4     tbb_thread.obj
 0002:0000e5b4       $unwind$?detach@tbb_thread_v3@internal@tbb@@QEAAXXZ 00000001800465b4     tbb_thread.obj
 0002:0000e5b4       $unwind$?__itt_heap_reset_detection_init_3_0@@YAXI@Z 00000001800465b4     itt_notify.obj
 0002:0000e5b4       $unwind$?__itt_heap_record_init_3_0@@YAXI@Z 00000001800465b4     itt_notify.obj
 0002:0000e5b4       $unwind$?internal_abort@concurrent_queue_base_v3@internal@tbb@@IEAAXXZ 00000001800465b4     concurrent_queue.obj
 0002:0000e5b4       $unwind$_setfpstatusword   00000001800465b4     libucrt:_fenvutils.obj
 0002:0000e5b4       $unwind$??_G?$custom_scheduler@UIntelSchedulerTraits@internal@tbb@@@internal@tbb@@UEAAPEAXI@Z 00000001800465b4     scheduler.obj
 0002:0000e5b4       $unwind$?init_condvar_using_event@internal@tbb@@YAXPEAUcondition_variable_using_event@1interface5@2@@Z 00000001800465b4     condition_variable.obj
 0002:0000e5b4       $unwind$??0concurrent_queue_iterator_base_v3@internal@tbb@@IEAA@AEBVconcurrent_queue_base_v3@12@@Z 00000001800465b4     concurrent_queue.obj
 0002:0000e5b4       $unwind$?internal_release@scoped_lock@recursive_mutex@tbb@@AEAAXXZ 00000001800465b4     recursive_mutex.obj
 0002:0000e5b4       $unwind$?__itt_thr_name_setA_init_3_0@@YAHPEBDH@Z 00000001800465b4     itt_notify.obj
 0002:0000e5b4       $unwind$?internal_construct@recursive_mutex@tbb@@AEAAXXZ 00000001800465b4     recursive_mutex.obj
 0002:0000e5b4       $unwind$?internal_destroy@recursive_mutex@tbb@@AEAAXXZ 00000001800465b4     recursive_mutex.obj
 0002:0000e5b4       $unwind$?internal_release@scoped_lock@mutex@tbb@@AEAAXXZ 00000001800465b4     mutex.obj
 0002:0000e5b4       $unwind$??0concurrent_queue_iterator_base_v3@internal@tbb@@IEAA@AEBVconcurrent_queue_base_v3@12@_K@Z 00000001800465b4     concurrent_queue.obj
 0002:0000e5b4       $unwind$?internal_construct@mutex@tbb@@AEAAXXZ 00000001800465b4     mutex.obj
 0002:0000e5b4       $unwind$??4DName@@QEAAAEAV0@W4DNameStatus@@@Z 00000001800465b4     libvcruntime:undname.obj
 0002:0000e5b4       $unwind$?internal_destroy@mutex@tbb@@AEAAXXZ 00000001800465b4     mutex.obj
 0002:0000e5b4       $unwind$??0bad_typeid@std@@QEAA@AEBV01@@Z 00000001800465b4     libvcruntime:rtti.obj
 0002:0000e5b4       $unwind$?clear@observer_list@internal@tbb@@QEAAXXZ 00000001800465b4     observer_proxy.obj
 0002:0000e5b4       $unwind$??4DName@@QEAAAEAV0@PEBD@Z 00000001800465b4     libvcruntime:undname.obj
 0002:0000e5b4       $unwind$??_Gtask@tbb@@UEAAPEAXI@Z 00000001800465b4     pipeline.obj
 0002:0000e5b4       $unwind$?internal_release@scoped_lock@spin_mutex@tbb@@AEAAXXZ 00000001800465b4     spin_mutex.obj
 0002:0000e5b4       $unwind$?internal_try_acquire@scoped_lock@spin_mutex@tbb@@AEAA_NAEAV23@@Z 00000001800465b4     spin_mutex.obj
 0002:0000e5b4       $unwind$??YDName@@QEAAAEAV0@AEBV0@@Z 00000001800465b4     libvcruntime:undname.obj
 0002:0000e5b4       $unwind$??0__non_rtti_object@std@@QEAA@AEBV01@@Z 00000001800465b4     libvcruntime:rtti.obj
 0002:0000e5b4       $unwind$??YDName@@QEAAAEAV0@W4DNameStatus@@@Z 00000001800465b4     libvcruntime:undname.obj
 0002:0000e5b4       $unwind$__std_exception_destroy 00000001800465b4     libvcruntime:std_exception.obj
 0002:0000e5b4       $unwind$__std_type_info_destroy_list 00000001800465b4     libvcruntime:std_type_info.obj
 0002:0000e5b4       $unwind$?internal_release_writer@spin_rw_mutex_v3@tbb@@AEAAXXZ 00000001800465b4     spin_rw_mutex.obj
 0002:0000e5b4       $unwind$?commit_relocated_tasks@generic_scheduler@internal@tbb@@QEAAX_K@Z 00000001800465b4     scheduler.obj
 0002:0000e5b4       $unwind$?internal_downgrade@spin_rw_mutex_v3@tbb@@AEAAXXZ 00000001800465b4     spin_rw_mutex.obj
 0002:0000e5b4       $unwind$??0?$output_processor@DV?$string_output_adapter@D@__crt_stdio_output@@V?$format_validation_base@DV?$string_output_adapter@D@__crt_stdio_output@@@2@@__crt_stdio_output@@QEAA@AEBV?$string_output_adapter@D@1@_KQEBDQEAU__crt_locale_pointers@@QEAD@Z 00000001800465b4     libucrt:output.obj
 0002:0000e5b4       $unwind$?internal_release_reader@spin_rw_mutex_v3@tbb@@AEAAXXZ 00000001800465b4     spin_rw_mutex.obj
 0002:0000e5b4       $unwind$??_G?$custom_scheduler@UDefaultSchedulerTraits@internal@tbb@@@internal@tbb@@UEAAPEAXI@Z 00000001800465b4     scheduler.obj
 0002:0000e5b4       $unwind$_fflush_nolock     00000001800465b4     libucrt:fflush.obj
 0002:0000e5b4       $unwind$?__itt_thread_set_nameA_init_3_0@@YAXPEBD@Z 00000001800465b4     itt_notify.obj
 0002:0000e5b4       $unwind$__vcrt_initialize_locks 00000001800465b4     libvcruntime:locks.obj
 0002:0000e5b4       $unwind$?state_case_normal@?$output_processor@DV?$string_output_adapter@D@__crt_stdio_output@@V?$format_validation_base@DV?$string_output_adapter@D@__crt_stdio_output@@@2@@__crt_stdio_output@@AEAA_NXZ 00000001800465b4     libucrt:output.obj
 0002:0000e5b4       $unwind$__vcrt_uninitialize_locks 00000001800465b4     libvcruntime:locks.obj
 0002:0000e5b4       $unwind$?__itt_thr_name_setW_init_3_0@@YAHPEB_WH@Z 00000001800465b4     itt_notify.obj
 0002:0000e5b4       $unwind$?__itt_thread_set_nameW_init_3_0@@YAXPEB_W@Z 00000001800465b4     itt_notify.obj
 0002:0000e5b4       $unwind$?__itt_set_track_init_3_0@@YAXPEAU___itt_track@@@Z 00000001800465b4     itt_notify.obj
 0002:0000e5b4       $unwind$__vcrt_freeptd     00000001800465b4     libvcruntime:per_thread_data.obj
 0002:0000e5b4       $unwind$?try_lock_read@reader_writer_lock@interface5@tbb@@QEAA_NXZ 00000001800465b4     reader_writer_lock.obj
 0002:0000e5b4       $unwind$?padded_allocate@internal@tbb@@YAPEAX_K0@Z 00000001800465b4     cache_aligned_allocator.obj
 0002:0000e5b4       $unwind$_malloc_base       00000001800465b4     libucrt:malloc_base.obj
 0002:0000e5b4       $unwind$?internal_destroy@scoped_lock@reader_writer_lock@interface5@tbb@@AEAAXXZ 00000001800465b4     reader_writer_lock.obj
 0002:0000e5b4       $unwind$?__itt_mark_createA_init_3_0@@YAHPEBD@Z 00000001800465b4     itt_notify.obj
 0002:0000e5b4       $unwind$_purecall          00000001800465b4     libvcruntime:purevirt.obj
 0002:0000e5b4       $unwind$__acrt_fp_strflt_to_string 00000001800465b4     libucrt:_fptostr.obj
 0002:0000e5b4       $unwind$_SetImageBase      00000001800465b4     libvcruntime:trnsctrl.obj
 0002:0000e5b4       $unwind$?__itt_frame_createW_init_3_0@@YAPEAU__itt_frame_t@@PEB_W@Z 00000001800465b4     itt_notify.obj
 0002:0000e5b4       $unwind$?type_case_integer@?$output_processor@DV?$string_output_adapter@D@__crt_stdio_output@@V?$format_validation_base@DV?$string_output_adapter@D@__crt_stdio_output@@@2@@__crt_stdio_output@@AEAA_NI_N@Z 00000001800465b4     libucrt:output.obj
 0002:0000e5b4       $unwind$??0DName@@QEAA@PEBD@Z 00000001800465b4     libvcruntime:undname.obj
 0002:0000e5bc       $unwind$??1micro_queue_pop_finalizer@internal@tbb@@QEAA@XZ 00000001800465bc     concurrent_queue.obj
 0002:0000e5e0       $ip2state$??1micro_queue_pop_finalizer@internal@tbb@@QEAA@XZ 00000001800465e0     concurrent_queue.obj
 0002:0000e5e8       $unwind$?push@micro_queue@internal@tbb@@QEAAXPEBX_KAEAVconcurrent_queue_base_v3@23@W4copy_specifics@423@@Z 00000001800465e8     concurrent_queue.obj
 0002:0000e604       $stateUnwindMap$?push@micro_queue@internal@tbb@@QEAAXPEBX_KAEAVconcurrent_queue_base_v3@23@W4copy_specifics@423@@Z 0000000180046604     concurrent_queue.obj
 0002:0000e624       $tryMap$?push@micro_queue@internal@tbb@@QEAAXPEBX_KAEAVconcurrent_queue_base_v3@23@W4copy_specifics@423@@Z 0000000180046624     concurrent_queue.obj
 0002:0000e64c       $handlerMap$0$?push@micro_queue@internal@tbb@@QEAAXPEBX_KAEAVconcurrent_queue_base_v3@23@W4copy_specifics@423@@Z 000000018004664c     concurrent_queue.obj
 0002:0000e660       $handlerMap$1$?push@micro_queue@internal@tbb@@QEAAXPEBX_KAEAVconcurrent_queue_base_v3@23@W4copy_specifics@423@@Z 0000000180046660     concurrent_queue.obj
 0002:0000e680       $ip2state$?push@micro_queue@internal@tbb@@QEAAXPEBX_KAEAVconcurrent_queue_base_v3@23@W4copy_specifics@423@@Z 0000000180046680     concurrent_queue.obj
 0002:0000e6c8       $unwind$?catch$3@?0??push@micro_queue@internal@tbb@@QEAAXPEBX_KAEAVconcurrent_queue_base_v3@23@W4copy_specifics@423@@Z@4HA 00000001800466c8     concurrent_queue.obj
 0002:0000e6c8       $unwind$?catch$2@?0??push@micro_queue@internal@tbb@@QEAAXPEBX_KAEAVconcurrent_queue_base_v3@23@W4copy_specifics@423@@Z@4HA 00000001800466c8     concurrent_queue.obj
 0002:0000e6d8       $unwind$?pop@micro_queue@internal@tbb@@QEAA_NPEAX_KAEAVconcurrent_queue_base_v3@23@@Z 00000001800466d8     concurrent_queue.obj
 0002:0000e6fc       $stateUnwindMap$?pop@micro_queue@internal@tbb@@QEAA_NPEAX_KAEAVconcurrent_queue_base_v3@23@@Z 00000001800466fc     concurrent_queue.obj
 0002:0000e710       $ip2state$?pop@micro_queue@internal@tbb@@QEAA_NPEAX_KAEAVconcurrent_queue_base_v3@23@@Z 0000000180046710     concurrent_queue.obj
 0002:0000e730       $unwind$?assign@micro_queue@internal@tbb@@QEAAAEAU123@AEBU123@AEAVconcurrent_queue_base_v3@23@W4copy_specifics@423@@Z 0000000180046730     concurrent_queue.obj
 0002:0000e750       $stateUnwindMap$?_CopyException@__ExceptionPtr@@SA?AV?$shared_ptr@V__ExceptionPtr@@@std@@PEBXPEBU_s_ThrowInfo@@_N@Z 0000000180046750     libcpmt:excptptr.obj
 0002:0000e750       $stateUnwindMap$?assign@micro_queue@internal@tbb@@QEAAAEAU123@AEBU123@AEAVconcurrent_queue_base_v3@23@W4copy_specifics@423@@Z 0000000180046750     concurrent_queue.obj
 0002:0000e750       $stateUnwindMap$?register_pending_exception@task_group_context@tbb@@QEAAXXZ 0000000180046750     task_group_context.obj
 0002:0000e750       $stateUnwindMap$?_CurrentException@__ExceptionPtr@@SA?AV?$shared_ptr@V__ExceptionPtr@@@std@@XZ 0000000180046750     libcpmt:excptptr.obj
 0002:0000e750       $stateUnwindMap$?_CallCopyCtor@__ExceptionPtr@@AEBAXPEAX0_KQEBU_s_CatchableType@@@Z 0000000180046750     libcpmt:excptptr.obj
 0002:0000e760       $tryMap$?assign@micro_queue@internal@tbb@@QEAAAEAU123@AEBU123@AEAVconcurrent_queue_base_v3@23@W4copy_specifics@423@@Z 0000000180046760     concurrent_queue.obj
 0002:0000e774       $handlerMap$0$?assign@micro_queue@internal@tbb@@QEAAAEAU123@AEBU123@AEAVconcurrent_queue_base_v3@23@W4copy_specifics@423@@Z 0000000180046774     concurrent_queue.obj
 0002:0000e788       $ip2state$?assign@micro_queue@internal@tbb@@QEAAAEAU123@AEBU123@AEAVconcurrent_queue_base_v3@23@W4copy_specifics@423@@Z 0000000180046788     concurrent_queue.obj
 0002:0000e7b0       $unwind$?catch$0@?0??assign@micro_queue@internal@tbb@@QEAAAEAU123@AEBU123@AEAVconcurrent_queue_base_v3@23@W4copy_specifics@423@@Z@4HA 00000001800467b0     concurrent_queue.obj
 0002:0000e7c0       $unwind$??$propagate_task_group_state@_K@generic_scheduler@internal@tbb@@QEAAXPEQtask_group_context@2@_KAEAV32@_K@Z 00000001800467c0     task_group_context.obj
 0002:0000e7c0       $unwind$?make_invalid@micro_queue@internal@tbb@@QEAAX_K@Z 00000001800467c0     concurrent_queue.obj
 0002:0000e7c0       $unwind$?lower_arena_priority@market@internal@tbb@@QEAA_NAEAVarena@23@_J_K@Z 00000001800467c0     market.obj
 0002:0000e7c0       $unwind$?internal_acquire_reader@x86_rtm_rw_mutex@internal@interface8@tbb@@AEAAXAEAVscoped_lock@1234@_N@Z 00000001800467c0     x86_rtm_rw_mutex.obj
 0002:0000e7c0       $unwind$?internal_push@concurrent_queue_base@internal@tbb@@IEAAXPEBX@Z 00000001800467c0     concurrent_queue_v2.obj
 0002:0000e7c0       $unwind$??$apply@Usafe_init_body@helper@concurrent_vector_base_v3@internal@tbb@@@helper@concurrent_vector_base_v3@internal@tbb@@QEAA_KAEBUsafe_init_body@0123@@Z 00000001800467c0     concurrent_vector.obj
 0002:0000e7c0       $unwind$?free_arena@arena@internal@tbb@@QEAAXXZ 00000001800467c0     arena.obj
 0002:0000e7c0       $unwind$?internal_push_back@concurrent_vector_base_v3@internal@tbb@@IEAAPEAX_KAEA_K@Z 00000001800467c0     concurrent_vector.obj
 0002:0000e7c0       $unwind$?internal_acquire_writer@x86_rtm_rw_mutex@internal@interface8@tbb@@AEAAXAEAVscoped_lock@1234@_N@Z 00000001800467c0     x86_rtm_rw_mutex.obj
 0002:0000e7d8       $unwind$?run@private_worker@rml@internal@tbb@@AEAAXXZ 00000001800467d8     private_server.obj
 0002:0000e7d8       $unwind$?internal_pop_if_present@concurrent_queue_base_v3@internal@tbb@@IEAA_NPEAX@Z 00000001800467d8     concurrent_queue.obj
 0002:0000e7d8       $unwind$?internal_push_if_not_full@concurrent_queue_base@internal@tbb@@IEAA_NPEBX@Z 00000001800467d8     concurrent_queue_v2.obj
 0002:0000e7d8       $unwind$?internal_pop_if_present@concurrent_queue_base@internal@tbb@@IEAA_NPEAX@Z 00000001800467d8     concurrent_queue_v2.obj
 0002:0000e7d8       $unwind$?initialize@concurrent_queue_iterator_base_v3@internal@tbb@@AEAAXAEBVconcurrent_queue_base_v3@23@_K@Z 00000001800467d8     concurrent_queue.obj
 0002:0000e7d8       $unwind$?allocate@allocate_root_with_context_proxy@internal@tbb@@QEBAAEAVtask@3@_K@Z 00000001800467d8     task.obj
 0002:0000e7d8       $unwind$?free_nonlocal_small_task@generic_scheduler@internal@tbb@@QEAAXAEAVtask@3@@Z 00000001800467d8     scheduler.obj
 0002:0000e7d8       $unwind$??0concurrent_queue_base_v3@internal@tbb@@IEAA@_K@Z 00000001800467d8     concurrent_queue.obj
 0002:0000e7ec       $unwind$??_Gconcurrent_queue_base_v3@internal@tbb@@MEAAPEAXI@Z 00000001800467ec     concurrent_queue.obj
 0002:0000e800       $stateUnwindMap$??_Gstage_task@internal@tbb@@UEAAPEAXI@Z 0000000180046800     pipeline.obj
 0002:0000e800       $stateUnwindMap$??_Gscoped_lock@reader_writer_lock@interface5@tbb@@QEAAPEAXI@Z 0000000180046800     reader_writer_lock.obj
 0002:0000e800       $stateUnwindMap$?clear@pipeline@tbb@@QEAAXXZ 0000000180046800     pipeline.obj
 0002:0000e800       $stateUnwindMap$?unlock@reader_writer_lock@interface5@tbb@@QEAAXXZ 0000000180046800     reader_writer_lock.obj
 0002:0000e800       $stateUnwindMap$??_Ginput_buffer@internal@tbb@@QEAAPEAXI@Z 0000000180046800     pipeline.obj
 0002:0000e800       $stateUnwindMap$?start_write@reader_writer_lock@interface5@tbb@@AEAA_NPEAVscoped_lock@123@@Z 0000000180046800     reader_writer_lock.obj
 0002:0000e800       $stateUnwindMap$??_Gcaptured_exception@tbb@@UEAAPEAXI@Z 0000000180046800     task_group_context.obj
 0002:0000e800       $stateUnwindMap$??_Gconcurrent_queue_base_v3@internal@tbb@@MEAAPEAXI@Z 0000000180046800     concurrent_queue.obj
 0002:0000e800       $stateUnwindMap$??_Gtbb_exception@tbb@@UEAAPEAXI@Z 0000000180046800     task_group_context.obj
 0002:0000e808       $ip2state$??_Gconcurrent_queue_base_v3@internal@tbb@@MEAAPEAXI@Z 0000000180046808     concurrent_queue.obj
 0002:0000e820       $unwind$??1concurrent_queue_base_v3@internal@tbb@@MEAA@XZ 0000000180046820     concurrent_queue.obj
 0002:0000e830       $ip2state$??1concurrent_queue_base_v3@internal@tbb@@MEAA@XZ 0000000180046830     concurrent_queue.obj
 0002:0000e838       $unwind$?internal_insert_item@concurrent_queue_base_v3@internal@tbb@@IEAAXPEBXW4copy_specifics@123@@Z 0000000180046838     concurrent_queue.obj
 0002:0000e860       $stateUnwindMap$?internal_insert_item@concurrent_queue_base_v3@internal@tbb@@IEAAXPEBXW4copy_specifics@123@@Z 0000000180046860     concurrent_queue.obj
 0002:0000e878       $tryMap$?internal_insert_item@concurrent_queue_base_v3@internal@tbb@@IEAAXPEBXW4copy_specifics@123@@Z 0000000180046878     concurrent_queue.obj
 0002:0000e88c       $handlerMap$0$?internal_insert_item@concurrent_queue_base_v3@internal@tbb@@IEAAXPEBXW4copy_specifics@123@@Z 000000018004688c     concurrent_queue.obj
 0002:0000e8c0       $ip2state$?internal_insert_item@concurrent_queue_base_v3@internal@tbb@@IEAAXPEBXW4copy_specifics@123@@Z 00000001800468c0     concurrent_queue.obj
 0002:0000e908       $unwind$?catch$6@?0??internal_insert_item@concurrent_queue_base_v3@internal@tbb@@IEAAXPEBXW4copy_specifics@123@@Z@4HA 0000000180046908     concurrent_queue.obj
 0002:0000e908       $unwind$?catch$5@?0??internal_insert_item@concurrent_queue_base_v3@internal@tbb@@IEAAXPEBXW4copy_specifics@123@@Z@4HA 0000000180046908     concurrent_queue.obj
 0002:0000e918       $unwind$?internal_pop@concurrent_queue_base_v3@internal@tbb@@IEAAXPEAX@Z 0000000180046918     concurrent_queue.obj
 0002:0000e93c       $stateUnwindMap$?internal_pop@concurrent_queue_base_v3@internal@tbb@@IEAAXPEAX@Z 000000018004693c     concurrent_queue.obj
 0002:0000e954       $tryMap$?internal_pop@concurrent_queue_base_v3@internal@tbb@@IEAAXPEAX@Z 0000000180046954     concurrent_queue.obj
 0002:0000e968       $handlerMap$0$?internal_pop@concurrent_queue_base_v3@internal@tbb@@IEAAXPEAX@Z 0000000180046968     concurrent_queue.obj
 0002:0000e990       $ip2state$?internal_pop@concurrent_queue_base_v3@internal@tbb@@IEAAXPEAX@Z 0000000180046990     concurrent_queue.obj
 0002:0000e9d8       $unwind$?catch$8@?0??internal_pop@concurrent_queue_base_v3@internal@tbb@@IEAAXPEAX@Z@4HA 00000001800469d8     concurrent_queue.obj
 0002:0000e9d8       $unwind$?catch$7@?0??internal_pop@concurrent_queue_base_v3@internal@tbb@@IEAAXPEAX@Z@4HA 00000001800469d8     concurrent_queue.obj
 0002:0000e9e8       $unwind$?internal_insert_if_not_full@concurrent_queue_base_v3@internal@tbb@@IEAA_NPEBXW4copy_specifics@123@@Z 00000001800469e8     concurrent_queue.obj
 0002:0000e9f4       $unwind$__vcrt_getptd_noexit 00000001800469f4     libvcruntime:per_thread_data.obj
 0002:0000e9f4       $unwind$__vcrt_FlsSetValue 00000001800469f4     libvcruntime:winapi_downlevel.obj
 0002:0000e9f4       $unwind$??$apply@Udestroy_body@helper@concurrent_vector_base_v3@internal@tbb@@@helper@concurrent_vector_base_v3@internal@tbb@@QEAA_KAEBUdestroy_body@0123@@Z 00000001800469f4     concurrent_vector.obj
 0002:0000e9f4       $unwind$??0DName@@QEAA@PEAV0@@Z 00000001800469f4     libvcruntime:undname.obj
 0002:0000e9f4       $unwind$?create_one_job@market@internal@tbb@@EEAAPEAVjob@rml@@XZ 00000001800469f4     market.obj
 0002:0000e9f4       $unwind$?type_case_Z@?$output_processor@DV?$string_output_adapter@D@__crt_stdio_output@@V?$standard_base@DV?$string_output_adapter@D@__crt_stdio_output@@@2@@__crt_stdio_output@@AEAA_NXZ 00000001800469f4     libucrt:output.obj
 0002:0000e9f4       $unwind$_DllMainCRTStartup 00000001800469f4     LIBCMT:dll_dllmain.obj
 0002:0000e9f4       $unwind$?__itt_counter_inc_delta_v3_init_3_0@@YAXPEBU___itt_domain@@PEAU___itt_string_handle@@_K@Z 00000001800469f4     itt_notify.obj
 0002:0000e9f4       $unwind$?type_case_Z@?$output_processor@DV?$stream_output_adapter@D@__crt_stdio_output@@V?$standard_base@DV?$stream_output_adapter@D@__crt_stdio_output@@@2@@__crt_stdio_output@@AEAA_NXZ 00000001800469f4     libucrt:output.obj
 0002:0000e9f4       $unwind$?getMemory@_HeapManager@@QEAAPEAX_KH@Z 00000001800469f4     libvcruntime:undname.obj
 0002:0000e9f4       $unwind$__acrt_getptd_noexit 00000001800469f4     libucrt:per_thread_data.obj
 0002:0000e9f4       $unwind$?__itt_model_site_begin_init_3_0@@YAXPEAPEAX0PEBD@Z 00000001800469f4     itt_notify.obj
 0002:0000e9f4       $unwind$?type_case_s@?$output_processor@DV?$stream_output_adapter@D@__crt_stdio_output@@V?$standard_base@DV?$stream_output_adapter@D@__crt_stdio_output@@@2@@__crt_stdio_output@@AEAA_NXZ 00000001800469f4     libucrt:output.obj
 0002:0000e9f4       $unwind$?allocate_task_pool@arena_slot@internal@tbb@@QEAAX_K@Z 00000001800469f4     scheduler.obj
 0002:0000e9f4       $unwind$?init_scheduler@governor@internal@tbb@@SAPEAVgeneric_scheduler@23@H_K_N@Z 00000001800469f4     governor.obj
 0002:0000e9f4       $unwind$?type_case_s@?$output_processor@DV?$string_output_adapter@D@__crt_stdio_output@@V?$standard_base@DV?$string_output_adapter@D@__crt_stdio_output@@@2@@__crt_stdio_output@@AEAA_NXZ 00000001800469f4     libucrt:output.obj
 0002:0000e9f4       $unwind$?__itt_track_create_init_3_0@@YAPEAU___itt_track@@PEAU___itt_track_group@@PEAU___itt_string_handle@@W4___itt_track_type@@@Z 00000001800469f4     itt_notify.obj
 0002:0000e9f4       $unwind$?__itt_model_task_begin_init_3_0@@YAXPEAPEAX0PEBD@Z 00000001800469f4     itt_notify.obj
 0002:0000e9f4       $unwind$?create_arena@market@internal@tbb@@SAPEAVarena@23@HH_K@Z 00000001800469f4     market.obj
 0002:0000e9f4       $unwind$?fetch_and_or@interface5@tbb@@YA_KAEAU?$atomic@_K@2@_K@Z 00000001800469f4     reader_writer_lock.obj
 0002:0000e9f4       $unwind$?allocate@captured_exception@tbb@@SAPEAV12@PEBD0@Z 00000001800469f4     task_group_context.obj
 0002:0000e9f4       $unwind$memcpy_s           00000001800469f4     libucrt:cfout.obj
 0002:0000e9f4       $unwind$??$spin_wait_while_eq@PEAVscoped_lock@queuing_rw_mutex@tbb@@PEAV123@@internal@tbb@@YAXAEDSEAVscoped_lock@queuing_rw_mutex@1@PEAV231@@Z 00000001800469f4     queuing_rw_mutex.obj
 0002:0000e9f4       $unwind$?__itt_task_end_ex_init_3_0@@YAXPEBU___itt_domain@@PEAU___itt_clock_domain@@_K@Z 00000001800469f4     itt_notify.obj
 0002:0000e9f4       $unwind$?lock@spin_mutex@tbb@@QEAAXXZ 00000001800469f4     task_group_context.obj
 0002:0000e9f4       $unwind$??0concurrent_queue_base@internal@tbb@@IEAA@_K@Z 00000001800469f4     concurrent_queue_v2.obj
 0002:0000e9f4       $unwind$?type_case_s@?$output_processor@DV?$string_output_adapter@D@__crt_stdio_output@@V?$format_validation_base@DV?$string_output_adapter@D@__crt_stdio_output@@@2@@__crt_stdio_output@@AEAA_NXZ 00000001800469f4     libucrt:output.obj
 0002:0000e9f4       $unwind$?internal_pop@concurrent_queue_base@internal@tbb@@IEAAXPEAX@Z 00000001800469f4     concurrent_queue_v2.obj
 0002:0000e9f4       $unwind$__acrt_stdio_flush_nolock 00000001800469f4     libucrt:fflush.obj
 0002:0000e9f4       $unwind$?type_case_n@?$output_processor@DV?$stream_output_adapter@D@__crt_stdio_output@@V?$standard_base@DV?$stream_output_adapter@D@__crt_stdio_output@@@2@@__crt_stdio_output@@AEAA_NXZ 00000001800469f4     libucrt:output.obj
 0002:0000e9f4       $unwind$?getLastChar@pairNode@@UEBADXZ 00000001800469f4     libvcruntime:undname.obj
 0002:0000e9f4       $unwind$?_Tidy@?$deque@PEAVtask@tbb@@V?$tbb_allocator@PEAVtask@tbb@@@2@@std@@IEAAXXZ 00000001800469f4     arena.obj
 0002:0000e9f4       $unwind$?free_crt_array_internal@@YAXQEAPEBX_K@Z 00000001800469f4     libucrt:inittime.obj
 0002:0000e9f4       $unwind$??0pcharNode@@QEAA@PEBDH@Z 00000001800469f4     libvcruntime:undname.obj
 0002:0000e9f4       $unwind$??R<lambda_9a20e10065b92b5193c3597a66cba9d4>@@QEBAHXZ 00000001800469f4     libucrt:fputs.obj
 0002:0000e9f4       $unwind$?type_case_n@?$output_processor@DV?$string_output_adapter@D@__crt_stdio_output@@V?$format_validation_base@DV?$string_output_adapter@D@__crt_stdio_output@@@2@@__crt_stdio_output@@AEAA_NXZ 00000001800469f4     libucrt:output.obj
 0002:0000e9f4       $unwind$??0captured_exception@tbb@@QEAA@AEBV01@@Z 00000001800469f4     task_group_context.obj
 0002:0000e9f4       $unwind$??$common_lseek_nolock@_J@@YA_JH_JH@Z 00000001800469f4     libucrt:lseek.obj
 0002:0000e9f4       $unwind$??0DName@@QEAA@AEAPEBDD@Z 00000001800469f4     libvcruntime:undname.obj
 0002:0000e9f4       $unwind$_RTC_Terminate     00000001800469f4     LIBCMT:_initsect_.obj
 0002:0000e9f4       $unwind$?doPchar@DName@@AEAAXPEBDH@Z 00000001800469f4     libvcruntime:undname.obj
 0002:0000e9f4       $unwind$?insert@observer_list@internal@tbb@@QEAAXPEAVobserver_proxy@23@@Z 00000001800469f4     observer_proxy.obj
 0002:0000e9f4       $unwind$??YDName@@QEAAAEAV0@PEBD@Z 00000001800469f4     libvcruntime:undname.obj
 0002:0000e9f4       $unwind$_RTC_Initialize    00000001800469f4     LIBCMT:_initsect_.obj
 0002:0000e9f4       $unwind$?move_v3@internal@tbb@@YAXAEAVtbb_thread_v3@12@0@Z 00000001800469f4     tbb_thread.obj
 0002:0000e9f4       $unwind$__acrt_stdio_flush_and_write_narrow_nolock 00000001800469f4     libucrt:_flsbuf.obj
 0002:0000e9f4       $unwind$?tally_completion_of_predecessor@?$custom_scheduler@UDefaultSchedulerTraits@internal@tbb@@@internal@tbb@@AEAAXAEAVtask@3@AEAPEAV43@@Z 00000001800469f4     scheduler.obj
 0002:0000e9f4       $unwind$?type_case_Z@?$output_processor@DV?$string_output_adapter@D@__crt_stdio_output@@V?$format_validation_base@DV?$string_output_adapter@D@__crt_stdio_output@@@2@@__crt_stdio_output@@AEAA_NXZ 00000001800469f4     libucrt:output.obj
 0002:0000e9f4       $unwind$__acrt_execute_uninitializers 00000001800469f4     libucrt:shared_initialization.obj
 0002:0000e9f4       $unwind$?internal_finish_clear@concurrent_queue_base_v3@internal@tbb@@IEAAXXZ 00000001800469f4     concurrent_queue.obj
 0002:0000e9f4       $unwind$__acrt_FlsSetValue 00000001800469f4     libucrt:winapi_thunks.obj
 0002:0000e9f4       $unwind$??R<lambda_ad1ced32f4ac17aa236e5ef05d6b3b7c>@@QEBAXXZ 00000001800469f4     libucrt:mbctype.obj
 0002:0000e9f4       $unwind$_initterm_e        00000001800469f4     libucrt:initterm.obj
 0002:0000e9f4       $unwind$__acrt_LocaleNameToLCID 00000001800469f4     libucrt:winapi_thunks.obj
 0002:0000e9f4       $unwind$_exception_enabled 00000001800469f4     libucrt:libm_error.obj
 0002:0000e9f4       $unwind$??$common_getenv_nolock@D@@YAPEADQEBD@Z 00000001800469f4     libucrt:getenv.obj
 0002:0000e9f4       $unwind$?internal_enqueue@task_arena_base@internal@interface7@tbb@@IEBAXAEAVtask@4@_J@Z 00000001800469f4     arena.obj
 0002:0000e9f4       $unwind$?__itt_heap_allocate_begin_init_3_0@@YAXPEAX_KH@Z 00000001800469f4     itt_notify.obj
 0002:0000e9f4       $unwind$?create_thread_parameter@@YAPEAU__acrt_thread_parameter@@QEAX0@Z 00000001800469f4     libucrt:thread.obj
 0002:0000e9f4       $unwind$?process@market@internal@tbb@@EEAAXAEAVjob@rml@@@Z 00000001800469f4     market.obj
 0002:0000e9f4       $unwind$?type_case_n@?$output_processor@DV?$string_output_adapter@D@__crt_stdio_output@@V?$standard_base@DV?$string_output_adapter@D@__crt_stdio_output@@@2@@__crt_stdio_output@@AEAA_NXZ 00000001800469f4     libucrt:output.obj
 0002:0000ea04       $unwind$?allocate@allocate_additional_child_of_proxy@internal@tbb@@QEBAAEAVtask@3@_K@Z 0000000180046a04     task.obj
 0002:0000ea04       $unwind$??0?$padded@U?$queue_and_mutex@PEAVtask@tbb@@Vspin_mutex@2@@internal@tbb@@$0IA@@internal@tbb@@QEAA@XZ 0000000180046a04     arena.obj
 0002:0000ea04       $unwind$?release_resources@governor@internal@tbb@@CAXXZ 0000000180046a04     governor.obj
 0002:0000ea04       $unwind$?remove_ref@observer_list@internal@tbb@@QEAAXPEAVobserver_proxy@23@@Z 0000000180046a04     observer_proxy.obj
 0002:0000ea04       $unwind$__acrt_is_packaged_app 0000000180046a04     libucrt:winapi_thunks.obj
 0002:0000ea04       $unwind$??0concurrent_queue_iterator_base@internal@tbb@@IEAA@AEBVconcurrent_queue_base@12@@Z 0000000180046a04     concurrent_queue_v2.obj
 0002:0000ea04       $unwind$?allocate@allocate_child_proxy@internal@tbb@@QEBAAEAVtask@3@_K@Z 0000000180046a04     task.obj
 0002:0000ea04       $unwind$??YDName@@QEAAAEAV0@D@Z 0000000180046a04     libvcruntime:undname.obj
 0002:0000ea04       $unwind$?free@allocate_additional_child_of_proxy@internal@tbb@@QEBAXAEAVtask@3@@Z 0000000180046a04     task.obj
 0002:0000ea04       $unwind$?change_group@task@tbb@@QEAAXAEAVtask_group_context@2@@Z 0000000180046a04     task.obj
 0002:0000ea04       $unwind$?allocate@tbb_exception_ptr@internal@tbb@@SAPEAV123@AEAVcaptured_exception@3@@Z 0000000180046a04     task_group_context.obj
 0002:0000ea04       $unwind$?allocate@allocate_continuation_proxy@internal@tbb@@QEBAAEAVtask@3@_K@Z 0000000180046a04     task.obj
 0002:0000ea04       $unwind$?destroy@task_base@internal@interface5@tbb@@SAXAEAVtask@4@@Z 0000000180046a04     task.obj
 0002:0000ea04       $unwind$?assign@concurrent_queue_iterator_base_v3@internal@tbb@@IEAAXAEBV123@@Z 0000000180046a04     concurrent_queue.obj
 0002:0000ea04       $unwind$?start_shutdown@private_worker@rml@internal@tbb@@AEAAXXZ 0000000180046a04     private_server.obj
 0002:0000ea10       $chain$0$?assign@concurrent_queue_iterator_base_v3@internal@tbb@@IEAAXAEBV123@@Z 0000000180046a10     concurrent_queue.obj
 0002:0000ea24       $chain$1$?assign@concurrent_queue_iterator_base_v3@internal@tbb@@IEAAXAEBV123@@Z 0000000180046a24     concurrent_queue.obj
 0002:0000ea34       $unwind$??1concurrent_queue_iterator_base_v3@internal@tbb@@IEAA@XZ 0000000180046a34     concurrent_queue.obj
 0002:0000ea48       $ip2state$??1concurrent_queue_iterator_base_v3@internal@tbb@@IEAA@XZ 0000000180046a48     concurrent_queue.obj
 0002:0000ea50       $unwind$??$notify_relaxed@Upredicate_leq@internal@tbb@@@concurrent_monitor@internal@tbb@@QEAAXAEBUpredicate_leq@12@@Z 0000000180046a50     concurrent_queue.obj
 0002:0000ea5c       $chain$0$??$notify_relaxed@Upredicate_leq@internal@tbb@@@concurrent_monitor@internal@tbb@@QEAAXAEBUpredicate_leq@12@@Z 0000000180046a5c     concurrent_queue.obj
 0002:0000ea70       $chain$2$??$notify_relaxed@Upredicate_leq@internal@tbb@@@concurrent_monitor@internal@tbb@@QEAAXAEBUpredicate_leq@12@@Z 0000000180046a70     concurrent_queue.obj
 0002:0000ea88       $chain$3$??$notify_relaxed@Upredicate_leq@internal@tbb@@@concurrent_monitor@internal@tbb@@QEAAXAEBUpredicate_leq@12@@Z 0000000180046a88     concurrent_queue.obj
 0002:0000ea9c       $chain$4$??$notify_relaxed@Upredicate_leq@internal@tbb@@@concurrent_monitor@internal@tbb@@QEAAXAEBUpredicate_leq@12@@Z 0000000180046a9c     concurrent_queue.obj
 0002:0000eaac       $chain$5$??$notify_relaxed@Upredicate_leq@internal@tbb@@@concurrent_monitor@internal@tbb@@QEAAXAEBUpredicate_leq@12@@Z 0000000180046aac     concurrent_queue.obj
 0002:0000eabc       $unwind$?downgrade_to_reader@scoped_lock@queuing_rw_mutex@tbb@@QEAA_NXZ 0000000180046abc     queuing_rw_mutex.obj
 0002:0000eabc       $unwind$?bind_to@task_group_context@tbb@@QEAAXPEAVgeneric_scheduler@internal@2@@Z 0000000180046abc     task_group_context.obj
 0002:0000eabc       $unwind$??$atomic_do_once@P6A_NXZ@internal@tbb@@YAXAEBQ6A_NXZAEAU?$atomic@W4do_once_state@internal@tbb@@@1@@Z 0000000180046abc     governor.obj
 0002:0000eabc       $unwind$?internal_upgrade@spin_rw_mutex_v3@tbb@@AEAA_NXZ 0000000180046abc     spin_rw_mutex.obj
 0002:0000eabc       $unwind$?internal_initialize_condition_variable@internal@interface5@tbb@@YAXAEATcondvar_impl_t@123@@Z 0000000180046abc     condition_variable.obj
 0002:0000eabc       $unwind$?join@tbb_thread_v3@internal@tbb@@QEAAXXZ 0000000180046abc     tbb_thread.obj
 0002:0000eabc       $unwind$?duplicate_string@tbb@@YAPEADPEBD@Z 0000000180046abc     task_group_context.obj
 0002:0000eabc       $unwind$?unblock_or_wait_on_internal_lock@scoped_lock@queuing_rw_mutex@tbb@@AEAAX_K@Z 0000000180046abc     queuing_rw_mutex.obj
 0002:0000eabc       $unwind$?acquire_segment@helper@concurrent_vector_base_v3@internal@tbb@@SAAEAVsegment_t@234@AEAV234@_K1_N@Z 0000000180046abc     concurrent_vector.obj
 0002:0000eabc       $unwind$??0input_buffer@internal@tbb@@QEAA@_N0@Z 0000000180046abc     pipeline.obj
 0002:0000eabc       $unwind$?internal_upgrade@spin_rw_mutex@tbb@@CA_NPEAV12@@Z 0000000180046abc     spin_rw_mutex_v2.obj
 0002:0000eac4       $chain$0$?acquire_segment@helper@concurrent_vector_base_v3@internal@tbb@@SAAEAVsegment_t@234@AEAV234@_K1_N@Z 0000000180046ac4     concurrent_vector.obj
 0002:0000ead8       $chain$1$?acquire_segment@helper@concurrent_vector_base_v3@internal@tbb@@SAAEAVsegment_t@234@AEAV234@_K1_N@Z 0000000180046ad8     concurrent_vector.obj
 0002:0000eae8       $unwind$??1helper@concurrent_vector_base_v3@internal@tbb@@QEAA@XZ 0000000180046ae8     concurrent_vector.obj
 0002:0000eaf8       $ip2state$??1helper@concurrent_vector_base_v3@internal@tbb@@QEAA@XZ 0000000180046af8     concurrent_vector.obj
 0002:0000eb00       $unwind$?extend_segment_table@helper@concurrent_vector_base_v3@internal@tbb@@SAXAEAV234@_K@Z 0000000180046b00     concurrent_vector.obj
 0002:0000eb0c       $chain$1$?extend_segment_table@helper@concurrent_vector_base_v3@internal@tbb@@SAXAEAV234@_K@Z 0000000180046b0c     concurrent_vector.obj
 0002:0000eb24       $chain$2$?extend_segment_table@helper@concurrent_vector_base_v3@internal@tbb@@SAXAEAV234@_K@Z 0000000180046b24     concurrent_vector.obj
 0002:0000eb38       $chain$3$?extend_segment_table@helper@concurrent_vector_base_v3@internal@tbb@@SAXAEAV234@_K@Z 0000000180046b38     concurrent_vector.obj
 0002:0000eb48       $chain$4$?extend_segment_table@helper@concurrent_vector_base_v3@internal@tbb@@SAXAEAV234@_K@Z 0000000180046b48     concurrent_vector.obj
 0002:0000eb58       $unwind$?enable_segment@helper@concurrent_vector_base_v3@internal@tbb@@SA_KAEAV234@_K1_N@Z 0000000180046b58     concurrent_vector.obj
 0002:0000eb7c       $stateUnwindMap$?enable_segment@helper@concurrent_vector_base_v3@internal@tbb@@SA_KAEAV234@_K1_N@Z 0000000180046b7c     concurrent_vector.obj
 0002:0000eb98       $ip2state$?enable_segment@helper@concurrent_vector_base_v3@internal@tbb@@SA_KAEAV234@_K1_N@Z 0000000180046b98     concurrent_vector.obj
 0002:0000ebc0       $unwind$??1segment_scope_guard@?1??enable_segment@helper@concurrent_vector_base_v3@internal@tbb@@SA_KAEAV345@_K1_N@Z@QEAA@XZ 0000000180046bc0     concurrent_vector.obj
 0002:0000ebd0       $ip2state$??1segment_scope_guard@?1??enable_segment@helper@concurrent_vector_base_v3@internal@tbb@@SA_KAEAV345@_K1_N@Z@QEAA@XZ 0000000180046bd0     concurrent_vector.obj
 0002:0000ebd8       $unwind$?cleanup@helper@concurrent_vector_base_v3@internal@tbb@@QEAAXXZ 0000000180046bd8     concurrent_vector.obj
 0002:0000ebe4       $chain$4$?cleanup@helper@concurrent_vector_base_v3@internal@tbb@@QEAAXXZ 0000000180046be4     concurrent_vector.obj
 0002:0000ec08       $chain$5$?cleanup@helper@concurrent_vector_base_v3@internal@tbb@@QEAAXXZ 0000000180046c08     concurrent_vector.obj
 0002:0000ec18       $unwind$??1concurrent_vector_base_v3@internal@tbb@@IEAA@XZ 0000000180046c18     concurrent_vector.obj
 0002:0000ec28       $ip2state$??1concurrent_vector_base_v3@internal@tbb@@IEAA@XZ 0000000180046c28     concurrent_vector.obj
 0002:0000ec30       $unwind$?internal_current_slot@task_arena_base@internal@interface7@tbb@@KAHXZ 0000000180046c30     arena.obj
 0002:0000ec30       $unwind$__std_terminate    0000000180046c30     libvcruntime:frame.obj
 0002:0000ec30       $unwind$_set_errno_from_matherr 0000000180046c30     libucrt:fpexcept.obj
 0002:0000ec30       $unwind$?try_acquire@scoped_lock@queuing_mutex@tbb@@QEAA_NAEAV23@@Z 0000000180046c30     queuing_mutex.obj
 0002:0000ec30       $unwind$__dcrt_uninitialize_environments_nolock 0000000180046c30     libucrt:environment_initialization.obj
 0002:0000ec30       $unwind$__acrt_thread_attach 0000000180046c30     libucrt:initialization.obj
 0002:0000ec30       $unwind$__acrt_uninitialize_critical 0000000180046c30     libucrt:initialization.obj
 0002:0000ec30       $unwind$_isatty            0000000180046c30     libucrt:isatty.obj
 0002:0000ec30       $unwind$__acrt_thread_detach 0000000180046c30     libucrt:initialization.obj
 0002:0000ec30       $unwind$_GetImageBase      0000000180046c30     libvcruntime:trnsctrl.obj
 0002:0000ec30       $unwind$__itt_fini_ittlib  0000000180046c30     itt_notify.obj
 0002:0000ec30       $unwind$__vcrt_initialize  0000000180046c30     libvcruntime:initialization.obj
 0002:0000ec30       $unwind$__pctype_func      0000000180046c30     libucrt:ctype.obj
 0002:0000ec30       $unwind$?is_malloc_used_v3@internal@tbb@@YA_NXZ 0000000180046c30     cache_aligned_allocator.obj
 0002:0000ec30       $unwind$?init_condvar_module@internal@tbb@@YAXXZ 0000000180046c30     condition_variable.obj
 0002:0000ec30       $unwind$_errno             0000000180046c30     libucrt:errno.obj
 0002:0000ec30       $unwind$?__itt_model_disable_pop_init_3_0@@YAXXZ 0000000180046c30     itt_notify.obj
 0002:0000ec30       $unwind$?__itt_thr_ignore_init_3_0@@YAXXZ 0000000180046c30     itt_notify.obj
 0002:0000ec30       $unwind$initialize_c       0000000180046c30     libucrt:initialization.obj
 0002:0000ec30       $unwind$__vcrt_uninitialize 0000000180046c30     libvcruntime:initialization.obj
 0002:0000ec30       $unwind$uninitialize_environment 0000000180046c30     libucrt:initialization.obj
 0002:0000ec30       $unwind$__FrameUnwindFilter 0000000180046c30     libvcruntime:frame.obj
 0002:0000ec30       $unwind$__acrt_initialize_ptd 0000000180046c30     libucrt:per_thread_data.obj
 0002:0000ec30       $unwind$?initialize_cache_aligned_allocator@internal@tbb@@YAXXZ 0000000180046c30     cache_aligned_allocator.obj
 0002:0000ec30       $unwind$__vcrt_uninitialize_critical 0000000180046c30     libvcruntime:initialization.obj
 0002:0000ec30       $unwind$__report_rangecheckfailure 0000000180046c30     LIBCMT:gs_report.obj
 0002:0000ec30       $unwind$__scrt_initialize_default_local_stdio_options 0000000180046c30     LIBCMT:default_local_stdio_options.obj
 0002:0000ec30       $unwind$__vcrt_freefls     0000000180046c30     libvcruntime:per_thread_data.obj
 0002:0000ec30       $unwind$_statfp            0000000180046c30     libucrt:fpctrl.obj
 0002:0000ec30       $unwind$__acrt_initialize_heap 0000000180046c30     libucrt:heap_handle.obj
 0002:0000ec30       $unwind$__vcrt_thread_attach 0000000180046c30     libvcruntime:initialization.obj
 0002:0000ec30       $unwind$__scrt_dllmain_crt_thread_detach 0000000180046c30     LIBCMT:utility.obj
 0002:0000ec30       $unwind$__acrt_DownlevelLocaleNameToLCID 0000000180046c30     libucrt:lcidtoname_downlevel.obj
 0002:0000ec30       $unwind$?__itt_heap_record_memory_growth_begin_init_3_0@@YAXXZ 0000000180046c30     itt_notify.obj
 0002:0000ec30       $unwind$?__itt_heap_internal_access_end_init_3_0@@YAXXZ 0000000180046c30     itt_notify.obj
 0002:0000ec30       $unwind$__scrt_dllmain_crt_thread_attach 0000000180046c30     LIBCMT:utility.obj
 0002:0000ec30       $unwind$?internal_try_acquire_writer@spin_rw_mutex_v3@tbb@@AEAA_NXZ 0000000180046c30     spin_rw_mutex.obj
 0002:0000ec30       $unwind$__vcrt_thread_detach 0000000180046c30     libvcruntime:initialization.obj
 0002:0000ec30       $unwind$??__E?m_badAllocExceptionPtr@__ExceptionPtr@@0V?$shared_ptr@V__ExceptionPtr@@@std@@A@@YAXXZ 0000000180046c30     libcpmt:excptptr.obj
 0002:0000ec30       $unwind$__scrt_dllmain_uninitialize_critical 0000000180046c30     LIBCMT:utility.obj
 0002:0000ec30       $unwind$?_StaticAlloc@@YAPEAX_K@Z 0000000180046c30     libcpmt:excptptr.obj
 0002:0000ec30       $unwind$__scrt_dllmain_uninitialize_c 0000000180046c30     LIBCMT:utility.obj
 0002:0000ec30       $unwind$?internal_try_acquire_reader@spin_rw_mutex_v3@tbb@@AEAA_NXZ 0000000180046c30     spin_rw_mutex.obj
 0002:0000ec30       $unwind$__scrt_dllmain_after_initialize_c 0000000180046c30     LIBCMT:utility.obj
 0002:0000ec30       $unwind$_get_osfhandle     0000000180046c30     libucrt:osfinfo.obj
 0002:0000ec30       $unwind$__acrt_uninitialize_ptd 0000000180046c30     libucrt:per_thread_data.obj
 0002:0000ec30       $unwind$?try_acquire@scoped_lock@queuing_rw_mutex@tbb@@QEAA_NAEAV23@_N@Z 0000000180046c30     queuing_rw_mutex.obj
 0002:0000ec30       $unwind$__scrt_dllmain_before_initialize_c 0000000180046c30     LIBCMT:utility.obj
 0002:0000ec30       $unwind$?__itt_get_timestamp_init_3_0@@YA_KXZ 0000000180046c30     itt_notify.obj
 0002:0000ec30       $unwind$?__itt_suppress_pop_init_3_0@@YAXXZ 0000000180046c30     itt_notify.obj
 0002:0000ec30       $unwind$?__itt_pause_init_3_0@@YAXXZ 0000000180046c30     itt_notify.obj
 0002:0000ec30       $unwind$__acrt_release_locale_ref 0000000180046c30     libucrt:locale_refcounting.obj
 0002:0000ec30       $unwind$?__itt_clock_domain_reset_init_3_0@@YAXXZ 0000000180046c30     itt_notify.obj
 0002:0000ec30       $unwind$?initialize_multibyte@@YAHXZ 0000000180046c30     libucrt:multibyte_initializer.obj
 0002:0000ec30       $unwind$__dcrt_terminate_console_output 0000000180046c30     libucrt:initcon.obj
 0002:0000ec30       $unwind$__current_exception 0000000180046c30     libvcruntime:frame.obj
 0002:0000ec30       $unwind$?internal_try_acquire_reader@spin_rw_mutex@tbb@@CA_NPEAV12@@Z 0000000180046c30     spin_rw_mutex_v2.obj
 0002:0000ec30       $unwind$?getTypeEncoding@UnDecorator@@CAHXZ 0000000180046c30     libvcruntime:undname.obj
 0002:0000ec30       $unwind$?internal_try_acquire_writer@spin_rw_mutex@tbb@@CA_NPEAV12@@Z 0000000180046c30     spin_rw_mutex_v2.obj
 0002:0000ec30       $unwind$?__itt_detach_init_3_0@@YAXXZ 0000000180046c30     itt_notify.obj
 0002:0000ec30       $unwind$?get_initial_auto_partitioner_divisor@internal@tbb@@YA_KXZ 0000000180046c30     task.obj
 0002:0000ec30       $unwind$?__ExceptionPtrRethrow@@YAXPEBX@Z 0000000180046c30     libcpmt:excptptr.obj
 0002:0000ec30       $unwind$?state_case_size@?$output_processor@DV?$string_output_adapter@D@__crt_stdio_output@@V?$format_validation_base@DV?$string_output_adapter@D@__crt_stdio_output@@@2@@__crt_stdio_output@@AEAA_NXZ 0000000180046c30     libucrt:output.obj
 0002:0000ec30       $unwind$?__itt_resume_init_3_0@@YAXXZ 0000000180046c30     itt_notify.obj
 0002:0000ec30       $unwind$?__itt_heap_record_memory_growth_end_init_3_0@@YAXXZ 0000000180046c30     itt_notify.obj
 0002:0000ec30       $unwind$__scrt_acquire_startup_lock 0000000180046c30     LIBCMT:utility.obj
 0002:0000ec30       $unwind$??$uninitialize_environment_internal@D@@YAXAEAPEAPEAD@Z 0000000180046c30     libucrt:environment_initialization.obj
 0002:0000ec30       $unwind$?state_case_size@?$output_processor@DV?$stream_output_adapter@D@__crt_stdio_output@@V?$standard_base@DV?$stream_output_adapter@D@__crt_stdio_output@@@2@@__crt_stdio_output@@AEAA_NXZ 0000000180046c30     libucrt:output.obj
 0002:0000ec30       $unwind$_GetThrowImageBase 0000000180046c30     libvcruntime:trnsctrl.obj
 0002:0000ec30       $unwind$_strnicmp          0000000180046c30     libucrt:strnicmp.obj
 0002:0000ec30       $unwind$?__itt_api_version_init_3_0@@YAPEBDXZ 0000000180046c30     itt_notify.obj
 0002:0000ec30       $unwind$?state_case_normal_tchar@?$output_processor@DV?$string_output_adapter@D@__crt_stdio_output@@V?$format_validation_base@DV?$string_output_adapter@D@__crt_stdio_output@@@2@@__crt_stdio_output@@AEAA_ND@Z 0000000180046c30     libucrt:output.obj
 0002:0000ec30       $unwind$?__itt_state_get_init_3_0@@YAHXZ 0000000180046c30     itt_notify.obj
 0002:0000ec30       $unwind$_endthreadex       0000000180046c30     libucrt:thread.obj
 0002:0000ec30       $unwind$?__itt_stack_caller_create_init_3_0@@YAPEAU___itt_caller@@XZ 0000000180046c30     itt_notify.obj
 0002:0000ec30       $unwind$_invoke_watson     0000000180046c30     libucrt:invalid_parameter.obj
 0002:0000ec30       $unwind$atexit             0000000180046c30     LIBCMT:utility.obj
 0002:0000ec30       $unwind$?default_concurrency@private_server@rml@internal@tbb@@UEBAIXZ 0000000180046c30     private_server.obj
 0002:0000ec30       $unwind$?__ExceptionPtrCopy@@YAXPEAXPEBX@Z 0000000180046c30     libcpmt:excptptr.obj
 0002:0000ec30       $unwind$_getfpstatusword   0000000180046c30     libucrt:_fenvutils.obj
 0002:0000ec30       $unwind$__vcrt_initialize_ptd 0000000180046c30     libvcruntime:per_thread_data.obj
 0002:0000ec30       $unwind$?default_num_threads@task_scheduler_init@tbb@@SAHXZ 0000000180046c30     governor.obj
 0002:0000ec30       $unwind$__acrt_initialize_command_line 0000000180046c30     libucrt:argv_data.obj
 0002:0000ec30       $unwind$_getfpcontrolword  0000000180046c30     libucrt:_fenvutils.obj
 0002:0000ec30       $unwind$abort              0000000180046c30     libucrt:abort.obj
 0002:0000ec30       $unwind$?acknowledge_close_connection@market@internal@tbb@@EEAAXXZ 0000000180046c30     market.obj
 0002:0000ec30       $unwind$??$uninitialize_environment_internal@_W@@YAXAEAPEAPEA_W@Z 0000000180046c30     libucrt:environment_initialization.obj
 0002:0000ec30       $unwind$?self@task@tbb@@SAAEAV12@XZ 0000000180046c30     task.obj
 0002:0000ec30       $unwind$?dllmain_crt_dispatch@@YAHQEAUHINSTANCE__@@KQEAX@Z 0000000180046c30     LIBCMT:dll_dllmain.obj
 0002:0000ec30       $unwind$?state_case_normal_tchar@?$output_processor@DV?$string_output_adapter@D@__crt_stdio_output@@V?$standard_base@DV?$string_output_adapter@D@__crt_stdio_output@@@2@@__crt_stdio_output@@AEAA_ND@Z 0000000180046c30     libucrt:output.obj
 0002:0000ec30       $unwind$__vcrt_uninitialize_ptd 0000000180046c30     libvcruntime:per_thread_data.obj
 0002:0000ec30       $unwind$?__itt_model_site_end_2_init_3_0@@YAXXZ 0000000180046c30     itt_notify.obj
 0002:0000ec30       $unwind$_fileno            0000000180046c30     libucrt:fileno.obj
 0002:0000ec30       $unwind$?atomic_once@internal@tbb@@YAXP6AXXZAEAU?$atomic@W4do_once_state@internal@tbb@@@2@@Z 0000000180046c30     dynamic_link.obj
 0002:0000ec30       $unwind$?__itt_heap_internal_access_begin_init_3_0@@YAXXZ 0000000180046c30     itt_notify.obj
 0002:0000ec30       $unwind$?state_case_size@?$output_processor@DV?$string_output_adapter@D@__crt_stdio_output@@V?$standard_base@DV?$string_output_adapter@D@__crt_stdio_output@@@2@@__crt_stdio_output@@AEAA_NXZ 0000000180046c30     libucrt:output.obj
 0002:0000ec30       $unwind$__GSHandlerCheck   0000000180046c30     LIBCMT:_gshandler_.obj
 0002:0000ec30       $unwind$_msize             0000000180046c30     libucrt:msize.obj
 0002:0000ec30       $unwind$?default_value@allowed_parallelism_control@internal@tbb@@EEBA_KXZ 0000000180046c30     tbb_main.obj
 0002:0000ec30       $unwind$?validate_stream_is_ansi_if_required@?$__acrt_stdio_char_traits@D@@SA_NQEAU_iobuf@@@Z 0000000180046c30     libucrt:output.obj
 0002:0000ec30       $unwind$?internal_throw_exception@concurrent_vector_base_v3@internal@tbb@@IEBAX_K@Z 0000000180046c30     concurrent_vector.obj
 0002:0000ec30       $unwind$__vcrt_getptd      0000000180046c30     libvcruntime:per_thread_data.obj
 0002:0000ec30       $unwind$?local_scheduler_weak@governor@internal@tbb@@SAPEAVgeneric_scheduler@23@XZ 0000000180046c30     task.obj
 0002:0000ec30       $unwind$?init_ap_data@internal@tbb@@YAXXZ 0000000180046c30     dynamic_link.obj
 0002:0000ec30       $unwind$?AvailableHwConcurrency@internal@tbb@@YAHXZ 0000000180046c30     tbb_misc_ex.obj
 0002:0000ec30       $unwind$?__GetCurrentState@@YAHPEA_KPEAU_xDISPATCHER_CONTEXT@@PEBU_s_FuncInfo@@@Z 0000000180046c30     libvcruntime:ehstate.obj
 0002:0000ec30       $unwind$__doserrno         0000000180046c30     libucrt:errno.obj
 0002:0000ec30       $unwind$tolower            0000000180046c30     libucrt:tolower_toupper.obj
 0002:0000ec30       $unwind$__acrt_initialize_multibyte 0000000180046c30     libucrt:mbctype.obj
 0002:0000ec30       $unwind$__processing_throw 0000000180046c30     libvcruntime:frame.obj
 0002:0000ec30       $unwind$?__itt_thread_ignore_init_3_0@@YAXXZ 0000000180046c30     itt_notify.obj
 0002:0000ec30       $unwind$?initialize_handler_pointers@internal@tbb@@YAXXZ 0000000180046c30     cache_aligned_allocator.obj
 0002:0000ec30       $unwind$?__itt_model_task_end_2_init_3_0@@YAXXZ 0000000180046c30     itt_notify.obj
 0002:0000ec38       $unwind$?get_task@generic_scheduler@internal@tbb@@QEAAPEAVtask@3@XZ 0000000180046c38     scheduler.obj
 0002:0000ec38       $unwind$?internal_reserve@concurrent_vector_base_v3@internal@tbb@@IEAAX_K00@Z 0000000180046c38     concurrent_vector.obj
 0002:0000ec4c       $unwind$?internal_copy@concurrent_vector_base_v3@internal@tbb@@IEAAXAEBV123@_KP6AXPEAXPEBX1@Z@Z 0000000180046c4c     concurrent_vector.obj
 0002:0000ec5c       $chain$1$?internal_copy@concurrent_vector_base_v3@internal@tbb@@IEAAXAEBV123@_KP6AXPEAXPEBX1@Z@Z 0000000180046c5c     concurrent_vector.obj
 0002:0000ec74       $chain$2$?internal_copy@concurrent_vector_base_v3@internal@tbb@@IEAAXAEBV123@_KP6AXPEAXPEBX1@Z@Z 0000000180046c74     concurrent_vector.obj
 0002:0000ec88       $chain$3$?internal_copy@concurrent_vector_base_v3@internal@tbb@@IEAAXAEBV123@_KP6AXPEAXPEBX1@Z@Z 0000000180046c88     concurrent_vector.obj
 0002:0000ec98       $chain$4$?internal_copy@concurrent_vector_base_v3@internal@tbb@@IEAAXAEBV123@_KP6AXPEAXPEBX1@Z@Z 0000000180046c98     concurrent_vector.obj
 0002:0000eca8       $unwind$?internal_assign@concurrent_vector_base_v3@internal@tbb@@IEAAXAEBV123@_KP6AXPEAX1@ZP6AX2PEBX1@Z5@Z 0000000180046ca8     concurrent_vector.obj
 0002:0000ecc0       $unwind$?internal_grow_to_at_least_with_result@concurrent_vector_base_v3@internal@tbb@@IEAA_K_K0P6AXPEAXPEBX0@Z2@Z 0000000180046cc0     concurrent_vector.obj
 0002:0000ecc0       $unwind$??$create_environment@D@@YAQEAPEADQEAD@Z 0000000180046cc0     libucrt:environment_initialization.obj
 0002:0000ecd8       $unwind$??0length_error@std@@QEAA@PEBD@Z 0000000180046cd8     tbb_misc.obj
 0002:0000ecd8       $unwind$__itt_init_ittlib  0000000180046cd8     itt_notify.obj
 0002:0000ecd8       $unwind$strtol             0000000180046cd8     libucrt:strtox.obj
 0002:0000ecd8       $unwind$__stdio_common_vsprintf_s 0000000180046cd8     libucrt:output.obj
 0002:0000ecd8       $unwind$?sign_on@governor@internal@tbb@@SAXPEAVgeneric_scheduler@23@@Z 0000000180046cd8     governor.obj
 0002:0000ecd8       $unwind$?internal_grow_by@concurrent_vector_base_v3@internal@tbb@@IEAA_K_K0P6AXPEAXPEBX0@Z2@Z 0000000180046cd8     concurrent_vector.obj
 0002:0000ecd8       $unwind$?process@arena@internal@tbb@@QEAAXAEAVgeneric_scheduler@23@@Z 0000000180046cd8     arena.obj
 0002:0000ecd8       $unwind$?internal_grow_by@concurrent_vector_base@internal@tbb@@IEAA_K_K0P6AXPEAX0@Z@Z 0000000180046cd8     concurrent_vector_v2.obj
 0002:0000ecd8       $unwind$?active_value@global_control@interface9@tbb@@CA_KH@Z 0000000180046cd8     tbb_main.obj
 0002:0000ecd8       $unwind$?getArgumentTypes@UnDecorator@@CA?AVDName@@XZ 0000000180046cd8     libvcruntime:undname.obj
 0002:0000ece0       $unwind$?internal_grow@concurrent_vector_base_v3@internal@tbb@@IEAAX_K00P6AXPEAXPEBX0@Z2@Z 0000000180046ce0     concurrent_vector.obj
 0002:0000ed00       $stateUnwindMap$?internal_grow@concurrent_vector_base_v3@internal@tbb@@IEAAX_K00P6AXPEAXPEBX0@Z2@Z 0000000180046d00     concurrent_vector.obj
 0002:0000ed10       $ip2state$?internal_grow@concurrent_vector_base_v3@internal@tbb@@IEAAX_K00P6AXPEAXPEBX0@Z2@Z 0000000180046d10     concurrent_vector.obj
 0002:0000ed30       $unwind$?internal_resize@concurrent_vector_base_v3@internal@tbb@@IEAAX_K00PEBXP6AXPEAX0@ZP6AX210@Z@Z 0000000180046d30     concurrent_vector.obj
 0002:0000ed50       $stateUnwindMap$?internal_resize@concurrent_vector_base_v3@internal@tbb@@IEAAX_K00PEBXP6AXPEAX0@ZP6AX210@Z@Z 0000000180046d50     concurrent_vector.obj
 0002:0000ed68       $ip2state$?internal_resize@concurrent_vector_base_v3@internal@tbb@@IEAAX_K00PEBXP6AXPEAX0@ZP6AX210@Z@Z 0000000180046d68     concurrent_vector.obj
 0002:0000eda0       $unwind$?internal_clear@concurrent_vector_base_v3@internal@tbb@@IEAA_KP6AXPEAX_K@Z@Z 0000000180046da0     concurrent_vector.obj
 0002:0000edb4       $stateUnwindMap$?internal_clear@concurrent_vector_base_v3@internal@tbb@@IEAA_KP6AXPEAX_K@Z@Z 0000000180046db4     concurrent_vector.obj
 0002:0000edc8       $ip2state$?internal_clear@concurrent_vector_base_v3@internal@tbb@@IEAA_KP6AXPEAX_K@Z@Z 0000000180046dc8     concurrent_vector.obj
 0002:0000ede8       $unwind$?internal_compact@concurrent_vector_base_v3@internal@tbb@@IEAAPEAX_KPEAXP6AX10@ZP6AX1PEBX0@Z@Z 0000000180046de8     concurrent_vector.obj
 0002:0000ee08       $stateUnwindMap$?internal_compact@concurrent_vector_base_v3@internal@tbb@@IEAAPEAX_KPEAXP6AX10@ZP6AX1PEBX0@Z@Z 0000000180046e08     concurrent_vector.obj
 0002:0000ee28       $tryMap$?internal_compact@concurrent_vector_base_v3@internal@tbb@@IEAAPEAX_KPEAXP6AX10@ZP6AX1PEBX0@Z@Z 0000000180046e28     concurrent_vector.obj
 0002:0000ee3c       $handlerMap$0$?internal_compact@concurrent_vector_base_v3@internal@tbb@@IEAAPEAX_KPEAXP6AX10@ZP6AX1PEBX0@Z@Z 0000000180046e3c     concurrent_vector.obj
 0002:0000ee50       $ip2state$?internal_compact@concurrent_vector_base_v3@internal@tbb@@IEAAPEAX_KPEAXP6AX10@ZP6AX1PEBX0@Z@Z 0000000180046e50     concurrent_vector.obj
 0002:0000ee80       $unwind$?catch$4@?0??internal_compact@concurrent_vector_base_v3@internal@tbb@@IEAAPEAX_KPEAXP6AX10@ZP6AX1PEBX0@Z@Z@4HA 0000000180046e80     concurrent_vector.obj
 0002:0000ee90       $unwind$?internal_swap@concurrent_vector_base_v3@internal@tbb@@IEAAXAEAV123@@Z 0000000180046e90     concurrent_vector.obj
 0002:0000ee9c       $chain$5$?internal_swap@concurrent_vector_base_v3@internal@tbb@@IEAAXAEAV123@@Z 0000000180046e9c     concurrent_vector.obj
 0002:0000eec4       $chain$6$?internal_swap@concurrent_vector_base_v3@internal@tbb@@IEAAXAEAV123@@Z 0000000180046ec4     concurrent_vector.obj
 0002:0000eee0       $chain$7$?internal_swap@concurrent_vector_base_v3@internal@tbb@@IEAAXAEAV123@@Z 0000000180046ee0     concurrent_vector.obj
 0002:0000eef4       $chain$8$?internal_swap@concurrent_vector_base_v3@internal@tbb@@IEAAXAEAV123@@Z 0000000180046ef4     concurrent_vector.obj
 0002:0000ef04       $unwind$__acrt_locale_free_numeric 0000000180046f04     libucrt:initnum.obj
 0002:0000ef04       $unwind$??$spin_wait_while@Usegment_not_used_predicate@helper@concurrent_vector_base_v3@internal@tbb@@@internal@tbb@@YAXUsegment_not_used_predicate@helper@concurrent_vector_base_v3@01@@Z 0000000180046f04     concurrent_vector.obj
 0002:0000ef04       $unwind$_free_base         0000000180046f04     libucrt:free_base.obj
 0002:0000ef04       $unwind$__acrt_locale_free_lc_time_if_unreferenced 0000000180046f04     libucrt:locale_refcounting.obj
 0002:0000ef04       $unwind$?destroy_fls@@YAXPEAX@Z 0000000180046f04     libucrt:per_thread_data.obj
 0002:0000ef0c       $unwind$?resolve_symbols@internal@tbb@@YA_NPEAUHINSTANCE__@@QEBUdynamic_link_descriptor@12@_K@Z 0000000180046f0c     dynamic_link.obj
 0002:0000ef24       $chain$2$?resolve_symbols@internal@tbb@@YA_NPEAUHINSTANCE__@@QEBUdynamic_link_descriptor@12@_K@Z 0000000180046f24     dynamic_link.obj
 0002:0000ef40       $chain$3$?resolve_symbols@internal@tbb@@YA_NPEAUHINSTANCE__@@QEBUdynamic_link_descriptor@12@_K@Z 0000000180046f40     dynamic_link.obj
 0002:0000ef50       $chain$4$?resolve_symbols@internal@tbb@@YA_NPEAUHINSTANCE__@@QEBUdynamic_link_descriptor@12@_K@Z 0000000180046f50     dynamic_link.obj
 0002:0000ef6c       $chain$1$?atomic_once@internal@tbb@@YAXP6AXXZAEAU?$atomic@W4do_once_state@internal@tbb@@@2@@Z 0000000180046f6c     dynamic_link.obj
 0002:0000ef84       $chain$3$?atomic_once@internal@tbb@@YAXP6AXXZAEAU?$atomic@W4do_once_state@internal@tbb@@@2@@Z 0000000180046f84     dynamic_link.obj
 0002:0000ef9c       $chain$4$?atomic_once@internal@tbb@@YAXP6AXXZAEAU?$atomic@W4do_once_state@internal@tbb@@@2@@Z 0000000180046f9c     dynamic_link.obj
 0002:0000efac       $chain$0$?init_ap_data@internal@tbb@@YAXXZ 0000000180046fac     dynamic_link.obj
 0002:0000efc0       $chain$2$?init_ap_data@internal@tbb@@YAXXZ 0000000180046fc0     dynamic_link.obj
 0002:0000efd4       $unwind$?dynamic_load@internal@tbb@@YAPEAUHINSTANCE__@@PEBDQEBUdynamic_link_descriptor@12@_K@Z 0000000180046fd4     dynamic_link.obj
 0002:0000eff0       $chain$0$?dynamic_load@internal@tbb@@YAPEAUHINSTANCE__@@PEBDQEBUdynamic_link_descriptor@12@_K@Z 0000000180046ff0     dynamic_link.obj
 0002:0000f004       $chain$1$?dynamic_load@internal@tbb@@YAPEAUHINSTANCE__@@PEBDQEBUdynamic_link_descriptor@12@_K@Z 0000000180047004     dynamic_link.obj
 0002:0000f014       $unwind$?dynamic_link@internal@tbb@@YA_NPEBDQEBUdynamic_link_descriptor@12@_KPEAPEAUHINSTANCE__@@H@Z 0000000180047014     dynamic_link.obj
 0002:0000f028       $unwind$?__itt_markA_init_3_0@@YAHHPEBD@Z 0000000180047028     itt_notify.obj
 0002:0000f028       $unwind$?wait_for_all@?$custom_scheduler@UDefaultSchedulerTraits@internal@tbb@@@internal@tbb@@EEAAXAEAVtask@3@PEAV43@@Z 0000000180047028     scheduler.obj
 0002:0000f028       $unwind$?__itt_event_createA_init_3_0@@YAHPEBDH@Z 0000000180047028     itt_notify.obj
 0002:0000f028       $unwind$??_Gpipeline@tbb@@UEAAPEAXI@Z 0000000180047028     pipeline.obj
 0002:0000f028       $unwind$__vcrt_FlsGetValue 0000000180047028     libvcruntime:winapi_downlevel.obj
 0002:0000f028       $unwind$__vcrt_FlsAlloc    0000000180047028     libvcruntime:winapi_downlevel.obj
 0002:0000f028       $unwind$??_Gbad_array_new_length@std@@UEAAPEAXI@Z 0000000180047028     LIBCMT:throw_bad_alloc.obj
 0002:0000f028       $unwind$?wait_for_all@?$custom_scheduler@UIntelSchedulerTraits@internal@tbb@@@internal@tbb@@EEAAXAEAVtask@3@PEAV43@@Z 0000000180047028     scheduler.obj
 0002:0000f028       $unwind$?__itt_sync_renameA_init_3_0@@YAXPEAXPEBD@Z 0000000180047028     itt_notify.obj
 0002:0000f028       $unwind$__vcrt_FlsFree     0000000180047028     libvcruntime:winapi_downlevel.obj
 0002:0000f028       $unwind$?__SetUnwindTryBlock@@YAXPEA_KPEAU_xDISPATCHER_CONTEXT@@PEBU_s_FuncInfo@@H@Z 0000000180047028     libvcruntime:ehstate.obj
 0002:0000f028       $unwind$?__itt_counter_inc_v3_init_3_0@@YAXPEBU___itt_domain@@PEAU___itt_string_handle@@@Z 0000000180047028     itt_notify.obj
 0002:0000f028       $unwind$?type_case_c_tchar@?$output_processor@DV?$string_output_adapter@D@__crt_stdio_output@@V?$standard_base@DV?$string_output_adapter@D@__crt_stdio_output@@@2@@__crt_stdio_output@@AEAA_ND@Z 0000000180047028     libucrt:output.obj
 0002:0000f028       $unwind$?internal_isupper_l@@YA_NHQEAU__crt_locale_pointers@@@Z 0000000180047028     libucrt:tolower_toupper.obj
 0002:0000f028       $unwind$??_Gbad_last_alloc@tbb@@UEAAPEAXI@Z 0000000180047028     tbb_misc.obj
 0002:0000f028       $unwind$??_Gmissing_wait@tbb@@UEAAPEAXI@Z 0000000180047028     tbb_misc.obj
 0002:0000f028       $unwind$??_Ginvalid_multiple_scheduling@tbb@@UEAAPEAXI@Z 0000000180047028     tbb_misc.obj
 0002:0000f028       $unwind$??_Gimproper_lock@tbb@@UEAAPEAXI@Z 0000000180047028     tbb_misc.obj
 0002:0000f028       $unwind$?replace_current_thread_locale_nolock@@YAXQEAU__acrt_ptd@@QEAU__crt_locale_data@@@Z 0000000180047028     libucrt:per_thread_data.obj
 0002:0000f028       $unwind$??_Guser_abort@tbb@@UEAAPEAXI@Z 0000000180047028     tbb_misc.obj
 0002:0000f028       $unwind$??_Grange_error@std@@UEAAPEAXI@Z 0000000180047028     tbb_misc.obj
 0002:0000f028       $unwind$??_Gruntime_error@std@@UEAAPEAXI@Z 0000000180047028     tbb_misc.obj
 0002:0000f028       $unwind$_callnewh          0000000180047028     libucrt:new_handler.obj
 0002:0000f028       $unwind$?free_scheduler@generic_scheduler@internal@tbb@@QEAAXXZ 0000000180047028     scheduler.obj
 0002:0000f028       $unwind$?__itt_event_createW_init_3_0@@YAHPEB_WH@Z 0000000180047028     itt_notify.obj
 0002:0000f028       $unwind$?__itt_sync_renameW_init_3_0@@YAXPEAXPEB_W@Z 0000000180047028     itt_notify.obj
 0002:0000f028       $unwind$??0DName@@QEAA@W4DNameStatus@@@Z 0000000180047028     libvcruntime:undname.obj
 0002:0000f028       $unwind$??_Gout_of_range@std@@UEAAPEAXI@Z 0000000180047028     tbb_misc.obj
 0002:0000f028       $unwind$??_Glength_error@std@@UEAAPEAXI@Z 0000000180047028     tbb_misc.obj
 0002:0000f028       $unwind$??_Ginvalid_argument@std@@UEAAPEAXI@Z 0000000180047028     tbb_misc.obj
 0002:0000f028       $unwind$__acrt_stdio_begin_temporary_buffering_nolock 0000000180047028     libucrt:_sftbuf.obj
 0002:0000f028       $unwind$?internal_set_ref_count@task@tbb@@AEAAXH@Z 0000000180047028     task.obj
 0002:0000f028       $unwind$strncpy_s          0000000180047028     libucrt:strncpy_s.obj
 0002:0000f028       $unwind$_close_nolock      0000000180047028     libucrt:close.obj
 0002:0000f028       $unwind$?calc_workers_soft_limit@internal@tbb@@YAIII@Z 0000000180047028     market.obj
 0002:0000f028       $unwind$?internal_construct@scoped_lock@reader_writer_lock@interface5@tbb@@AEAAXAEAV234@@Z 0000000180047028     reader_writer_lock.obj
 0002:0000f028       $unwind$?__itt_model_site_end_init_3_0@@YAXPEAPEAX0@Z 0000000180047028     itt_notify.obj
 0002:0000f028       $unwind$?__itt_track_group_create_init_3_0@@YAPEAU___itt_track_group@@PEAU___itt_string_handle@@W4___itt_track_group_type@@@Z 0000000180047028     itt_notify.obj
 0002:0000f028       $unwind$??_Gprivate_server@rml@internal@tbb@@EEAAPEAXI@Z 0000000180047028     private_server.obj
 0002:0000f028       $unwind$?__itt_model_task_end_init_3_0@@YAXPEAPEAX0@Z 0000000180047028     itt_notify.obj
 0002:0000f028       $unwind$?_Delete_this@?$_Ref_count_obj_alloc@V__ExceptionPtr@@U?$_StaticAllocator@H@@@std@@EEAAXXZ 0000000180047028     libcpmt:excptptr.obj
 0002:0000f028       $unwind$??$spin_wait_until_eq@EH@internal@tbb@@YAXAEDEH@Z 0000000180047028     queuing_rw_mutex.obj
 0002:0000f028       $unwind$_FindAndUnlinkFrame 0000000180047028     libvcruntime:trnsctrl.obj
 0002:0000f028       $unwind$?__itt_clock_domain_create_init_3_0@@YAPEAU___itt_clock_domain@@P6AXPEAU___itt_clock_info@@PEAX@Z1@Z 0000000180047028     itt_notify.obj
 0002:0000f028       $unwind$_realloc_base      0000000180047028     libucrt:realloc_base.obj
 0002:0000f028       $unwind$?internal_construct@scoped_lock_read@reader_writer_lock@interface5@tbb@@AEAAXAEAV234@@Z 0000000180047028     reader_writer_lock.obj
 0002:0000f028       $unwind$?__itt_model_record_allocation_init_3_0@@YAXPEAX_K@Z 0000000180047028     itt_notify.obj
 0002:0000f028       $unwind$__acrt_getptd      0000000180047028     libucrt:per_thread_data.obj
 0002:0000f028       $unwind$__acrt_invoke_user_matherr 0000000180047028     libucrt:matherr.obj
 0002:0000f028       $unwind$??_Glogic_error@std@@UEAAPEAXI@Z 0000000180047028     tbb_misc.obj
 0002:0000f028       $unwind$??_Gexception@std@@UEAAPEAXI@Z 0000000180047028     tbb_misc.obj
 0002:0000f028       $unwind$??YReplicator@@QEAAAEAV0@AEBVDName@@@Z 0000000180047028     libvcruntime:undname.obj
 0002:0000f028       $unwind$?internal_destroy@scoped_lock_read@reader_writer_lock@interface5@tbb@@AEAAXXZ 0000000180047028     reader_writer_lock.obj
 0002:0000f028       $unwind$?__itt_model_induction_uses_init_3_0@@YAXPEAX_K@Z 0000000180047028     itt_notify.obj
 0002:0000f028       $unwind$_updatetlocinfoEx_nolock 0000000180047028     libucrt:locale_refcounting.obj
 0002:0000f028       $unwind$??_Gconcurrent_queue_base@internal@tbb@@MEAAPEAXI@Z 0000000180047028     concurrent_queue_v2.obj
 0002:0000f028       $unwind$??__F?m_badAllocExceptionPtr@__ExceptionPtr@@0V?$shared_ptr@V__ExceptionPtr@@@std@@A@@YAXXZ 0000000180047028     libcpmt:excptptr.obj
 0002:0000f028       $unwind$??$spin_wait_while_eq@PEAVscoped_lock@reader_writer_lock@interface5@tbb@@PEAV1234@@internal@tbb@@YAXAEDSEAVscoped_lock@reader_writer_lock@interface5@1@PEAV2341@@Z 0000000180047028     reader_writer_lock.obj
 0002:0000f028       $unwind$?__itt_model_reduction_uses_init_3_0@@YAXPEAX_K@Z 0000000180047028     itt_notify.obj
 0002:0000f028       $unwind$?init@thread_context@concurrent_monitor@internal@tbb@@AEAAXXZ 0000000180047028     concurrent_monitor.obj
 0002:0000f028       $unwind$??$spin_wait_while_eq@PEAVscoped_lock@queuing_rw_mutex@tbb@@PEAX@internal@tbb@@YAXAEDSEAVscoped_lock@queuing_rw_mutex@1@PEAX@Z 0000000180047028     queuing_rw_mutex.obj
 0002:0000f028       $unwind$?__itt_model_observe_uses_init_3_0@@YAXPEAX_K@Z 0000000180047028     itt_notify.obj
 0002:0000f028       $unwind$?acquire@scoped_lock@queuing_mutex@tbb@@QEAAXAEAV23@@Z 0000000180047028     queuing_mutex.obj
 0002:0000f028       $unwind$?assign@concurrent_queue_iterator_base@internal@tbb@@IEAAXAEBV123@@Z 0000000180047028     concurrent_queue_v2.obj
 0002:0000f028       $unwind$?__itt_markW_init_3_0@@YAHHPEB_W@Z 0000000180047028     itt_notify.obj
 0002:0000f028       $unwind$?__itt_memory_write_init_3_0@@YAXPEAX_K@Z 0000000180047028     itt_notify.obj
 0002:0000f028       $unwind$?type_case_c_tchar@?$output_processor@DV?$stream_output_adapter@D@__crt_stdio_output@@V?$standard_base@DV?$stream_output_adapter@D@__crt_stdio_output@@@2@@__crt_stdio_output@@AEAA_ND@Z 0000000180047028     libucrt:output.obj
 0002:0000f028       $unwind$?try_cor_exit_process@@YAXI@Z 0000000180047028     libucrt:exit.obj
 0002:0000f028       $unwind$?__itt_mark_globalA_init_3_0@@YAHHPEBD@Z 0000000180047028     itt_notify.obj
 0002:0000f028       $unwind$?__itt_memory_update_init_3_0@@YAXPEAX_K@Z 0000000180047028     itt_notify.obj
 0002:0000f028       $unwind$?__itt_mark_globalW_init_3_0@@YAHHPEB_W@Z 0000000180047028     itt_notify.obj
 0002:0000f028       $unwind$?__itt_frame_end_v3_init_3_0@@YAXPEBU___itt_domain@@PEAU___itt_id@@@Z 0000000180047028     itt_notify.obj
 0002:0000f028       $unwind$?__itt_counter_createA_init_3_0@@YAPEAU___itt_counter@@PEBD0@Z 0000000180047028     itt_notify.obj
 0002:0000f028       $unwind$__acrt_errno_map_os_error 0000000180047028     libucrt:errno.obj
 0002:0000f028       $unwind$?__itt_model_site_beginAL_init_3_0@@YAXPEBD_K@Z 0000000180047028     itt_notify.obj
 0002:0000f028       $unwind$??$common_initialize_environment_nolock@D@@YAHXZ 0000000180047028     libucrt:environment_initialization.obj
 0002:0000f028       $unwind$?__itt_frame_begin_v3_init_3_0@@YAXPEBU___itt_domain@@PEAU___itt_id@@@Z 0000000180047028     itt_notify.obj
 0002:0000f028       $unwind$?getLastChar@pDNameNode@@UEBADXZ 0000000180047028     libvcruntime:undname.obj
 0002:0000f028       $unwind$__acrt_FlsAlloc    0000000180047028     libucrt:winapi_thunks.obj
 0002:0000f028       $unwind$__acrt_FlsFree     0000000180047028     libucrt:winapi_thunks.obj
 0002:0000f028       $unwind$??$spin_wait_until_eq@U?$atomic@_K@tbb@@I@internal@tbb@@YAXAEDU?$atomic@_K@1@I@Z 0000000180047028     task_group_context.obj
 0002:0000f028       $unwind$?internal_acquire_reader@spin_rw_mutex_v3@tbb@@AEAAXXZ 0000000180047028     spin_rw_mutex.obj
 0002:0000f028       $unwind$?__itt_model_task_beginAL_init_3_0@@YAXPEBD_K@Z 0000000180047028     itt_notify.obj
 0002:0000f028       $unwind$__acrt_FlsGetValue 0000000180047028     libucrt:winapi_thunks.obj
 0002:0000f028       $unwind$?dummy_padded_allocate@internal@tbb@@YAPEAX_K0@Z 0000000180047028     cache_aligned_allocator.obj
 0002:0000f028       $unwind$_fclose_nolock     0000000180047028     libucrt:fclose.obj
 0002:0000f028       $unwind$?internal_try_acquire_writer@x86_rtm_rw_mutex@internal@interface8@tbb@@AEAA_NAEAVscoped_lock@1234@@Z 0000000180047028     x86_rtm_rw_mutex.obj
 0002:0000f028       $unwind$??0_LocaleUpdate@@QEAA@QEAU__crt_locale_pointers@@@Z 0000000180047028     libucrt:output.obj
 0002:0000f028       $unwind$?type_case_c_tchar@?$output_processor@DV?$string_output_adapter@D@__crt_stdio_output@@V?$format_validation_base@DV?$string_output_adapter@D@__crt_stdio_output@@@2@@__crt_stdio_output@@AEAA_ND@Z 0000000180047028     libucrt:output.obj
 0002:0000f028       $unwind$?__itt_model_iteration_taskAL_init_3_0@@YAXPEBD_K@Z 0000000180047028     itt_notify.obj
 0002:0000f028       $unwind$?length@pDNameNode@@UEBAHXZ 0000000180047028     libvcruntime:undname.obj
 0002:0000f028       $unwind$?__itt_counter_inc_delta_init_3_0@@YAXPEAU___itt_counter@@_K@Z 0000000180047028     itt_notify.obj
 0002:0000f028       $unwind$?execute@wait_task@internal@interface7@tbb@@EEAAPEAVtask@4@XZ 0000000180047028     arena.obj
 0002:0000f028       $unwind$?wake_condition_variable_using_event@internal@tbb@@YAXPEAUcondition_variable_using_event@1interface5@2@@Z 0000000180047028     condition_variable.obj
 0002:0000f028       $unwind$?wake_all_condition_variable_using_event@internal@tbb@@YAXPEAUcondition_variable_using_event@1interface5@2@@Z 0000000180047028     condition_variable.obj
 0002:0000f028       $unwind$??_Gdelegated_task@internal@interface7@tbb@@EEAAPEAXI@Z 0000000180047028     arena.obj
 0002:0000f028       $unwind$__acrt_RoInitialize 0000000180047028     libucrt:winapi_thunks.obj
 0002:0000f028       $unwind$?__itt_obj_mode_set_init_3_0@@YA?AW4__itt_obj_state@@W4__itt_obj_prop@@W41@@Z 0000000180047028     itt_notify.obj
 0002:0000f028       $unwind$?spawn@generic_scheduler@internal@tbb@@UEAAXAEAVtask@3@AEAPEAV43@@Z 0000000180047028     scheduler.obj
 0002:0000f028       $unwind$?__itt_heap_function_createA_init_3_0@@YAPEAXPEBD0@Z 0000000180047028     itt_notify.obj
 0002:0000f028       $unwind$??$spin_wait_while_eq@PEAXPEAX@internal@tbb@@YAXAEDSEAXPEAX@Z 0000000180047028     concurrent_vector_v2.obj
 0002:0000f028       $unwind$?ExFilterRethrow@@YAHPEAU_EXCEPTION_POINTERS@@PEAUEHExceptionRecord@@PEAH@Z 0000000180047028     libvcruntime:frame.obj
 0002:0000f028       $unwind$__acrt_uninitialize_lowio 0000000180047028     libucrt:ioinit.obj
 0002:0000f028       $unwind$?internal_acquire@scoped_lock@recursive_mutex@tbb@@AEAAXAEAV23@@Z 0000000180047028     recursive_mutex.obj
 0002:0000f028       $unwind$?common_end_thread@@YAXI@Z 0000000180047028     libucrt:thread.obj
 0002:0000f028       $unwind$?__itt_counter_createW_init_3_0@@YAPEAU___itt_counter@@PEB_W0@Z 0000000180047028     itt_notify.obj
 0002:0000f028       $unwind$?append@DName@@AEAAXPEAVDNameNode@@@Z 0000000180047028     libvcruntime:undname.obj
 0002:0000f028       $unwind$?reset@task_group_context@tbb@@QEAAXXZ 0000000180047028     task_group_context.obj
 0002:0000f028       $unwind$?__itt_heap_function_createW_init_3_0@@YAPEAXPEB_W0@Z 0000000180047028     itt_notify.obj
 0002:0000f028       $unwind$?NFS_Allocate@internal@tbb@@YAPEAX_K0PEAX@Z 0000000180047028     cache_aligned_allocator.obj
 0002:0000f028       $unwind$?internal_try_acquire@scoped_lock@recursive_mutex@tbb@@AEAA_NAEAV23@@Z 0000000180047028     recursive_mutex.obj
 0002:0000f028       $unwind$ITT_DoOneTimeInitialization 0000000180047028     tbb_main.obj
 0002:0000f028       $unwind$?DoOneTimeInitializations@internal@tbb@@YAXXZ 0000000180047028     tbb_main.obj
 0002:0000f028       $unwind$?internal_acquire@scoped_lock@mutex@tbb@@AEAAXAEAV23@@Z 0000000180047028     mutex.obj
 0002:0000f028       $unwind$?max_num_workers@market@internal@tbb@@SAIXZ 0000000180047028     tbb_main.obj
 0002:0000f028       $unwind$?internal_try_acquire@scoped_lock@mutex@tbb@@AEAA_NAEAV23@@Z 0000000180047028     mutex.obj
 0002:0000f028       $unwind$??_Gbad_exception@std@@UEAAPEAXI@Z 0000000180047028     libcpmt:excptptr.obj
 0002:0000f028       $unwind$?__itt_heap_free_begin_init_3_0@@YAXPEAX0@Z 0000000180047028     itt_notify.obj
 0002:0000f028       $unwind$?__itt_memory_read_init_3_0@@YAXPEAX_K@Z 0000000180047028     itt_notify.obj
 0002:0000f028       $unwind$?__itt_heap_free_end_init_3_0@@YAXPEAX0@Z 0000000180047028     itt_notify.obj
 0002:0000f028       $unwind$?enqueue@generic_scheduler@internal@tbb@@UEAAXAEAVtask@3@PEAX@Z 0000000180047028     scheduler.obj
 0002:0000f028       $unwind$?set@captured_exception@tbb@@QEAAXPEBD0@Z 0000000180047028     task_group_context.obj
 0002:0000f028       $unwind$?spawn_root_and_wait@generic_scheduler@internal@tbb@@UEAAXAEAVtask@3@AEAPEAV43@@Z 0000000180047028     scheduler.obj
 0002:0000f028       $unwind$?itt_store_pointer_with_release_v3@internal@tbb@@YAXPEAX0@Z 0000000180047028     tbb_main.obj
 0002:0000f028       $unwind$?__itt_get_env_var@@YAPEBDPEBD@Z 0000000180047028     itt_notify.obj
 0002:0000f028       $unwind$??_Gfilter@tbb@@UEAAPEAXI@Z 0000000180047028     pipeline.obj
 0002:0000f028       $unwind$?move@captured_exception@tbb@@UEAAPEAV12@XZ 0000000180047028     task_group_context.obj
 0002:0000f028       $unwind$?__itt_thr_mode_set_init_3_0@@YA?AW4__itt_thr_state@@W4__itt_thr_prop@@W41@@Z 0000000180047028     itt_notify.obj
 0002:0000f028       $unwind$?force_decimal_point@__crt_stdio_output@@YAXPEADQEAU__crt_locale_pointers@@@Z 0000000180047028     libucrt:output.obj
 0002:0000f028       $unwind$??_Gbad_typeid@std@@UEAAPEAXI@Z 0000000180047028     libvcruntime:rtti.obj
 0002:0000f028       $unwind$??_Gbad_alloc@std@@UEAAPEAXI@Z 0000000180047028     tbb_misc.obj
 0002:0000f028       $unwind$??_G__non_rtti_object@std@@UEAAPEAXI@Z 0000000180047028     libvcruntime:rtti.obj
 0002:0000f034       $unwind$?__itt_av_saveA_init_3_0@@YAHPEAXHPEBHHPEBDH@Z 0000000180047034     itt_notify.obj
 0002:0000f034       $unwind$?__itt_metadata_str_add_with_scopeW_init_3_0@@YAXPEBU___itt_domain@@W4__itt_scope@@PEAU___itt_string_handle@@PEB_W_K@Z 0000000180047034     itt_notify.obj
 0002:0000f034       $unwind$?__itt_notify_sync_nameW_init_3_0@@YAHPEAXPEB_WH1HH@Z 0000000180047034     itt_notify.obj
 0002:0000f034       $unwind$?__itt_heap_reallocate_end_init_3_0@@YAXPEAX0PEAPEAX_KH@Z 0000000180047034     itt_notify.obj
 0002:0000f034       $unwind$?__itt_metadata_str_add_with_scopeA_init_3_0@@YAXPEBU___itt_domain@@W4__itt_scope@@PEAU___itt_string_handle@@PEBD_K@Z 0000000180047034     itt_notify.obj
 0002:0000f034       $unwind$?__itt_notify_sync_nameA_init_3_0@@YAHPEAXPEBDH1HH@Z 0000000180047034     itt_notify.obj
 0002:0000f034       $unwind$?__itt_metadata_add_with_scope_init_3_0@@YAXPEBU___itt_domain@@W4__itt_scope@@PEAU___itt_string_handle@@W4__itt_metadata_type@@_KPEAX@Z 0000000180047034     itt_notify.obj
 0002:0000f034       $unwind$?__itt_av_saveW_init_3_0@@YAHPEAXHPEBHHPEB_WH@Z 0000000180047034     itt_notify.obj
 0002:0000f034       $unwind$_wcsdup            0000000180047034     libucrt:wcsdup.obj
 0002:0000f034       $unwind$?assertion_failure@tbb@@YAXPEBDH00@Z 0000000180047034     tbb_misc.obj
 0002:0000f048       $unwind$?getSignedDimension@UnDecorator@@CA?AVDName@@XZ 0000000180047048     libvcruntime:undname.obj
 0002:0000f048       $unwind$?__itt_id_destroy_init_3_0@@YAXPEBU___itt_domain@@U___itt_id@@@Z 0000000180047048     itt_notify.obj
 0002:0000f048       $unwind$?__itt_region_end_init_3_0@@YAXPEBU___itt_domain@@U___itt_id@@@Z 0000000180047048     itt_notify.obj
 0002:0000f048       $unwind$?__itt_task_end_overlapped_init_3_0@@YAXPEBU___itt_domain@@U___itt_id@@@Z 0000000180047048     itt_notify.obj
 0002:0000f048       $unwind$_mbsdec_l          0000000180047048     libucrt:mbsdec.obj
 0002:0000f048       $unwind$?__itt_id_create_init_3_0@@YAXPEBU___itt_domain@@U___itt_id@@@Z 0000000180047048     itt_notify.obj
 0002:0000f054       $unwind$?__itt_task_begin_fn_init_3_0@@YAXPEBU___itt_domain@@U___itt_id@@1PEAX@Z 0000000180047054     itt_notify.obj
 0002:0000f054       $unwind$?__itt_relation_add_init_3_0@@YAXPEBU___itt_domain@@U___itt_id@@W4__itt_relation@@1@Z 0000000180047054     itt_notify.obj
 0002:0000f054       $unwind$?__itt_task_begin_init_3_0@@YAXPEBU___itt_domain@@U___itt_id@@1PEAU___itt_string_handle@@@Z 0000000180047054     itt_notify.obj
 0002:0000f054       $unwind$_strnicoll_l       0000000180047054     libucrt:strnicol.obj
 0002:0000f054       $unwind$?__itt_task_group_init_3_0@@YAXPEBU___itt_domain@@U___itt_id@@1PEAU___itt_string_handle@@@Z 0000000180047054     itt_notify.obj
 0002:0000f054       $unwind$?__itt_task_begin_overlapped_init_3_0@@YAXPEBU___itt_domain@@U___itt_id@@1PEAU___itt_string_handle@@@Z 0000000180047054     itt_notify.obj
 0002:0000f054       $unwind$?__itt_region_begin_init_3_0@@YAXPEBU___itt_domain@@U___itt_id@@1PEAU___itt_string_handle@@@Z 0000000180047054     itt_notify.obj
 0002:0000f068       $unwind$?pop@?$task_stream@$02@internal@tbb@@QEAAPEAVtask@3@HAEAI@Z 0000000180047068     scheduler.obj
 0002:0000f068       $unwind$?__SehTransFilter@@YAHPEAU_EXCEPTION_POINTERS@@PEAUEHExceptionRecord@@PEA_KPEAU_CONTEXT@@PEAU_xDISPATCHER_CONTEXT@@PEBU_s_FuncInfo@@PEAH@Z 0000000180047068     libvcruntime:trnsctrl.obj
 0002:0000f068       $unwind$?__itt_marker_init_3_0@@YAXPEBU___itt_domain@@U___itt_id@@PEAU___itt_string_handle@@W4__itt_scope@@@Z 0000000180047068     itt_notify.obj
 0002:0000f068       $unwind$_strnicmp_l        0000000180047068     libucrt:strnicmp.obj
 0002:0000f068       $unwind$?__itt_id_create_ex_init_3_0@@YAXPEBU___itt_domain@@PEAU___itt_clock_domain@@_KU___itt_id@@@Z 0000000180047068     itt_notify.obj
 0002:0000f068       $unwind$?__itt_task_end_overlapped_ex_init_3_0@@YAXPEBU___itt_domain@@PEAU___itt_clock_domain@@_KU___itt_id@@@Z 0000000180047068     itt_notify.obj
 0002:0000f068       $unwind$?__itt_id_destroy_ex_init_3_0@@YAXPEBU___itt_domain@@PEAU___itt_clock_domain@@_KU___itt_id@@@Z 0000000180047068     itt_notify.obj
 0002:0000f07c       $unwind$?__itt_metadata_str_addA_init_3_0@@YAXPEBU___itt_domain@@U___itt_id@@PEAU___itt_string_handle@@PEBD_K@Z 000000018004707c     itt_notify.obj
 0002:0000f07c       $unwind$?__itt_metadata_add_init_3_0@@YAXPEBU___itt_domain@@U___itt_id@@PEAU___itt_string_handle@@W4__itt_metadata_type@@_KPEAX@Z 000000018004707c     itt_notify.obj
 0002:0000f07c       $unwind$?fp_format_e@@YAHQEBNQEAD_K12H_NIQEAU__crt_locale_pointers@@@Z 000000018004707c     libucrt:cvt.obj
 0002:0000f07c       $unwind$?__itt_relation_add_to_current_ex_init_3_0@@YAXPEBU___itt_domain@@PEAU___itt_clock_domain@@_KW4__itt_relation@@U___itt_id@@@Z 000000018004707c     itt_notify.obj
 0002:0000f07c       $unwind$?__itt_metadata_str_addW_init_3_0@@YAXPEBU___itt_domain@@U___itt_id@@PEAU___itt_string_handle@@PEB_W_K@Z 000000018004707c     itt_notify.obj
 0002:0000f07c       $unwind$?__itt_marker_ex_init_3_0@@YAXPEBU___itt_domain@@PEAU___itt_clock_domain@@_KU___itt_id@@PEAU___itt_string_handle@@W4__itt_scope@@@Z 000000018004707c     itt_notify.obj
 0002:0000f090       $unwind$?__itt_relation_add_to_current_init_3_0@@YAXPEBU___itt_domain@@W4__itt_relation@@U___itt_id@@@Z 0000000180047090     itt_notify.obj
 0002:0000f090       $unwind$?x_ismbbtype_l@@YAHPEAU__crt_locale_pointers@@IHH@Z 0000000180047090     libucrt:ismbbyte.obj
 0002:0000f0a0       $unwind$?__itt_relation_add_ex_init_3_0@@YAXPEBU___itt_domain@@PEAU___itt_clock_domain@@_KU___itt_id@@W4__itt_relation@@3@Z 00000001800470a0     itt_notify.obj
 0002:0000f0a0       $unwind$?__itt_task_begin_overlapped_ex_init_3_0@@YAXPEBU___itt_domain@@PEAU___itt_clock_domain@@_KU___itt_id@@3PEAU___itt_string_handle@@@Z 00000001800470a0     itt_notify.obj
 0002:0000f0a0       $unwind$?__itt_task_begin_ex_init_3_0@@YAXPEBU___itt_domain@@PEAU___itt_clock_domain@@_KU___itt_id@@3PEAU___itt_string_handle@@@Z 00000001800470a0     itt_notify.obj
 0002:0000f0a0       $unwind$?__itt_task_begin_fn_ex_init_3_0@@YAXPEBU___itt_domain@@PEAU___itt_clock_domain@@_KU___itt_id@@3PEAX@Z 00000001800470a0     itt_notify.obj
 0002:0000f0b4       $unwind$?__itt_report_error@@YAXW4__itt_error_code@@ZZ 00000001800470b4     itt_notify.obj
 0002:0000f0bc       $unwind$?__itt_domain_createW_init_3_0@@YAPEAU___itt_domain@@PEB_W@Z 00000001800470bc     itt_notify.obj
 0002:0000f0bc       $unwind$?__itt_string_handle_createW_init_3_0@@YAPEAU___itt_string_handle@@PEB_W@Z 00000001800470bc     itt_notify.obj
 0002:0000f0bc       $unwind$?__itt_string_handle_createA_init_3_0@@YAPEAU___itt_string_handle@@PEBD@Z 00000001800470bc     itt_notify.obj
 0002:0000f0bc       $unwind$?__itt_domain_createA_init_3_0@@YAPEAU___itt_domain@@PEBD@Z 00000001800470bc     itt_notify.obj
 0002:0000f0d0       $unwind$?__itt_get_groups@@YA?AW4___itt_group_id@@XZ 00000001800470d0     itt_notify.obj
 0002:0000f0ec       $chain$1$?__itt_get_groups@@YA?AW4___itt_group_id@@XZ 00000001800470ec     itt_notify.obj
 0002:0000f104       $chain$2$?__itt_get_groups@@YA?AW4___itt_group_id@@XZ 0000000180047104     itt_notify.obj
 0002:0000f114       $chain$3$?__itt_get_groups@@YA?AW4___itt_group_id@@XZ 0000000180047114     itt_notify.obj
 0002:0000f12c       $chain$1$__itt_init_ittlib 000000018004712c     itt_notify.obj
 0002:0000f144       $chain$2$__itt_init_ittlib 0000000180047144     itt_notify.obj
 0002:0000f158       $chain$4$__itt_init_ittlib 0000000180047158     itt_notify.obj
 0002:0000f170       $chain$5$__itt_init_ittlib 0000000180047170     itt_notify.obj
 0002:0000f180       $chain$6$__itt_init_ittlib 0000000180047180     itt_notify.obj
 0002:0000f190       $chain$7$__itt_init_ittlib 0000000180047190     itt_notify.obj
 0002:0000f1a0       $chain$1$?initialize_cache_aligned_allocator@internal@tbb@@YAXXZ 00000001800471a0     cache_aligned_allocator.obj
 0002:0000f1b8       $chain$3$?initialize_cache_aligned_allocator@internal@tbb@@YAXXZ 00000001800471b8     cache_aligned_allocator.obj
 0002:0000f1d0       $chain$4$?initialize_cache_aligned_allocator@internal@tbb@@YAXXZ 00000001800471d0     cache_aligned_allocator.obj
 0002:0000f1e0       $chain$0$??0input_buffer@internal@tbb@@QEAA@_N0@Z 00000001800471e0     pipeline.obj
 0002:0000f1f4       $chain$1$??0input_buffer@internal@tbb@@QEAA@_N0@Z 00000001800471f4     pipeline.obj
 0002:0000f204       $unwind$?put_token@input_buffer@internal@tbb@@QEAA_NAEAUtask_info@23@_N@Z 0000000180047204     pipeline.obj
 0002:0000f228       $stateUnwindMap$?return_item@input_buffer@internal@tbb@@QEAA_NAEAUtask_info@23@_N@Z 0000000180047228     pipeline.obj
 0002:0000f228       $stateUnwindMap$?create_master@generic_scheduler@internal@tbb@@SAPEAV123@PEAVarena@23@@Z 0000000180047228     scheduler.obj
 0002:0000f228       $stateUnwindMap$?push@?$task_stream@$02@internal@tbb@@QEAAXPEAVtask@3@HAEAVFastRandom@23@@Z 0000000180047228     arena.obj
 0002:0000f228       $stateUnwindMap$?put_token@input_buffer@internal@tbb@@QEAA_NAEAUtask_info@23@_N@Z 0000000180047228     pipeline.obj
 0002:0000f228       $stateUnwindMap$?cleanup_master@generic_scheduler@internal@tbb@@QEAAX_N@Z 0000000180047228     scheduler.obj
 0002:0000f230       $ip2state$?put_token@input_buffer@internal@tbb@@QEAA_NAEAUtask_info@23@_N@Z 0000000180047230     pipeline.obj
 0002:0000f258       $unwind$?return_item@input_buffer@internal@tbb@@QEAA_NAEAUtask_info@23@_N@Z 0000000180047258     pipeline.obj
 0002:0000f278       $ip2state$?return_item@input_buffer@internal@tbb@@QEAA_NAEAUtask_info@23@_N@Z 0000000180047278     pipeline.obj
 0002:0000f290       $unwind$?allocate_task@generic_scheduler@internal@tbb@@QEAAAEAVtask@3@_KPEAV43@PEAVtask_group_context@3@@Z 0000000180047290     scheduler.obj
 0002:0000f290       $unwind$?write_string@?$stream_output_adapter@D@__crt_stdio_output@@QEBAXQEBDHQEAH1@Z 0000000180047290     libucrt:output.obj
 0002:0000f290       $unwind$?grow@input_buffer@internal@tbb@@AEAAXK@Z 0000000180047290     pipeline.obj
 0002:0000f290       $unwind$??$propagate_task_group_state@_J@generic_scheduler@internal@tbb@@QEAAXPEQtask_group_context@2@_JAEAV32@_J@Z 0000000180047290     task_group_context.obj
 0002:0000f290       $unwind$?sleep_condition_variable_cs_using_event@internal@tbb@@YAHPEAUcondition_variable_using_event@1interface5@2@PEAU_RTL_CRITICAL_SECTION@@K@Z 0000000180047290     condition_variable.obj
 0002:0000f2a8       $unwind$??_Gstage_task@internal@tbb@@UEAAPEAXI@Z 00000001800472a8     pipeline.obj
 0002:0000f2c0       $ip2state$??_Gstage_task@internal@tbb@@UEAAPEAXI@Z 00000001800472c0     pipeline.obj
 0002:0000f2d8       $unwind$?execute@stage_task@internal@tbb@@UEAAPEAVtask@3@XZ 00000001800472d8     pipeline.obj
 0002:0000f2ec       $unwind$?execute@pipeline_root_task@internal@tbb@@EEAAPEAVtask@3@XZ 00000001800472ec     pipeline.obj
 0002:0000f2f8       $chain$1$?execute@pipeline_root_task@internal@tbb@@EEAAPEAVtask@3@XZ 00000001800472f8     pipeline.obj
 0002:0000f310       $chain$3$?execute@pipeline_root_task@internal@tbb@@EEAAPEAVtask@3@XZ 0000000180047310     pipeline.obj
 0002:0000f328       $chain$4$?execute@pipeline_root_task@internal@tbb@@EEAAPEAVtask@3@XZ 0000000180047328     pipeline.obj
 0002:0000f338       $unwind$??1pipeline_cleaner@internal@tbb@@QEAA@XZ 0000000180047338     pipeline.obj
 0002:0000f348       $ip2state$??1pipeline_cleaner@internal@tbb@@QEAA@XZ 0000000180047348     pipeline.obj
 0002:0000f350       $unwind$?clear_filters@pipeline@tbb@@AEAAXXZ 0000000180047350     pipeline.obj
 0002:0000f350       $unwind$?acquire_task_pool@generic_scheduler@internal@tbb@@QEBAXXZ 0000000180047350     scheduler.obj
 0002:0000f350       $unwind$?start_read@reader_writer_lock@interface5@tbb@@AEAAXPEAVscoped_lock_read@123@@Z 0000000180047350     reader_writer_lock.obj
 0002:0000f358       $chain$3$?clear_filters@pipeline@tbb@@AEAAXXZ 0000000180047358     pipeline.obj
 0002:0000f378       $chain$4$?clear_filters@pipeline@tbb@@AEAAXXZ 0000000180047378     pipeline.obj
 0002:0000f388       $unwind$?clear@pipeline@tbb@@QEAAXXZ 0000000180047388     pipeline.obj
 0002:0000f3a8       $ip2state$?clear@pipeline@tbb@@QEAAXXZ 00000001800473a8     pipeline.obj
 0002:0000f3c0       $unwind$??_Ginput_buffer@internal@tbb@@QEAAPEAXI@Z 00000001800473c0     pipeline.obj
 0002:0000f3d8       $ip2state$??_Ginput_buffer@internal@tbb@@QEAAPEAXI@Z 00000001800473d8     pipeline.obj
 0002:0000f3f0       $unwind$?add_filter@pipeline@tbb@@QEAAXAEAVfilter@2@@Z 00000001800473f0     pipeline.obj
 0002:0000f404       $stateUnwindMap$?add_filter@pipeline@tbb@@QEAAXAEAVfilter@2@@Z 0000000180047404     pipeline.obj
 0002:0000f430       $ip2state$?add_filter@pipeline@tbb@@QEAAXAEAVfilter@2@@Z 0000000180047430     pipeline.obj
 0002:0000f478       $unwind$?dtor$0@?0??initialize@?$task_stream@$02@internal@tbb@@QEAAXI@Z@4HA 0000000180047478     arena.obj
 0002:0000f478       $unwind$?dtor$0@?0??create_rml_server@governor@internal@tbb@@CAPEAVtbb_server@rml@23@AEAVtbb_client@523@@Z@4HA 0000000180047478     governor.obj
 0002:0000f478       $unwind$__DestructExceptionObject$filt$0 0000000180047478     libvcruntime:frame.obj
 0002:0000f478       $unwind$common_flush_all$fin$0 0000000180047478     libucrt:fflush.obj
 0002:0000f478       $unwind$?fin$0@?0???$common_lseek@_J@@YA_JH_JH@Z@4HA 0000000180047478     libucrt:lseek.obj
 0002:0000f478       $unwind$_query_new_handler$fin$0 0000000180047478     libucrt:new_handler.obj
 0002:0000f478       $unwind$?dtor$11@?0???$allocate_shared@V__ExceptionPtr@@U?$_StaticAllocator@H@@AEAPEAUEHExceptionRecord@@_N@std@@YA?AV?$shared_ptr@V__ExceptionPtr@@@0@AEBU?$_StaticAllocator@H@@AEAPEAUEHExceptionRecord@@$$QEA_N@Z@4HA 0000000180047478     libcpmt:excptptr.obj
 0002:0000f478       $unwind$?dtor$0@?0??allocate_scheduler@?$custom_scheduler@UDefaultSchedulerTraits@internal@tbb@@@internal@tbb@@SAPEAVgeneric_scheduler@23@AEAVmarket@23@@Z@4HA 0000000180047478     scheduler.obj
 0002:0000f478       $unwind$_ctrlfp$filt$0     0000000180047478     libucrt:fpctrl.obj
 0002:0000f478       $unwind$__acrt_update_thread_multibyte_data$fin$0 0000000180047478     libucrt:mbctype.obj
 0002:0000f478       $unwind$?fin$0@?0???$?RV<lambda_5e887d1dcbef67a5eb4283622ba103bf>@@AEAV<lambda_4466841279450cc726390878d4a41900>@@V<lambda_341c25c0346d94847f1f3c463c57e077>@@@?$__crt_seh_guarded_call@X@@QEAAX$$QEAV<lambda_5e887d1dcbef67a5eb4283622ba103bf>@@AEAV<lambda_4466841279450cc726390878d4a41900>@@$$QEAV<lambda_341c25c0346d94847f1f3c463c57e077>@@@Z@4HA 0000000180047478     libucrt:per_thread_data.obj
 0002:0000f478       $unwind$?dtor$0@?0??add_filter@pipeline@tbb@@QEAAXAEAVfilter@2@@Z@4HA 0000000180047478     pipeline.obj
 0002:0000f478       $unwind$?dtor$0@?0??allocate_arena@arena@internal@tbb@@SAAEAV123@AEAVmarket@23@II@Z@4HA 0000000180047478     arena.obj
 0002:0000f478       $unwind$?dtor$0@?0??allocate_scheduler@?$custom_scheduler@UIntelSchedulerTraits@internal@tbb@@@internal@tbb@@SAPEAVgeneric_scheduler@23@AEAVmarket@23@@Z@4HA 0000000180047478     scheduler.obj
 0002:0000f478       $unwind$?set_next_writer@reader_writer_lock@interface5@tbb@@AEAAXPEAVscoped_lock@123@@Z 0000000180047478     reader_writer_lock.obj
 0002:0000f478       $unwind$_IsNonwritableInCurrentImage$filt$0 0000000180047478     LIBCMT:pesect.obj
 0002:0000f478       $unwind$?fin$0@?0???_L@YAXPEAX_K1P6AX0@Z2@Z@4HA 0000000180047478     LIBCMT:ehvecctr.obj
 0002:0000f478       $unwind$?dtor$1@?0??add_filter@pipeline@tbb@@QEAAXAEAVfilter@2@@Z@4HA 0000000180047478     pipeline.obj
 0002:0000f478       $unwind$?dtor$2@?0??add_filter@pipeline@tbb@@QEAAXAEAVfilter@2@@Z@4HA 0000000180047478     pipeline.obj
 0002:0000f478       $unwind$?fin$0@?0???_M@YAXPEAX_K1P6AX0@Z@Z@4HA 0000000180047478     LIBCMT:ehvecdtr.obj
 0002:0000f478       $unwind$common_flush_all$fin$1 0000000180047478     libucrt:fflush.obj
 0002:0000f478       $unwind$?fin$0@?0???$?RV<lambda_72d1df2b273a38828b1ce30cbf4cdab5>@@AEAV<lambda_876a65b173b8412d3a47c70a915b0cf4>@@V<lambda_41932305e351933ebe8f8be3ed8bb5dc>@@@?$__crt_seh_guarded_call@X@@QEAAX$$QEAV<lambda_72d1df2b273a38828b1ce30cbf4cdab5>@@AEAV<lambda_876a65b173b8412d3a47c70a915b0cf4>@@$$QEAV<lambda_41932305e351933ebe8f8be3ed8bb5dc>@@@Z@4HA 0000000180047478     libucrt:per_thread_data.obj
 0002:0000f478       $unwind$?filt$0@?0??__ArrayUnwind@@YAXPEAX_K1P6AX0@Z@Z@4HA 0000000180047478     LIBCMT:ehvecdtr.obj
 0002:0000f478       $unwind$?dtor$3@?0??add_filter@pipeline@tbb@@QEAAXAEAVfilter@2@@Z@4HA 0000000180047478     pipeline.obj
 0002:0000f478       $unwind$?filt$0@?0???$thread_start@P6AIPEAX@Z@@YAKQEAX@Z@4HA 0000000180047478     libucrt:thread.obj
 0002:0000f478       $unwind$?fin$0@?0???$?RV<lambda_b8c45f8f788dd370798f47cfe8ac3a86>@@AEAV<lambda_4e60a939b0d047cfe11ddc22648dfba9>@@V<lambda_332c3edc96d0294ec56c57d38c1cdfd5>@@@?$__crt_seh_guarded_call@H@@QEAAH$$QEAV<lambda_b8c45f8f788dd370798f47cfe8ac3a86>@@AEAV<lambda_4e60a939b0d047cfe11ddc22648dfba9>@@$$QEAV<lambda_332c3edc96d0294ec56c57d38c1cdfd5>@@@Z@4HA 0000000180047478     libucrt:onexit.obj
 0002:0000f478       $unwind$?fin$0@?0???$?RV<lambda_46352004c1216016012b18bd6f87e700>@@AEAV<lambda_3bd07e1a1191394380780325891bf33f>@@V<lambda_334532d3f185bcaa59b5be82d7d22bff>@@@?$__crt_seh_guarded_call@X@@QEAAX$$QEAV<lambda_46352004c1216016012b18bd6f87e700>@@AEAV<lambda_3bd07e1a1191394380780325891bf33f>@@$$QEAV<lambda_334532d3f185bcaa59b5be82d7d22bff>@@@Z@4HA 0000000180047478     libucrt:per_thread_data.obj
 0002:0000f478       $unwind$common_control87$filt$0 0000000180047478     libucrt:ieee.obj
 0002:0000f478       $unwind$fflush$fin$0       0000000180047478     libucrt:fflush.obj
 0002:0000f478       $unwind$__CxxCallCatchBlock$filt$0 0000000180047478     libvcruntime:frame.obj
 0002:0000f478       $unwind$?fin$0@?0???$?RV<lambda_99476a1ad63dd22509b5d3e65b0ffc95>@@AEAV<lambda_ad1ced32f4ac17aa236e5ef05d6b3b7c>@@V<lambda_f7424dd8d45958661754dc4f2697e9c3>@@@?$__crt_seh_guarded_call@X@@QEAAX$$QEAV<lambda_99476a1ad63dd22509b5d3e65b0ffc95>@@AEAV<lambda_ad1ced32f4ac17aa236e5ef05d6b3b7c>@@$$QEAV<lambda_f7424dd8d45958661754dc4f2697e9c3>@@@Z@4HA 0000000180047478     libucrt:mbctype.obj
 0002:0000f478       $unwind$?dtor$5@?0???$make_shared@V__ExceptionPtr@@AEAPEAUEHExceptionRecord@@_N@std@@YA?AV?$shared_ptr@V__ExceptionPtr@@@0@AEAPEAUEHExceptionRecord@@$$QEA_N@Z@4HA 0000000180047478     libcpmt:excptptr.obj
 0002:0000f478       $unwind$?fin$0@?0???$?RV<lambda_fb3a7dec4e47f37f22dae91bb15c9095>@@AEAV<lambda_698284760c8add0bfb0756c19673e34b>@@V<lambda_dfb8eca1e75fef3034a8fb18dd509707>@@@?$__crt_seh_guarded_call@X@@QEAAX$$QEAV<lambda_fb3a7dec4e47f37f22dae91bb15c9095>@@AEAV<lambda_698284760c8add0bfb0756c19673e34b>@@$$QEAV<lambda_dfb8eca1e75fef3034a8fb18dd509707>@@@Z@4HA 0000000180047478     libucrt:per_thread_data.obj
 0002:0000f478       $unwind$?fin$0@?0???$?RV<lambda_e24bbb7b643b32fcea6fa61b31d4c984>@@AEAV<lambda_275893d493268fdec8709772e3fcec0e>@@V<lambda_9d71df4d7cf3f480f8d633942495c3b0>@@@?$__crt_seh_guarded_call@H@@QEAAH$$QEAV<lambda_e24bbb7b643b32fcea6fa61b31d4c984>@@AEAV<lambda_275893d493268fdec8709772e3fcec0e>@@$$QEAV<lambda_9d71df4d7cf3f480f8d633942495c3b0>@@@Z@4HA 0000000180047478     libucrt:onexit.obj
 0002:0000f478       $unwind$?dtor$1@?0??global_market@market@internal@tbb@@CAAEAV123@_NI_K@Z@4HA 0000000180047478     market.obj
 0002:0000f478       $unwind$fclose$fin$0       0000000180047478     libucrt:fclose.obj
 0002:0000f478       $unwind$?filt$0@?0??common_exit@@YAXHW4_crt_exit_cleanup_mode@@W4_crt_exit_return_mode@@@Z@4HA 0000000180047478     libucrt:exit.obj
 0002:0000f478       $unwind$?dtor$1@?0???$?0AEAPEAUEHExceptionRecord@@_N@?$_Ref_count_obj_alloc@V__ExceptionPtr@@U?$_StaticAllocator@H@@@std@@QEAA@AEBU?$_StaticAllocator@H@@AEAPEAUEHExceptionRecord@@$$QEA_N@Z@4HA 0000000180047478     libcpmt:excptptr.obj
 0002:0000f478       $unwind$__FrameUnwindToState$fin$1 0000000180047478     libvcruntime:frame.obj
 0002:0000f478       $unwind$?dtor$0@?0???0private_server@rml@internal@tbb@@QEAA@AEAVtbb_client@123@@Z@4HA 0000000180047478     private_server.obj
 0002:0000f478       $unwind$?fin$0@?0???$?RV<lambda_c36588078e9f5dfd39652860aa6b3aaf>@@AEAV<lambda_ec61778202f4f5fc7e7711acc23c3bca>@@V<lambda_dc9d2797ccde5d239b4a0efae8ebd7db>@@@?$__crt_seh_guarded_call@P6AXH@Z@@QEAAP6AXH@Z$$QEAV<lambda_c36588078e9f5dfd39652860aa6b3aaf>@@AEAV<lambda_ec61778202f4f5fc7e7711acc23c3bca>@@$$QEAV<lambda_dc9d2797ccde5d239b4a0efae8ebd7db>@@@Z@4HA 0000000180047478     libucrt:signal.obj
 0002:0000f478       $unwind$?fin$1@?0??common_exit@@YAXHW4_crt_exit_cleanup_mode@@W4_crt_exit_return_mode@@@Z@4HA 0000000180047478     libucrt:exit.obj
 0002:0000f478       $unwind$__acrt_lowio_ensure_fh_exists$fin$0 0000000180047478     libucrt:osfinfo.obj
 0002:0000f478       $unwind$_fcloseall$fin$0   0000000180047478     libucrt:closeall.obj
 0002:0000f478       $unwind$__RTtypeid$filt$0  0000000180047478     libvcruntime:rtti.obj
 0002:0000f478       $unwind$?fin$0@?0???$?RV<lambda_aa279a7bcb127014629d5b1d62c7325d>@@AEAV<lambda_0a64b6a4deda75c01876f29c44fc5eb3>@@V<lambda_3323e69fbefe9d1a11713e670d47cdfa>@@@?$__crt_seh_guarded_call@H@@QEAAH$$QEAV<lambda_aa279a7bcb127014629d5b1d62c7325d>@@AEAV<lambda_0a64b6a4deda75c01876f29c44fc5eb3>@@$$QEAV<lambda_3323e69fbefe9d1a11713e670d47cdfa>@@@Z@4HA 0000000180047478     libucrt:output.obj
 0002:0000f478       $unwind$raise$fin$0        0000000180047478     libucrt:signal.obj
 0002:0000f478       $unwind$__acrt_uninitialize_locale$fin$0 0000000180047478     libucrt:wsetlocale.obj
 0002:0000f478       $unwind$?fin$0@?0??dllmain_crt_process_attach@@YAHQEAUHINSTANCE__@@QEAX@Z@4HA 0000000180047478     LIBCMT:dll_dllmain.obj
 0002:0000f478       $unwind$__acrt_initialize_lowio$fin$0 0000000180047478     libucrt:ioinit.obj
 0002:0000f478       $unwind$?dtor$0@?0???$make_shared@V__ExceptionPtr@@AEAPEAUEHExceptionRecord@@_N@std@@YA?AV?$shared_ptr@V__ExceptionPtr@@@0@AEAPEAUEHExceptionRecord@@$$QEA_N@Z@4HA 0000000180047478     libcpmt:excptptr.obj
 0002:0000f478       $unwind$_write$fin$0       0000000180047478     libucrt:write.obj
 0002:0000f478       $unwind$?fin$0@?0??dllmain_crt_process_detach@@YAH_N@Z@4HA 0000000180047478     LIBCMT:dll_dllmain.obj
 0002:0000f478       $unwind$__FrameUnwindToState$filt$0 0000000180047478     libvcruntime:frame.obj
 0002:0000f478       $unwind$__acrt_update_thread_locale_data$fin$0 0000000180047478     libucrt:locale_refcounting.obj
 0002:0000f478       $unwind$?fin$0@?0???$common_getenv@D@@YAPEADQEBD@Z@4HA 0000000180047478     libucrt:getenv.obj
 0002:0000f478       $unwind$?fin$0@?0???$?RV<lambda_a81aa23bb2c9577c1e55b9d0b57d9de4>@@AEAV<lambda_9a20e10065b92b5193c3597a66cba9d4>@@V<lambda_cb3a421ff86d8a5f008440ee6b28fa9c>@@@?$__crt_seh_guarded_call@H@@QEAAH$$QEAV<lambda_a81aa23bb2c9577c1e55b9d0b57d9de4>@@AEAV<lambda_9a20e10065b92b5193c3597a66cba9d4>@@$$QEAV<lambda_cb3a421ff86d8a5f008440ee6b28fa9c>@@@Z@4HA 0000000180047478     libucrt:fputs.obj
 0002:0000f478       $unwind$?fin$0@?0???$?RV<lambda_bfedae4ebbf01fab1bb6dcc6a9e276e0>@@AEAV<lambda_2fe9b910cf3cbf4a0ab98a02ba45b3ec>@@V<lambda_237c231691f317818eb88cc1d5d642d6>@@@?$__crt_seh_guarded_call@H@@QEAAH$$QEAV<lambda_bfedae4ebbf01fab1bb6dcc6a9e276e0>@@AEAV<lambda_2fe9b910cf3cbf4a0ab98a02ba45b3ec>@@$$QEAV<lambda_237c231691f317818eb88cc1d5d642d6>@@@Z@4HA 0000000180047478     libucrt:close.obj
 0002:0000f478       $unwind$?fin$0@?0???$?RV<lambda_b521505b218e5242e90febf6bfebc422>@@AEAV<lambda_6978c1fb23f02e42e1d9e99668cc68aa>@@V<lambda_314360699dd331753a4119843814e9a7>@@@?$__crt_seh_guarded_call@H@@QEAAH$$QEAV<lambda_b521505b218e5242e90febf6bfebc422>@@AEAV<lambda_6978c1fb23f02e42e1d9e99668cc68aa>@@$$QEAV<lambda_314360699dd331753a4119843814e9a7>@@@Z@4HA 0000000180047478     libucrt:commit.obj
 0002:0000f480       $unwind$?run@pipeline@tbb@@QEAAX_KAEAVtask_group_context@2@@Z 0000000180047480     pipeline.obj
 0002:0000f494       $stateUnwindMap$?run@pipeline@tbb@@QEAAX_KAEAVtask_group_context@2@@Z 0000000180047494     pipeline.obj
 0002:0000f4a8       $ip2state$?run@pipeline@tbb@@QEAAX_KAEAVtask_group_context@2@@Z 00000001800474a8     pipeline.obj
 0002:0000f4c8       $unwind$?run@pipeline@tbb@@QEAAX_K@Z 00000001800474c8     pipeline.obj
 0002:0000f4e4       $stateUnwindMap$?run@pipeline@tbb@@QEAAX_K@Z 00000001800474e4     pipeline.obj
 0002:0000f4f0       $ip2state$?run@pipeline@tbb@@QEAAX_K@Z 00000001800474f0     pipeline.obj
 0002:0000f508       $unwind$?internal_process_item@thread_bound_filter@tbb@@AEAA?AW4result_type@12@_N@Z 0000000180047508     pipeline.obj
 0002:0000f524       $unwind$??$note_done@Vstage_task@internal@tbb@@@input_buffer@internal@tbb@@QEAAXKAEAVstage_task@12@@Z 0000000180047524     pipeline.obj
 0002:0000f544       $stateUnwindMap$??$note_done@Vstage_task@internal@tbb@@@input_buffer@internal@tbb@@QEAAXKAEAVstage_task@12@@Z 0000000180047544     pipeline.obj
 0002:0000f550       $ip2state$??$note_done@Vstage_task@internal@tbb@@@input_buffer@internal@tbb@@QEAAXKAEAVstage_task@12@@Z 0000000180047550     pipeline.obj
 0002:0000f568       $unwind$?release@scoped_lock@queuing_mutex@tbb@@QEAAXXZ 0000000180047568     queuing_mutex.obj
 0002:0000f568       $unwind$?set_priority@task_group_context@tbb@@QEAAXW4priority_t@2@@Z 0000000180047568     task_group_context.obj
 0002:0000f574       $chain$0$?release@scoped_lock@queuing_mutex@tbb@@QEAAXXZ 0000000180047574     queuing_mutex.obj
 0002:0000f588       $chain$1$?release@scoped_lock@queuing_mutex@tbb@@QEAAXXZ 0000000180047588     queuing_mutex.obj
 0002:0000f598       $chain$0$?unblock_or_wait_on_internal_lock@scoped_lock@queuing_rw_mutex@tbb@@AEAAX_K@Z 0000000180047598     queuing_rw_mutex.obj
 0002:0000f5ac       $chain$1$?unblock_or_wait_on_internal_lock@scoped_lock@queuing_rw_mutex@tbb@@AEAAX_K@Z 00000001800475ac     queuing_rw_mutex.obj
 0002:0000f5bc       $unwind$?acquire@scoped_lock@queuing_rw_mutex@tbb@@QEAAXAEAV23@_N@Z 00000001800475bc     queuing_rw_mutex.obj
 0002:0000f5c8       $chain$0$?acquire@scoped_lock@queuing_rw_mutex@tbb@@QEAAXAEAV23@_N@Z 00000001800475c8     queuing_rw_mutex.obj
 0002:0000f5dc       $chain$1$?acquire@scoped_lock@queuing_rw_mutex@tbb@@QEAAXAEAV23@_N@Z 00000001800475dc     queuing_rw_mutex.obj
 0002:0000f5f0       $chain$2$?acquire@scoped_lock@queuing_rw_mutex@tbb@@QEAAXAEAV23@_N@Z 00000001800475f0     queuing_rw_mutex.obj
 0002:0000f600       $chain$3$?acquire@scoped_lock@queuing_rw_mutex@tbb@@QEAAXAEAV23@_N@Z 0000000180047600     queuing_rw_mutex.obj
 0002:0000f610       $unwind$?reload_tasks@generic_scheduler@internal@tbb@@QEAAPEAVtask@3@XZ 0000000180047610     scheduler.obj
 0002:0000f610       $unwind$?release@scoped_lock@queuing_rw_mutex@tbb@@QEAAXXZ 0000000180047610     queuing_rw_mutex.obj
 0002:0000f61c       $chain$1$?release@scoped_lock@queuing_rw_mutex@tbb@@QEAAXXZ 000000018004761c     queuing_rw_mutex.obj
 0002:0000f634       $chain$2$?release@scoped_lock@queuing_rw_mutex@tbb@@QEAAXXZ 0000000180047634     queuing_rw_mutex.obj
 0002:0000f648       $chain$3$?release@scoped_lock@queuing_rw_mutex@tbb@@QEAAXXZ 0000000180047648     queuing_rw_mutex.obj
 0002:0000f648       $chain$5$?release@scoped_lock@queuing_rw_mutex@tbb@@QEAAXXZ 0000000180047648     queuing_rw_mutex.obj
 0002:0000f658       $chain$4$?release@scoped_lock@queuing_rw_mutex@tbb@@QEAAXXZ 0000000180047658     queuing_rw_mutex.obj
 0002:0000f66c       $chain$6$?release@scoped_lock@queuing_rw_mutex@tbb@@QEAAXXZ 000000018004766c     queuing_rw_mutex.obj
 0002:0000f680       $chain$0$?downgrade_to_reader@scoped_lock@queuing_rw_mutex@tbb@@QEAA_NXZ 0000000180047680     queuing_rw_mutex.obj
 0002:0000f694       $chain$1$?downgrade_to_reader@scoped_lock@queuing_rw_mutex@tbb@@QEAA_NXZ 0000000180047694     queuing_rw_mutex.obj
 0002:0000f6a4       $unwind$?internal_initialize@task_arena_base@internal@interface7@tbb@@IEAAXXZ 00000001800476a4     arena.obj
 0002:0000f6a4       $unwind$?upgrade_to_writer@scoped_lock@queuing_rw_mutex@tbb@@QEAA_NXZ 00000001800476a4     queuing_rw_mutex.obj
 0002:0000f6b8       $unwind$??1scoped_lock_read@reader_writer_lock@interface5@tbb@@QEAA@XZ 00000001800476b8     reader_writer_lock.obj
 0002:0000f6d0       $ip2state$??1scoped_lock_read@reader_writer_lock@interface5@tbb@@QEAA@XZ 00000001800476d0     reader_writer_lock.obj
 0002:0000f6d8       $unwind$?lock@reader_writer_lock@interface5@tbb@@QEAAXXZ 00000001800476d8     reader_writer_lock.obj
 0002:0000f6e4       $unwind$?try_lock@reader_writer_lock@interface5@tbb@@QEAA_NXZ 00000001800476e4     reader_writer_lock.obj
 0002:0000f6f0       $unwind$?start_write@reader_writer_lock@interface5@tbb@@AEAA_NPEAVscoped_lock@123@@Z 00000001800476f0     reader_writer_lock.obj
 0002:0000f710       $ip2state$?start_write@reader_writer_lock@interface5@tbb@@AEAA_NPEAVscoped_lock@123@@Z 0000000180047710     reader_writer_lock.obj
 0002:0000f728       $unwind$??_Gscoped_lock@reader_writer_lock@interface5@tbb@@QEAAPEAXI@Z 0000000180047728     reader_writer_lock.obj
 0002:0000f738       $ip2state$??_Gscoped_lock@reader_writer_lock@interface5@tbb@@QEAAPEAXI@Z 0000000180047738     reader_writer_lock.obj
 0002:0000f750       $chain$2$?set_next_writer@reader_writer_lock@interface5@tbb@@AEAAXPEAVscoped_lock@123@@Z 0000000180047750     reader_writer_lock.obj
 0002:0000f76c       $chain$3$?set_next_writer@reader_writer_lock@interface5@tbb@@AEAAXPEAVscoped_lock@123@@Z 000000018004776c     reader_writer_lock.obj
 0002:0000f784       $chain$4$?set_next_writer@reader_writer_lock@interface5@tbb@@AEAAXPEAVscoped_lock@123@@Z 0000000180047784     reader_writer_lock.obj
 0002:0000f794       $unwind$?lock_read@reader_writer_lock@interface5@tbb@@QEAAXXZ 0000000180047794     reader_writer_lock.obj
 0002:0000f7a4       $stateUnwindMap$?lock_read@reader_writer_lock@interface5@tbb@@QEAAXXZ 00000001800477a4     reader_writer_lock.obj
 0002:0000f7b8       $ip2state$?lock_read@reader_writer_lock@interface5@tbb@@QEAAXXZ 00000001800477b8     reader_writer_lock.obj
 0002:0000f7d8       $chain$1$?start_read@reader_writer_lock@interface5@tbb@@AEAAXPEAVscoped_lock_read@123@@Z 00000001800477d8     reader_writer_lock.obj
 0002:0000f7f0       $chain$2$?start_read@reader_writer_lock@interface5@tbb@@AEAAXPEAVscoped_lock_read@123@@Z 00000001800477f0     reader_writer_lock.obj
 0002:0000f804       $chain$3$?start_read@reader_writer_lock@interface5@tbb@@AEAAXPEAVscoped_lock_read@123@@Z 0000000180047804     reader_writer_lock.obj
 0002:0000f814       $chain$4$?start_read@reader_writer_lock@interface5@tbb@@AEAAXPEAVscoped_lock_read@123@@Z 0000000180047814     reader_writer_lock.obj
 0002:0000f828       $chain$5$?start_read@reader_writer_lock@interface5@tbb@@AEAAXPEAVscoped_lock_read@123@@Z 0000000180047828     reader_writer_lock.obj
 0002:0000f838       $unwind$?unlock@reader_writer_lock@interface5@tbb@@QEAAXXZ 0000000180047838     reader_writer_lock.obj
 0002:0000f850       $ip2state$?unlock@reader_writer_lock@interface5@tbb@@QEAAXXZ 0000000180047850     reader_writer_lock.obj
 0002:0000f868       $unwind$?end_write@reader_writer_lock@interface5@tbb@@AEAAXPEAVscoped_lock@123@@Z 0000000180047868     reader_writer_lock.obj
 0002:0000f87c       $chain$0$?end_write@reader_writer_lock@interface5@tbb@@AEAAXPEAVscoped_lock@123@@Z 000000018004787c     reader_writer_lock.obj
 0002:0000f890       $chain$1$?end_write@reader_writer_lock@interface5@tbb@@AEAAXPEAVscoped_lock@123@@Z 0000000180047890     reader_writer_lock.obj
 0002:0000f8a0       $unwind$?internal_acquire_reader@spin_rw_mutex@tbb@@CAXPEAV12@@Z 00000001800478a0     spin_rw_mutex_v2.obj
 0002:0000f8a0       $unwind$?internal_acquire_writer@spin_rw_mutex_v3@tbb@@AEAA_NXZ 00000001800478a0     spin_rw_mutex.obj
 0002:0000f8a0       $unwind$?internal_acquire_writer@spin_rw_mutex@tbb@@CA_NPEAV12@@Z 00000001800478a0     spin_rw_mutex_v2.obj
 0002:0000f8ac       $chain$0$?internal_upgrade@spin_rw_mutex_v3@tbb@@AEAA_NXZ 00000001800478ac     spin_rw_mutex.obj
 0002:0000f8c0       $chain$3$?internal_upgrade@spin_rw_mutex_v3@tbb@@AEAA_NXZ 00000001800478c0     spin_rw_mutex.obj
 0002:0000f8c0       $chain$1$?internal_upgrade@spin_rw_mutex_v3@tbb@@AEAA_NXZ 00000001800478c0     spin_rw_mutex.obj
 0002:0000f8d0       $chain$2$?internal_upgrade@spin_rw_mutex_v3@tbb@@AEAA_NXZ 00000001800478d0     spin_rw_mutex.obj
 0002:0000f8e4       $unwind$?cancel_wait@concurrent_monitor@internal@tbb@@QEAAXAEAVthread_context@123@@Z 00000001800478e4     concurrent_monitor.obj
 0002:0000f8e4       $unwind$?internal_upgrade@x86_rtm_rw_mutex@internal@interface8@tbb@@AEAA_NAEAVscoped_lock@1234@@Z 00000001800478e4     x86_rtm_rw_mutex.obj
 0002:0000f8f0       $chain$1$?internal_upgrade@x86_rtm_rw_mutex@internal@interface8@tbb@@AEAA_NAEAVscoped_lock@1234@@Z 00000001800478f0     x86_rtm_rw_mutex.obj
 0002:0000f908       $chain$3$?internal_upgrade@x86_rtm_rw_mutex@internal@interface8@tbb@@AEAA_NAEAVscoped_lock@1234@@Z 0000000180047908     x86_rtm_rw_mutex.obj
 0002:0000f920       $chain$4$?internal_upgrade@x86_rtm_rw_mutex@internal@interface8@tbb@@AEAA_NAEAVscoped_lock@1234@@Z 0000000180047920     x86_rtm_rw_mutex.obj
 0002:0000f930       $unwind$?destroy_condvar_using_event@internal@tbb@@YAXPEAUcondition_variable_using_event@1interface5@2@@Z 0000000180047930     condition_variable.obj
 0002:0000f930       $unwind$??$on_thread_leaving@$00@arena@internal@tbb@@QEAAXXZ 0000000180047930     arena.obj
 0002:0000f940       $chain$0$?destroy_condvar_using_event@internal@tbb@@YAXPEAUcondition_variable_using_event@1interface5@2@@Z 0000000180047940     condition_variable.obj
 0002:0000f954       $chain$1$?destroy_condvar_using_event@internal@tbb@@YAXPEAUcondition_variable_using_event@1interface5@2@@Z 0000000180047954     condition_variable.obj
 0002:0000f964       $chain$1$?internal_initialize_condition_variable@internal@interface5@tbb@@YAXAEATcondvar_impl_t@123@@Z 0000000180047964     condition_variable.obj
 0002:0000f97c       $chain$2$?internal_initialize_condition_variable@internal@interface5@tbb@@YAXAEATcondvar_impl_t@123@@Z 000000018004797c     condition_variable.obj
 0002:0000f98c       $unwind$??$occupy_free_slot@$0A@@arena@internal@tbb@@QEAA_KAEAVgeneric_scheduler@12@@Z 000000018004798c     arena.obj
 0002:0000f98c       $unwind$?mandatory_concurrency_enable@market@internal@tbb@@QEAA_NPEAVarena@23@@Z 000000018004798c     market.obj
 0002:0000f98c       $unwind$?get_mailbox_task@generic_scheduler@internal@tbb@@QEAAPEAVtask@3@XZ 000000018004798c     scheduler.obj
 0002:0000f98c       $unwind$?internal_condition_variable_wait@internal@interface5@tbb@@YA_NAEATcondvar_impl_t@123@PEAVmutex@3@PEBVinterval_t@tick_count@3@@Z 000000018004798c     condition_variable.obj
 0002:0000f99c       $chain$0$?join@tbb_thread_v3@internal@tbb@@QEAAXXZ 000000018004799c     tbb_thread.obj
 0002:0000f9b0       $chain$1$?join@tbb_thread_v3@internal@tbb@@QEAAXXZ 00000001800479b0     tbb_thread.obj
 0002:0000f9c0       $unwind$?terminate@task_scheduler_init@tbb@@QEAAXXZ 00000001800479c0     governor.obj
 0002:0000f9c0       $unwind$_beginthreadex     00000001800479c0     libucrt:thread.obj
 0002:0000f9c0       $unwind$_strdup            00000001800479c0     libucrt:strdup.obj
 0002:0000f9c0       $unwind$?internal_start@tbb_thread_v3@internal@tbb@@AEAAXP6AIPEAX@Z0@Z 00000001800479c0     tbb_thread.obj
 0002:0000f9d0       $unwind$?hardware_concurrency@tbb_thread_v3@internal@tbb@@SAIXZ 00000001800479d0     tbb_thread.obj
 0002:0000f9e0       $ip2state$?hardware_concurrency@tbb_thread_v3@internal@tbb@@SAIXZ 00000001800479e0     tbb_thread.obj
 0002:0000f9e8       $unwind$?thread_sleep_v3@internal@tbb@@YAXAEBVinterval_t@tick_count@2@@Z 00000001800479e8     tbb_thread.obj
 0002:0000fa00       $chain$1$?thread_sleep_v3@internal@tbb@@YAXAEBVinterval_t@tick_count@2@@Z 0000000180047a00     tbb_thread.obj
 0002:0000fa18       $chain$2$?thread_sleep_v3@internal@tbb@@YAXAEBVinterval_t@tick_count@2@@Z 0000000180047a18     tbb_thread.obj
 0002:0000fa28       $chain$1$?cancel_wait@concurrent_monitor@internal@tbb@@QEAAXAEAVthread_context@123@@Z 0000000180047a28     concurrent_monitor.obj
 0002:0000fa40       $chain$2$?cancel_wait@concurrent_monitor@internal@tbb@@QEAAXAEAVthread_context@123@@Z 0000000180047a40     concurrent_monitor.obj
 0002:0000fa50       $unwind$?abort_all_relaxed@concurrent_monitor@internal@tbb@@QEAAXXZ 0000000180047a50     concurrent_monitor.obj
 0002:0000fa50       $unwind$?notify_all_relaxed@concurrent_monitor@internal@tbb@@QEAAXXZ 0000000180047a50     concurrent_monitor.obj
 0002:0000fa58       $chain$0$?notify_all_relaxed@concurrent_monitor@internal@tbb@@QEAAXXZ 0000000180047a58     concurrent_monitor.obj
 0002:0000fa6c       $chain$1$?notify_all_relaxed@concurrent_monitor@internal@tbb@@QEAAXXZ 0000000180047a6c     concurrent_monitor.obj
 0002:0000fa80       $chain$2$?notify_all_relaxed@concurrent_monitor@internal@tbb@@QEAAXXZ 0000000180047a80     concurrent_monitor.obj
 0002:0000fa90       $chain$3$?notify_all_relaxed@concurrent_monitor@internal@tbb@@QEAAXXZ 0000000180047a90     concurrent_monitor.obj
 0002:0000faa0       $chain$0$?abort_all_relaxed@concurrent_monitor@internal@tbb@@QEAAXXZ 0000000180047aa0     concurrent_monitor.obj
 0002:0000fab4       $chain$1$?abort_all_relaxed@concurrent_monitor@internal@tbb@@QEAAXXZ 0000000180047ab4     concurrent_monitor.obj
 0002:0000fac8       $chain$2$?abort_all_relaxed@concurrent_monitor@internal@tbb@@QEAAXXZ 0000000180047ac8     concurrent_monitor.obj
 0002:0000fad8       $chain$3$?abort_all_relaxed@concurrent_monitor@internal@tbb@@QEAAXXZ 0000000180047ad8     concurrent_monitor.obj
 0002:0000fae8       $unwind$fprintf            0000000180047ae8     private_server.obj
 0002:0000faf4       $unwind$?launch@thread_monitor@internal@rml@@SAPEAXP6AIPEAX@Z0_KPEB_K@Z 0000000180047af4     private_server.obj
 0002:0000fb0c       $chain$0$?request_close_connection@private_server@rml@internal@tbb@@UEAAX_N@Z 0000000180047b0c     private_server.obj
 0002:0000fb20       $chain$1$?request_close_connection@private_server@rml@internal@tbb@@UEAAX_N@Z 0000000180047b20     private_server.obj
 0002:0000fb34       $chain$2$?request_close_connection@private_server@rml@internal@tbb@@UEAAX_N@Z 0000000180047b34     private_server.obj
 0002:0000fb44       $chain$3$?request_close_connection@private_server@rml@internal@tbb@@UEAAX_N@Z 0000000180047b44     private_server.obj
 0002:0000fb54       $unwind$?thread_routine@private_worker@rml@internal@tbb@@CAIPEAX@Z 0000000180047b54     private_server.obj
 0002:0000fb68       $unwind$??0private_server@rml@internal@tbb@@QEAA@AEAVtbb_client@123@@Z 0000000180047b68     private_server.obj
 0002:0000fb84       $stateUnwindMap$??0private_server@rml@internal@tbb@@QEAA@AEAVtbb_client@123@@Z 0000000180047b84     private_server.obj
 0002:0000fb98       $ip2state$??0private_server@rml@internal@tbb@@QEAA@AEAVtbb_client@123@@Z 0000000180047b98     private_server.obj
 0002:0000fbc0       $unwind$??1private_server@rml@internal@tbb@@EEAA@XZ 0000000180047bc0     private_server.obj
 0002:0000fbd8       $ip2state$??1private_server@rml@internal@tbb@@EEAA@XZ 0000000180047bd8     private_server.obj
 0002:0000fbe0       $unwind$?wake_some@private_server@rml@internal@tbb@@AEAAXH@Z 0000000180047be0     private_server.obj
 0002:0000fbe0       $unwind$?state_case_type@?$output_processor@DV?$stream_output_adapter@D@__crt_stdio_output@@V?$standard_base@DV?$stream_output_adapter@D@__crt_stdio_output@@@2@@__crt_stdio_output@@AEAA_NXZ 0000000180047be0     libucrt:output.obj
 0002:0000fbe0       $unwind$?state_case_type@?$output_processor@DV?$string_output_adapter@D@__crt_stdio_output@@V?$format_validation_base@DV?$string_output_adapter@D@__crt_stdio_output@@@2@@__crt_stdio_output@@AEAA_NXZ 0000000180047be0     libucrt:output.obj
 0002:0000fbe0       $unwind$?state_case_type@?$output_processor@DV?$string_output_adapter@D@__crt_stdio_output@@V?$standard_base@DV?$string_output_adapter@D@__crt_stdio_output@@@2@@__crt_stdio_output@@AEAA_NXZ 0000000180047be0     libucrt:output.obj
 0002:0000fbf8       $unwind$?open@tbb_factory@rml@internal@tbb@@QEAA?AW4status_type@factory@2@XZ 0000000180047bf8     rml_tbb.obj
 0002:0000fc08       $unwind$_snprintf          0000000180047c08     tbb_misc.obj
 0002:0000fc08       $unwind$sprintf_s          0000000180047c08     libvcruntime:undname.obj
 0002:0000fc18       $unwind$?runtime_warning@internal@tbb@@YAXPEBDZZ 0000000180047c18     tbb_misc.obj
 0002:0000fc2c       $unwind$?handle_perror@internal@tbb@@YAXHPEBD@Z 0000000180047c2c     tbb_misc.obj
 0002:0000fc40       $unwind$?handle_win_error@internal@tbb@@YAXH@Z 0000000180047c40     tbb_misc.obj
 0002:0000fc50       $unwind$?__scrt_throw_std_bad_alloc@@YAXXZ 0000000180047c50     LIBCMT:throw_bad_alloc.obj
 0002:0000fc50       $unwind$?_Xlength_error@std@@YAXPEBD@Z 0000000180047c50     libcpmt:xthrow.obj
 0002:0000fc50       $unwind$?throw_bad_last_alloc_exception_v4@internal@tbb@@YAXXZ 0000000180047c50     tbb_misc.obj
 0002:0000fc50       $unwind$__dcrt_lowio_initialize_console_output 0000000180047c50     libucrt:initcon.obj
 0002:0000fc50       $unwind$?__scrt_throw_std_bad_array_new_length@@YAXXZ 0000000180047c50     LIBCMT:throw_bad_alloc.obj
 0002:0000fc50       $unwind$_raise_exc         0000000180047c50     libucrt:fpexcept.obj
 0002:0000fc58       $unwind$?construct_ptd_array@@YAXQEAU__acrt_ptd@@@Z 0000000180047c58     libucrt:per_thread_data.obj
 0002:0000fc58       $unwind$?throw_exception_v4@internal@tbb@@YAXW4exception_id@12@@Z 0000000180047c58     tbb_misc.obj
 0002:0000fc60       $unwind$?PrintExtraVersionInfo@internal@tbb@@YAXPEBD0ZZ 0000000180047c60     tbb_misc.obj
 0002:0000fc74       $chain$0$?PrintExtraVersionInfo@internal@tbb@@YAXPEBD0ZZ 0000000180047c74     tbb_misc.obj
 0002:0000fc88       $chain$1$?PrintExtraVersionInfo@internal@tbb@@YAXPEBD0ZZ 0000000180047c88     tbb_misc.obj
 0002:0000fc98       $unwind$?initialize_hardware_concurrency_info@internal@tbb@@YAXXZ 0000000180047c98     tbb_misc_ex.obj
 0002:0000fcac       $chain$1$?initialize_hardware_concurrency_info@internal@tbb@@YAXXZ 0000000180047cac     tbb_misc_ex.obj
 0002:0000fcc4       $chain$2$?initialize_hardware_concurrency_info@internal@tbb@@YAXXZ 0000000180047cc4     tbb_misc_ex.obj
 0002:0000fcd8       $chain$3$?initialize_hardware_concurrency_info@internal@tbb@@YAXXZ 0000000180047cd8     tbb_misc_ex.obj
 0002:0000fce8       $chain$4$?initialize_hardware_concurrency_info@internal@tbb@@YAXXZ 0000000180047ce8     tbb_misc_ex.obj
 0002:0000fcf8       $unwind$??$type_case_integer_parse_into_buffer@_K@?$output_processor@DV?$string_output_adapter@D@__crt_stdio_output@@V?$format_validation_base@DV?$string_output_adapter@D@__crt_stdio_output@@@2@@__crt_stdio_output@@AEAAX_KI_N@Z 0000000180047cf8     libucrt:output.obj
 0002:0000fcf8       $unwind$??$type_case_integer_parse_into_buffer@I@?$output_processor@DV?$string_output_adapter@D@__crt_stdio_output@@V?$format_validation_base@DV?$string_output_adapter@D@__crt_stdio_output@@@2@@__crt_stdio_output@@AEAAXII_N@Z 0000000180047cf8     libucrt:output.obj
 0002:0000fcf8       $unwind$??$type_case_integer_parse_into_buffer@I@?$output_processor@DV?$stream_output_adapter@D@__crt_stdio_output@@V?$standard_base@DV?$stream_output_adapter@D@__crt_stdio_output@@@2@@__crt_stdio_output@@AEAAXII_N@Z 0000000180047cf8     libucrt:output.obj
 0002:0000fcf8       $unwind$??$type_case_integer_parse_into_buffer@_K@?$output_processor@DV?$string_output_adapter@D@__crt_stdio_output@@V?$standard_base@DV?$string_output_adapter@D@__crt_stdio_output@@@2@@__crt_stdio_output@@AEAAX_KI_N@Z 0000000180047cf8     libucrt:output.obj
 0002:0000fcf8       $unwind$??$type_case_integer_parse_into_buffer@I@?$output_processor@DV?$string_output_adapter@D@__crt_stdio_output@@V?$standard_base@DV?$string_output_adapter@D@__crt_stdio_output@@@2@@__crt_stdio_output@@AEAAXII_N@Z 0000000180047cf8     libucrt:output.obj
 0002:0000fcf8       $unwind$?occupy_free_slot_in_range@arena@internal@tbb@@QEAA_KAEAVgeneric_scheduler@23@_K1@Z 0000000180047cf8     arena.obj
 0002:0000fcf8       $unwind$??$type_case_integer_parse_into_buffer@_K@?$output_processor@DV?$stream_output_adapter@D@__crt_stdio_output@@V?$standard_base@DV?$stream_output_adapter@D@__crt_stdio_output@@@2@@__crt_stdio_output@@AEAAX_KI_N@Z 0000000180047cf8     libucrt:output.obj
 0002:0000fcf8       $unwind$?FindProcessorGroupIndex@internal@tbb@@YAHH@Z 0000000180047cf8     tbb_misc_ex.obj
 0002:0000fcf8       $unwind$??$write_multiple_characters@V?$string_output_adapter@D@__crt_stdio_output@@D@__crt_stdio_output@@YAXAEBV?$string_output_adapter@D@0@DHQEAH@Z 0000000180047cf8     libucrt:output.obj
 0002:0000fd00       $chain$1$?AvailableHwConcurrency@internal@tbb@@YAHXZ 0000000180047d00     tbb_misc_ex.obj
 0002:0000fd18       $chain$2$?AvailableHwConcurrency@internal@tbb@@YAHXZ 0000000180047d18     tbb_misc_ex.obj
 0002:0000fd28       $unwind$?allocate@allocate_root_proxy@internal@tbb@@SAAEAVtask@3@_K@Z 0000000180047d28     task.obj
 0002:0000fd38       $unwind$?resize@affinity_partitioner_base_v3@internal@tbb@@AEAAXI@Z 0000000180047d38     task.obj
 0002:0000fd48       $chain$1$?resize@affinity_partitioner_base_v3@internal@tbb@@AEAAXI@Z 0000000180047d48     task.obj
 0002:0000fd60       $chain$2$?resize@affinity_partitioner_base_v3@internal@tbb@@AEAAXI@Z 0000000180047d60     task.obj
 0002:0000fd70       $unwind$?_Copy_exception@exception_ptr@std@@SA?AV12@PEAXPEBX@Z 0000000180047d70     task_group_context.obj
 0002:0000fd84       $stateUnwindMap$?_Copy_exception@exception_ptr@std@@SA?AV12@PEAXPEBX@Z 0000000180047d84     task_group_context.obj
 0002:0000fd90       $ip2state$?_Copy_exception@exception_ptr@std@@SA?AV12@PEAXPEBX@Z 0000000180047d90     task_group_context.obj
 0002:0000fda8       $unwind$?throw_self@captured_exception@tbb@@UEAAXXZ 0000000180047da8     task_group_context.obj
 0002:0000fdb4       $unwind$??_Gcaptured_exception@tbb@@UEAAPEAXI@Z 0000000180047db4     task_group_context.obj
 0002:0000fdc8       $ip2state$??_Gcaptured_exception@tbb@@UEAAPEAXI@Z 0000000180047dc8     task_group_context.obj
 0002:0000fde0       $unwind$??_Gtbb_exception@tbb@@UEAAPEAXI@Z 0000000180047de0     task_group_context.obj
 0002:0000fdf8       $ip2state$??_Gtbb_exception@tbb@@UEAAPEAXI@Z 0000000180047df8     task_group_context.obj
 0002:0000fe10       $unwind$??0tbb_exception_ptr@internal@tbb@@QEAA@AEBVcaptured_exception@2@@Z 0000000180047e10     task_group_context.obj
 0002:0000fe10       $unwind$?getArgumentList@UnDecorator@@CA?AVDName@@XZ 0000000180047e10     libvcruntime:undname.obj
 0002:0000fe20       $chain$1$?duplicate_string@tbb@@YAPEADPEBD@Z 0000000180047e20     task_group_context.obj
 0002:0000fe38       $chain$2$?duplicate_string@tbb@@YAPEADPEBD@Z 0000000180047e38     task_group_context.obj
 0002:0000fe48       $unwind$?allocate@tbb_exception_ptr@internal@tbb@@SAPEAV123@AEBVtbb_exception@3@@Z 0000000180047e48     task_group_context.obj
 0002:0000fe48       $unwind$?allocate@tbb_exception_ptr@internal@tbb@@SAPEAV123@XZ 0000000180047e48     task_group_context.obj
 0002:0000fe5c       $stateUnwindMap$?allocate@tbb_exception_ptr@internal@tbb@@SAPEAV123@XZ 0000000180047e5c     task_group_context.obj
 0002:0000fe5c       $stateUnwindMap$?allocate@tbb_exception_ptr@internal@tbb@@SAPEAV123@AEBVtbb_exception@3@@Z 0000000180047e5c     task_group_context.obj
 0002:0000fe68       $ip2state$?allocate@tbb_exception_ptr@internal@tbb@@SAPEAV123@AEBVtbb_exception@3@@Z 0000000180047e68     task_group_context.obj
 0002:0000fe68       $ip2state$?allocate@tbb_exception_ptr@internal@tbb@@SAPEAV123@XZ 0000000180047e68     task_group_context.obj
 0002:0000fe80       $unwind$??1task_group_context@tbb@@QEAA@XZ 0000000180047e80     task_group_context.obj
 0002:0000fea0       $ip2state$??1task_group_context@tbb@@QEAA@XZ 0000000180047ea0     task_group_context.obj
 0002:0000fea8       $unwind$?register_with@task_group_context@tbb@@QEAAXPEAVgeneric_scheduler@internal@2@@Z 0000000180047ea8     task_group_context.obj
 0002:0000feb8       $chain$1$?register_with@task_group_context@tbb@@QEAAXPEAVgeneric_scheduler@internal@2@@Z 0000000180047eb8     task_group_context.obj
 0002:0000fed0       $chain$2$?register_with@task_group_context@tbb@@QEAAXPEAVgeneric_scheduler@internal@2@@Z 0000000180047ed0     task_group_context.obj
 0002:0000fee4       $chain$3$?register_with@task_group_context@tbb@@QEAAXPEAVgeneric_scheduler@internal@2@@Z 0000000180047ee4     task_group_context.obj
 0002:0000fef4       $chain$1$?bind_to@task_group_context@tbb@@QEAAXPEAVgeneric_scheduler@internal@2@@Z 0000000180047ef4     task_group_context.obj
 0002:0000ff0c       $chain$3$?bind_to@task_group_context@tbb@@QEAAXPEAVgeneric_scheduler@internal@2@@Z 0000000180047f0c     task_group_context.obj
 0002:0000ff20       $chain$4$?bind_to@task_group_context@tbb@@QEAAXPEAVgeneric_scheduler@internal@2@@Z 0000000180047f20     task_group_context.obj
 0002:0000ff30       $unwind$?register_pending_exception@task_group_context@tbb@@QEAAXXZ 0000000180047f30     task_group_context.obj
 0002:0000ff40       $tryMap$?register_pending_exception@task_group_context@tbb@@QEAAXXZ 0000000180047f40     task_group_context.obj
 0002:0000ff54       $handlerMap$0$?register_pending_exception@task_group_context@tbb@@QEAAXXZ 0000000180047f54     task_group_context.obj
 0002:0000ff90       $ip2state$?register_pending_exception@task_group_context@tbb@@QEAAXXZ 0000000180047f90     task_group_context.obj
 0002:0000ffe0       $unwind$?catch$2@?0??register_pending_exception@task_group_context@tbb@@QEAAXXZ@4HA 0000000180047fe0     task_group_context.obj
 0002:0000ffe0       $unwind$?catch$0@?0??register_pending_exception@task_group_context@tbb@@QEAAXXZ@4HA 0000000180047fe0     task_group_context.obj
 0002:0000fff4       $unwind$?catch$1@?0??register_pending_exception@task_group_context@tbb@@QEAAXXZ@4HA 0000000180047ff4     task_group_context.obj
 0002:0001000c       $chain$0$?set_priority@task_group_context@tbb@@QEAAXW4priority_t@2@@Z 000000018004800c     task_group_context.obj
 0002:00010020       $chain$1$?set_priority@task_group_context@tbb@@QEAAXW4priority_t@2@@Z 0000000180048020     task_group_context.obj
 0002:00010030       $unwind$??$make_exception_ptr@Vcaptured_exception@tbb@@@std@@YA?AVexception_ptr@0@Vcaptured_exception@tbb@@@Z 0000000180048030     task_group_context.obj
 0002:00010048       $ip2state$??$make_exception_ptr@Vcaptured_exception@tbb@@@std@@YA?AVexception_ptr@0@Vcaptured_exception@tbb@@@Z 0000000180048048     task_group_context.obj
 0002:00010050       $unwind$??$propagate_task_group_state@_K@market@internal@tbb@@QEAA_NPEQtask_group_context@2@_KAEAV32@_K@Z 0000000180048050     task_group_context.obj
 0002:00010064       $unwind$??$propagate_task_group_state@_J@market@internal@tbb@@QEAA_NPEQtask_group_context@2@_JAEAV32@_J@Z 0000000180048064     task_group_context.obj
 0002:0001007c       $chain$0$?release_resources@governor@internal@tbb@@CAXXZ 000000018004807c     governor.obj
 0002:00010090       $chain$1$?release_resources@governor@internal@tbb@@CAXXZ 0000000180048090     governor.obj
 0002:000100a0       $unwind$?create_rml_server@governor@internal@tbb@@CAPEAVtbb_server@rml@23@AEAVtbb_client@523@@Z 00000001800480a0     governor.obj
 0002:000100b4       $stateUnwindMap$?create_rml_server@governor@internal@tbb@@CAPEAVtbb_server@rml@23@AEAVtbb_client@523@@Z 00000001800480b4     governor.obj
 0002:000100c0       $ip2state$?create_rml_server@governor@internal@tbb@@CAPEAVtbb_server@rml@23@AEAVtbb_client@523@@Z 00000001800480c0     governor.obj
 0002:000100d8       $unwind$?terminate_scheduler@governor@internal@tbb@@SAXPEAVgeneric_scheduler@23@PEBVtask_scheduler_init@3@@Z 00000001800480d8     governor.obj
 0002:000100d8       $unwind$?add_ref@__TBB_InitOnce@internal@tbb@@SAXXZ 00000001800480d8     tbb_main.obj
 0002:000100d8       $unwind$wctomb_s           00000001800480d8     libucrt:wctomb.obj
 0002:000100d8       $unwind$_log10_special     00000001800480d8     libucrt:log_special.obj
 0002:000100d8       $unwind$?internal_grow_to_at_least@concurrent_vector_base@internal@tbb@@IEAAX_K0P6AXPEAX0@Z@Z 00000001800480d8     concurrent_vector_v2.obj
 0002:000100d8       $unwind$atol               00000001800480d8     libucrt:atox.obj
 0002:000100d8       $unwind$_invalid_parameter_noinfo 00000001800480d8     libucrt:invalid_parameter.obj
 0002:000100e0       $unwind$?initialize@task_scheduler_init@tbb@@QEAAXH_K@Z 00000001800480e0     governor.obj
 0002:000100f4       $chain$0$?initialize@task_scheduler_init@tbb@@QEAAXH_K@Z 00000001800480f4     governor.obj
 0002:00010108       $chain$3$?initialize@task_scheduler_init@tbb@@QEAAXH_K@Z 0000000180048108     governor.obj
 0002:00010108       $chain$1$?initialize@task_scheduler_init@tbb@@QEAAXH_K@Z 0000000180048108     governor.obj
 0002:00010108       $chain$5$?initialize@task_scheduler_init@tbb@@QEAAXH_K@Z 0000000180048108     governor.obj
 0002:00010118       $chain$4$?initialize@task_scheduler_init@tbb@@QEAAXH_K@Z 0000000180048118     governor.obj
 0002:00010118       $chain$2$?initialize@task_scheduler_init@tbb@@QEAAXH_K@Z 0000000180048118     governor.obj
 0002:0001012c       $chain$1$??$atomic_do_once@P6A_NXZ@internal@tbb@@YAXAEBQ6A_NXZAEAU?$atomic@W4do_once_state@internal@tbb@@@1@@Z 000000018004812c     governor.obj
 0002:00010144       $chain$3$??$atomic_do_once@P6A_NXZ@internal@tbb@@YAXAEBQ6A_NXZAEAU?$atomic@W4do_once_state@internal@tbb@@@1@@Z 0000000180048144     governor.obj
 0002:0001015c       $chain$4$??$atomic_do_once@P6A_NXZ@internal@tbb@@YAXAEBQ6A_NXZAEAU?$atomic@W4do_once_state@internal@tbb@@@1@@Z 000000018004815c     governor.obj
 0002:0001016c       $unwind$?global_market@market@internal@tbb@@CAAEAV123@_NI_K@Z 000000018004816c     market.obj
 0002:0001018c       $stateUnwindMap$?global_market@market@internal@tbb@@CAAEAV123@_NI_K@Z 000000018004818c     market.obj
 0002:000101a0       $ip2state$?global_market@market@internal@tbb@@CAAEAV123@_NI_K@Z 00000001800481a0     market.obj
 0002:000101c8       $unwind$?try_get_function@@YAPEAXW4function_id@?A0x679b24ab@@QEBDQEBW4module_id@2@2@Z 00000001800481c8     libvcruntime:winapi_downlevel.obj
 0002:000101c8       $unwind$?IsInExceptionSpec@@YAEPEAUEHExceptionRecord@@PEBU_s_ESTypeList@@@Z 00000001800481c8     libvcruntime:frame.obj
 0002:000101c8       $unwind$?try_get_function@@YAPEAXW4function_id@?A0x63058377@@QEBDQEBW4module_id@2@2@Z 00000001800481c8     libucrt:winapi_thunks.obj
 0002:000101c8       $unwind$?set_active_num_workers@market@internal@tbb@@SAXI@Z 00000001800481c8     market.obj
 0002:000101c8       $unwind$_fwrite_nolock     00000001800481c8     libucrt:fwrite.obj
 0002:000101e4       $unwind$?arena_in_need@market@internal@tbb@@AEAAPEAVarena@23@PEAV423@@Z 00000001800481e4     market.obj
 0002:000101f0       $unwind$?update_allotment@market@internal@tbb@@AEAAX_J@Z 00000001800481f0     market.obj
 0002:000101fc       $chain$0$?update_allotment@market@internal@tbb@@AEAAX_J@Z 00000001800481fc     market.obj
 0002:00010210       $chain$2$?update_allotment@market@internal@tbb@@AEAAX_J@Z 0000000180048210     market.obj
 0002:00010228       $chain$3$?update_allotment@market@internal@tbb@@AEAAX_J@Z 0000000180048228     market.obj
 0002:00010238       $chain$4$?update_allotment@market@internal@tbb@@AEAAX_J@Z 0000000180048238     market.obj
 0002:00010248       $unwind$?mandatory_concurrency_disable@market@internal@tbb@@QEAAXPEAVarena@23@@Z 0000000180048248     market.obj
 0002:0001025c       $chain$0$?mandatory_concurrency_disable@market@internal@tbb@@QEAAXPEAVarena@23@@Z 000000018004825c     market.obj
 0002:00010270       $chain$1$?mandatory_concurrency_disable@market@internal@tbb@@QEAAXPEAVarena@23@@Z 0000000180048270     market.obj
 0002:00010280       $unwind$?adjust_demand@market@internal@tbb@@QEAAXAEAVarena@23@H@Z 0000000180048280     market.obj
 0002:0001028c       $chain$2$?adjust_demand@market@internal@tbb@@QEAAXAEAVarena@23@H@Z 000000018004828c     market.obj
 0002:000102a8       $chain$3$?adjust_demand@market@internal@tbb@@QEAAXAEAVarena@23@H@Z 00000001800482a8     market.obj
 0002:000102bc       $chain$4$?adjust_demand@market@internal@tbb@@QEAAXAEAVarena@23@H@Z 00000001800482bc     market.obj
 0002:000102cc       $chain$5$?adjust_demand@market@internal@tbb@@QEAAXAEAVarena@23@H@Z 00000001800482cc     market.obj
 0002:000102dc       $unwind$?cleanup@market@internal@tbb@@EEAAXAEAVjob@rml@@@Z 00000001800482dc     market.obj
 0002:000102ec       $chain$0$?cleanup@market@internal@tbb@@EEAAXAEAVjob@rml@@@Z 00000001800482ec     market.obj
 0002:00010300       $chain$1$?cleanup@market@internal@tbb@@EEAAXAEAVjob@rml@@@Z 0000000180048300     market.obj
 0002:00010310       $unwind$?update_arena_top_priority@market@internal@tbb@@AEAAXAEAVarena@23@_J@Z 0000000180048310     market.obj
 0002:00010320       $unwind$?update_arena_priority@market@internal@tbb@@QEAA_NAEAVarena@23@_J@Z 0000000180048320     market.obj
 0002:00010328       $chain$2$?update_arena_priority@market@internal@tbb@@QEAA_NAEAVarena@23@_J@Z 0000000180048328     market.obj
 0002:00010344       $chain$3$?update_arena_priority@market@internal@tbb@@QEAA_NAEAVarena@23@_J@Z 0000000180048344     market.obj
 0002:00010354       $chain$4$?update_arena_priority@market@internal@tbb@@QEAA_NAEAVarena@23@_J@Z 0000000180048354     market.obj
 0002:00010370       $chain$6$?update_arena_priority@market@internal@tbb@@QEAA_NAEAVarena@23@_J@Z 0000000180048370     market.obj
 0002:00010388       $chain$7$?update_arena_priority@market@internal@tbb@@QEAA_NAEAVarena@23@_J@Z 0000000180048388     market.obj
 0002:0001039c       $unwind$?throw_self@tbb_exception_ptr@internal@tbb@@QEAAXXZ 000000018004839c     arena.obj
 0002:000103ac       $stateUnwindMap$?throw_self@tbb_exception_ptr@internal@tbb@@QEAAXXZ 00000001800483ac     arena.obj
 0002:000103b8       $ip2state$?throw_self@tbb_exception_ptr@internal@tbb@@QEAAXXZ 00000001800483b8     arena.obj
 0002:000103c8       $chain$1$?process@arena@internal@tbb@@QEAAXAEAVgeneric_scheduler@23@@Z 00000001800483c8     arena.obj
 0002:000103e0       $chain$4$?process@arena@internal@tbb@@QEAAXAEAVgeneric_scheduler@23@@Z 00000001800483e0     arena.obj
 0002:000103fc       $chain$5$?process@arena@internal@tbb@@QEAAXAEAVgeneric_scheduler@23@@Z 00000001800483fc     arena.obj
 0002:00010414       $chain$6$?process@arena@internal@tbb@@QEAAXAEAVgeneric_scheduler@23@@Z 0000000180048414     arena.obj
 0002:00010424       $chain$7$?process@arena@internal@tbb@@QEAAXAEAVgeneric_scheduler@23@@Z 0000000180048424     arena.obj
 0002:00010434       $unwind$??0arena@internal@tbb@@QEAA@AEAVmarket@12@II@Z 0000000180048434     arena.obj
 0002:00010450       $stateUnwindMap$??0arena@internal@tbb@@QEAA@AEAVmarket@12@II@Z 0000000180048450     arena.obj
 0002:00010458       $ip2state$??0arena@internal@tbb@@QEAA@AEAVmarket@12@II@Z 0000000180048458     arena.obj
 0002:00010470       $unwind$?allocate_arena@arena@internal@tbb@@SAAEAV123@AEAVmarket@23@II@Z 0000000180048470     arena.obj
 0002:00010490       $stateUnwindMap$?allocate_arena@arena@internal@tbb@@SAAEAV123@AEAVmarket@23@II@Z 0000000180048490     arena.obj
 0002:00010498       $ip2state$?allocate_arena@arena@internal@tbb@@SAAEAV123@AEAVmarket@23@II@Z 0000000180048498     arena.obj
 0002:000104b0       $unwind$?restore_priorities_if_need@arena@internal@tbb@@AEAAXXZ 00000001800484b0     arena.obj
 0002:000104c4       $unwind$?is_out_of_work@arena@internal@tbb@@QEAA_NXZ 00000001800484c4     arena.obj
 0002:000104cc       $chain$6$?is_out_of_work@arena@internal@tbb@@QEAA_NXZ 00000001800484cc     arena.obj
 0002:000104f8       $chain$8$?is_out_of_work@arena@internal@tbb@@QEAA_NXZ 00000001800484f8     arena.obj
 0002:00010524       $chain$9$?is_out_of_work@arena@internal@tbb@@QEAA_NXZ 0000000180048524     arena.obj
 0002:00010534       $unwind$??1nested_arena_context@internal@tbb@@QEAA@XZ 0000000180048534     arena.obj
 0002:00010548       $ip2state$??1nested_arena_context@internal@tbb@@QEAA@XZ 0000000180048548     arena.obj
 0002:00010550       $unwind$?nested_arena_entry@generic_scheduler@internal@tbb@@QEAAXPEAVarena@23@_KAEAUnested_arena_context@23@_N@Z 0000000180048550     arena.obj
 0002:00010560       $chain$0$?nested_arena_entry@generic_scheduler@internal@tbb@@QEAAXPEAVarena@23@_KAEAUnested_arena_context@23@_N@Z 0000000180048560     arena.obj
 0002:00010574       $chain$1$?nested_arena_entry@generic_scheduler@internal@tbb@@QEAAXPEAVarena@23@_KAEAUnested_arena_context@23@_N@Z 0000000180048574     arena.obj
 0002:00010584       $unwind$?nested_arena_exit@generic_scheduler@internal@tbb@@QEAAXAEAUnested_arena_context@23@@Z 0000000180048584     arena.obj
 0002:00010594       $unwind$??1auto_empty_task@internal@tbb@@QEAA@XZ 0000000180048594     arena.obj
 0002:000105a8       $ip2state$??1auto_empty_task@internal@tbb@@QEAA@XZ 00000001800485a8     arena.obj
 0002:000105b0       $unwind$?execute@delegated_task@internal@interface7@tbb@@EEAAPEAVtask@4@XZ 00000001800485b0     arena.obj
 0002:000105cc       $stateUnwindMap$?execute@delegated_task@internal@interface7@tbb@@EEAAPEAVtask@4@XZ 00000001800485cc     arena.obj
 0002:000105d8       $ip2state$?execute@delegated_task@internal@interface7@tbb@@EEAAPEAVtask@4@XZ 00000001800485d8     arena.obj
 0002:000105f0       $unwind$?internal_execute@task_arena_base@internal@interface7@tbb@@IEBAXAEAVdelegate_base@234@@Z 00000001800485f0     arena.obj
 0002:00010618       $stateUnwindMap$?internal_execute@task_arena_base@internal@interface7@tbb@@IEBAXAEAVdelegate_base@234@@Z 0000000180048618     arena.obj
 0002:00010670       $tryMap$?internal_execute@task_arena_base@internal@interface7@tbb@@IEBAXAEAVdelegate_base@234@@Z 0000000180048670     arena.obj
 0002:00010684       $handlerMap$0$?internal_execute@task_arena_base@internal@interface7@tbb@@IEBAXAEAVdelegate_base@234@@Z 0000000180048684     arena.obj
 0002:000106a0       $ip2state$?internal_execute@task_arena_base@internal@interface7@tbb@@IEBAXAEAVdelegate_base@234@@Z 00000001800486a0     arena.obj
 0002:00010728       $unwind$?catch$16@?0??internal_execute@task_arena_base@internal@interface7@tbb@@IEBAXAEAVdelegate_base@234@@Z@4HA 0000000180048728     arena.obj
 0002:00010738       $unwind$?internal_wait@task_arena_base@internal@interface7@tbb@@IEBAXXZ 0000000180048738     arena.obj
 0002:00010754       $stateUnwindMap$?internal_wait@task_arena_base@internal@interface7@tbb@@IEBAXXZ 0000000180048754     arena.obj
 0002:00010770       $ip2state$?internal_wait@task_arena_base@internal@interface7@tbb@@IEBAXXZ 0000000180048770     arena.obj
 0002:000107a0       $unwind$?push@?$task_stream@$02@internal@tbb@@QEAAXPEAVtask@3@HAEAVFastRandom@23@@Z 00000001800487a0     arena.obj
 0002:000107c0       $ip2state$?push@?$task_stream@$02@internal@tbb@@QEAAXPEAVtask@3@HAEAVFastRandom@23@@Z 00000001800487c0     arena.obj
 0002:000107e8       $unwind$??1?$task_stream@$02@internal@tbb@@QEAA@XZ 00000001800487e8     arena.obj
 0002:00010800       $stateUnwindMap$??1?$task_stream@$02@internal@tbb@@QEAA@XZ 0000000180048800     arena.obj
 0002:00010818       $ip2state$??1?$task_stream@$02@internal@tbb@@QEAA@XZ 0000000180048818     arena.obj
 0002:00010830       $unwind$?initialize@?$task_stream@$02@internal@tbb@@QEAAXI@Z 0000000180048830     arena.obj
 0002:00010850       $stateUnwindMap$?initialize@?$task_stream@$02@internal@tbb@@QEAAXI@Z 0000000180048850     arena.obj
 0002:00010858       $ip2state$?initialize@?$task_stream@$02@internal@tbb@@QEAAXI@Z 0000000180048858     arena.obj
 0002:00010870       $unwind$??1?$padded@U?$queue_and_mutex@PEAVtask@tbb@@Vspin_mutex@2@@internal@tbb@@$0IA@@internal@tbb@@QEAA@XZ 0000000180048870     arena.obj
 0002:00010880       $stateUnwindMap$??1?$padded@U?$queue_and_mutex@PEAVtask@tbb@@Vspin_mutex@2@@internal@tbb@@$0IA@@internal@tbb@@QEAA@XZ 0000000180048880     arena.obj
 0002:00010890       $ip2state$??1?$padded@U?$queue_and_mutex@PEAVtask@tbb@@Vspin_mutex@2@@internal@tbb@@$0IA@@internal@tbb@@QEAA@XZ 0000000180048890     arena.obj
 0002:000108b0       $unwind$?_Growmap@?$deque@PEAVtask@tbb@@V?$tbb_allocator@PEAVtask@tbb@@@2@@std@@IEAAX_K@Z 00000001800488b0     arena.obj
 0002:000108bc       $chain$0$?_Growmap@?$deque@PEAVtask@tbb@@V?$tbb_allocator@PEAVtask@tbb@@@2@@std@@IEAAX_K@Z 00000001800488bc     arena.obj
 0002:000108d0       $chain$1$?_Growmap@?$deque@PEAVtask@tbb@@V?$tbb_allocator@PEAVtask@tbb@@@2@@std@@IEAAX_K@Z 00000001800488d0     arena.obj
 0002:000108e4       $chain$2$?_Growmap@?$deque@PEAVtask@tbb@@V?$tbb_allocator@PEAVtask@tbb@@@2@@std@@IEAAX_K@Z 00000001800488e4     arena.obj
 0002:000108f4       $chain$3$?_Growmap@?$deque@PEAVtask@tbb@@V?$tbb_allocator@PEAVtask@tbb@@@2@@std@@IEAAX_K@Z 00000001800488f4     arena.obj
 0002:00010904       $chain$0$??$on_thread_leaving@$00@arena@internal@tbb@@QEAAXXZ 0000000180048904     arena.obj
 0002:00010918       $chain$1$??$on_thread_leaving@$00@arena@internal@tbb@@QEAAXXZ 0000000180048918     arena.obj
 0002:00010928       $unwind$??$notify_relaxed@Vdelegated_task@internal@interface7@tbb@@@concurrent_monitor@internal@tbb@@QEAAXAEBVdelegated_task@1interface7@2@@Z 0000000180048928     arena.obj
 0002:00010934       $chain$0$??$notify_relaxed@Vdelegated_task@internal@interface7@tbb@@@concurrent_monitor@internal@tbb@@QEAAXAEBVdelegated_task@1interface7@2@@Z 0000000180048934     arena.obj
 0002:00010948       $chain$1$??$notify_relaxed@Vdelegated_task@internal@interface7@tbb@@@concurrent_monitor@internal@tbb@@QEAAXAEBVdelegated_task@1interface7@2@@Z 0000000180048948     arena.obj
 0002:0001095c       $chain$2$??$notify_relaxed@Vdelegated_task@internal@interface7@tbb@@@concurrent_monitor@internal@tbb@@QEAAXAEBVdelegated_task@1interface7@2@@Z 000000018004895c     arena.obj
 0002:00010970       $chain$3$??$notify_relaxed@Vdelegated_task@internal@interface7@tbb@@@concurrent_monitor@internal@tbb@@QEAAXAEBVdelegated_task@1interface7@2@@Z 0000000180048970     arena.obj
 0002:00010980       $chain$4$??$notify_relaxed@Vdelegated_task@internal@interface7@tbb@@@concurrent_monitor@internal@tbb@@QEAAXAEBVdelegated_task@1interface7@2@@Z 0000000180048980     arena.obj
 0002:00010990       $chain$5$??$notify_relaxed@Vdelegated_task@internal@interface7@tbb@@@concurrent_monitor@internal@tbb@@QEAAXAEBVdelegated_task@1interface7@2@@Z 0000000180048990     arena.obj
 0002:000109a0       $unwind$?internal_pop@mail_outbox@internal@tbb@@AEAAPEAUtask_proxy@23@XZ 00000001800489a0     scheduler.obj
 0002:000109ac       $chain$0$?internal_pop@mail_outbox@internal@tbb@@AEAAPEAUtask_proxy@23@XZ 00000001800489ac     scheduler.obj
 0002:000109c0       $chain$2$?internal_pop@mail_outbox@internal@tbb@@AEAAPEAUtask_proxy@23@XZ 00000001800489c0     scheduler.obj
 0002:000109d4       $chain$3$?internal_pop@mail_outbox@internal@tbb@@AEAAPEAUtask_proxy@23@XZ 00000001800489d4     scheduler.obj
 0002:000109e8       $chain$4$?internal_pop@mail_outbox@internal@tbb@@AEAAPEAUtask_proxy@23@XZ 00000001800489e8     scheduler.obj
 0002:000109f8       $unwind$??0generic_scheduler@internal@tbb@@IEAA@AEAVmarket@12@@Z 00000001800489f8     scheduler.obj
 0002:00010a14       $stateUnwindMap$??0generic_scheduler@internal@tbb@@IEAA@AEAVmarket@12@@Z 0000000180048a14     scheduler.obj
 0002:00010a20       $ip2state$??0generic_scheduler@internal@tbb@@IEAA@AEAVmarket@12@@Z 0000000180048a20     scheduler.obj
 0002:00010a38       $unwind$?cleanup_local_context_list@generic_scheduler@internal@tbb@@QEAAXXZ 0000000180048a38     scheduler.obj
 0002:00010a44       $chain$1$?cleanup_local_context_list@generic_scheduler@internal@tbb@@QEAAXXZ 0000000180048a44     scheduler.obj
 0002:00010a5c       $chain$2$?cleanup_local_context_list@generic_scheduler@internal@tbb@@QEAAXXZ 0000000180048a5c     scheduler.obj
 0002:00010a70       $chain$3$?cleanup_local_context_list@generic_scheduler@internal@tbb@@QEAAXXZ 0000000180048a70     scheduler.obj
 0002:00010a80       $chain$4$?cleanup_local_context_list@generic_scheduler@internal@tbb@@QEAAXXZ 0000000180048a80     scheduler.obj
 0002:00010a90       $unwind$?prepare_task_pool@generic_scheduler@internal@tbb@@QEAA_K_K@Z 0000000180048a90     scheduler.obj
 0002:00010a90       $unwind$?observe@task_scheduler_observer_v3@internal@tbb@@QEAAX_N@Z 0000000180048a90     observer_proxy.obj
 0002:00010a9c       $chain$1$?prepare_task_pool@generic_scheduler@internal@tbb@@QEAA_K_K@Z 0000000180048a9c     scheduler.obj
 0002:00010ab4       $chain$3$?prepare_task_pool@generic_scheduler@internal@tbb@@QEAA_K_K@Z 0000000180048ab4     scheduler.obj
 0002:00010acc       $chain$4$?prepare_task_pool@generic_scheduler@internal@tbb@@QEAA_K_K@Z 0000000180048acc     scheduler.obj
 0002:00010adc       $chain$5$?prepare_task_pool@generic_scheduler@internal@tbb@@QEAA_K_K@Z 0000000180048adc     scheduler.obj
 0002:00010aec       $chain$2$?acquire_task_pool@generic_scheduler@internal@tbb@@QEBAXXZ 0000000180048aec     scheduler.obj
 0002:00010b08       $chain$3$?acquire_task_pool@generic_scheduler@internal@tbb@@QEBAXXZ 0000000180048b08     scheduler.obj
 0002:00010b18       $unwind$?lock_task_pool@generic_scheduler@internal@tbb@@QEBAPEAPEAVtask@3@PEAUarena_slot@23@@Z 0000000180048b18     scheduler.obj
 0002:00010b28       $chain$0$?lock_task_pool@generic_scheduler@internal@tbb@@QEBAPEAPEAVtask@3@PEAUarena_slot@23@@Z 0000000180048b28     scheduler.obj
 0002:00010b3c       $chain$2$?lock_task_pool@generic_scheduler@internal@tbb@@QEBAPEAPEAVtask@3@PEAUarena_slot@23@@Z 0000000180048b3c     scheduler.obj
 0002:00010b50       $chain$3$?lock_task_pool@generic_scheduler@internal@tbb@@QEBAPEAPEAVtask@3@PEAUarena_slot@23@@Z 0000000180048b50     scheduler.obj
 0002:00010b60       $unwind$?prepare_for_spawning@generic_scheduler@internal@tbb@@QEAAPEAVtask@3@PEAV43@@Z 0000000180048b60     scheduler.obj
 0002:00010b70       $chain$1$?prepare_for_spawning@generic_scheduler@internal@tbb@@QEAAPEAVtask@3@PEAV43@@Z 0000000180048b70     scheduler.obj
 0002:00010b88       $chain$2$?prepare_for_spawning@generic_scheduler@internal@tbb@@QEAAPEAVtask@3@PEAV43@@Z 0000000180048b88     scheduler.obj
 0002:00010b98       $unwind$?local_spawn@generic_scheduler@internal@tbb@@QEAAXAEAVtask@3@AEAPEAV43@@Z 0000000180048b98     scheduler.obj
 0002:00010bc0       $stateUnwindMap$?local_spawn@generic_scheduler@internal@tbb@@QEAAXAEAVtask@3@AEAPEAV43@@Z 0000000180048bc0     scheduler.obj
 0002:00010bd0       $ip2state$?local_spawn@generic_scheduler@internal@tbb@@QEAAXAEAVtask@3@AEAPEAV43@@Z 0000000180048bd0     scheduler.obj
 0002:00010bf0       $unwind$?local_spawn_root_and_wait@generic_scheduler@internal@tbb@@QEAAXAEAVtask@3@AEAPEAV43@@Z 0000000180048bf0     scheduler.obj
 0002:00010c0c       $stateUnwindMap$?local_spawn_root_and_wait@generic_scheduler@internal@tbb@@QEAAXAEAVtask@3@AEAPEAV43@@Z 0000000180048c0c     scheduler.obj
 0002:00010c20       $ip2state$?local_spawn_root_and_wait@generic_scheduler@internal@tbb@@QEAAXAEAVtask@3@AEAPEAV43@@Z 0000000180048c20     scheduler.obj
 0002:00010c40       $unwind$?winnow_task_pool@generic_scheduler@internal@tbb@@QEAAPEAVtask@3@XZ 0000000180048c40     scheduler.obj
 0002:00010c5c       $stateUnwindMap$?winnow_task_pool@generic_scheduler@internal@tbb@@QEAAPEAVtask@3@XZ 0000000180048c5c     scheduler.obj
 0002:00010c68       $ip2state$?winnow_task_pool@generic_scheduler@internal@tbb@@QEAAPEAVtask@3@XZ 0000000180048c68     scheduler.obj
 0002:00010c80       $unwind$?reload_tasks@generic_scheduler@internal@tbb@@QEAAPEAVtask@3@AEAPEAV43@AEAPEAPEAV43@_J@Z 0000000180048c80     scheduler.obj
 0002:00010ca8       $stateUnwindMap$?reload_tasks@generic_scheduler@internal@tbb@@QEAAPEAVtask@3@AEAPEAV43@AEAPEAPEAV43@_J@Z 0000000180048ca8     scheduler.obj
 0002:00010cb8       $ip2state$?reload_tasks@generic_scheduler@internal@tbb@@QEAAPEAVtask@3@AEAPEAV43@AEAPEAPEAV43@_J@Z 0000000180048cb8     scheduler.obj
 0002:00010cd8       $chain$2$?reload_tasks@generic_scheduler@internal@tbb@@QEAAPEAVtask@3@XZ 0000000180048cd8     scheduler.obj
 0002:00010cf4       $chain$3$?reload_tasks@generic_scheduler@internal@tbb@@QEAAPEAVtask@3@XZ 0000000180048cf4     scheduler.obj
 0002:00010d0c       $unwind$?steal_task@generic_scheduler@internal@tbb@@QEAAPEAVtask@3@AEAUarena_slot@23@@Z 0000000180048d0c     scheduler.obj
 0002:00010d18       $chain$1$?steal_task@generic_scheduler@internal@tbb@@QEAAPEAVtask@3@AEAUarena_slot@23@@Z 0000000180048d18     scheduler.obj
 0002:00010d30       $chain$4$?steal_task@generic_scheduler@internal@tbb@@QEAAPEAVtask@3@AEAUarena_slot@23@@Z 0000000180048d30     scheduler.obj
 0002:00010d4c       $chain$5$?steal_task@generic_scheduler@internal@tbb@@QEAAPEAVtask@3@AEAUarena_slot@23@@Z 0000000180048d4c     scheduler.obj
 0002:00010d5c       $chain$6$?steal_task@generic_scheduler@internal@tbb@@QEAAPEAVtask@3@AEAUarena_slot@23@@Z 0000000180048d5c     scheduler.obj
 0002:00010d70       $chain$8$?steal_task@generic_scheduler@internal@tbb@@QEAAPEAVtask@3@AEAUarena_slot@23@@Z 0000000180048d70     scheduler.obj
 0002:00010d94       $unwind$?create_master@generic_scheduler@internal@tbb@@SAPEAV123@PEAVarena@23@@Z 0000000180048d94     scheduler.obj
 0002:00010db8       $ip2state$?create_master@generic_scheduler@internal@tbb@@SAPEAV123@PEAVarena@23@@Z 0000000180048db8     scheduler.obj
 0002:00010dd0       $unwind$?cleanup_master@generic_scheduler@internal@tbb@@QEAAX_N@Z 0000000180048dd0     scheduler.obj
 0002:00010df0       $ip2state$?cleanup_master@generic_scheduler@internal@tbb@@QEAAX_N@Z 0000000180048df0     scheduler.obj
 0002:00010e08       $unwind$?copy_memory@?$fast_reverse_vector@PEAVtask@tbb@@$0BA@@internal@tbb@@QEBAXPEAPEAVtask@3@@Z 0000000180048e08     scheduler.obj
 0002:00010e1c       $chain$0$?copy_memory@?$fast_reverse_vector@PEAVtask@tbb@@$0BA@@internal@tbb@@QEBAXPEAPEAVtask@3@@Z 0000000180048e1c     scheduler.obj
 0002:00010e30       $chain$1$?copy_memory@?$fast_reverse_vector@PEAVtask@tbb@@$0BA@@internal@tbb@@QEBAXPEAPEAVtask@3@@Z 0000000180048e30     scheduler.obj
 0002:00010e40       $unwind$??1?$fast_reverse_vector@PEAVtask@tbb@@$0BA@@internal@tbb@@QEAA@XZ 0000000180048e40     scheduler.obj
 0002:00010e58       $ip2state$??1?$fast_reverse_vector@PEAVtask@tbb@@$0BA@@internal@tbb@@QEAA@XZ 0000000180048e58     scheduler.obj
 0002:00010e60       $unwind$?allocate_scheduler@?$custom_scheduler@UIntelSchedulerTraits@internal@tbb@@@internal@tbb@@SAPEAVgeneric_scheduler@23@AEAVmarket@23@@Z 0000000180048e60     scheduler.obj
 0002:00010e74       $stateUnwindMap$?allocate_scheduler@?$custom_scheduler@UDefaultSchedulerTraits@internal@tbb@@@internal@tbb@@SAPEAVgeneric_scheduler@23@AEAVmarket@23@@Z 0000000180048e74     scheduler.obj
 0002:00010e74       $stateUnwindMap$?allocate_scheduler@?$custom_scheduler@UIntelSchedulerTraits@internal@tbb@@@internal@tbb@@SAPEAVgeneric_scheduler@23@AEAVmarket@23@@Z 0000000180048e74     scheduler.obj
 0002:00010e80       $ip2state$?allocate_scheduler@?$custom_scheduler@UIntelSchedulerTraits@internal@tbb@@@internal@tbb@@SAPEAVgeneric_scheduler@23@AEAVmarket@23@@Z 0000000180048e80     scheduler.obj
 0002:00010e98       $unwind$?allocate_scheduler@?$custom_scheduler@UDefaultSchedulerTraits@internal@tbb@@@internal@tbb@@SAPEAVgeneric_scheduler@23@AEAVmarket@23@@Z 0000000180048e98     scheduler.obj
 0002:00010eb0       $ip2state$?allocate_scheduler@?$custom_scheduler@UDefaultSchedulerTraits@internal@tbb@@@internal@tbb@@SAPEAVgeneric_scheduler@23@AEAVmarket@23@@Z 0000000180048eb0     scheduler.obj
 0002:00010ec8       $unwind$?local_wait_for_all@?$custom_scheduler@UDefaultSchedulerTraits@internal@tbb@@@internal@tbb@@EEAAXAEAVtask@3@PEAV43@@Z 0000000180048ec8     scheduler.obj
 0002:00010ee4       $stateUnwindMap$?local_wait_for_all@?$custom_scheduler@UDefaultSchedulerTraits@internal@tbb@@@internal@tbb@@EEAAXAEAVtask@3@PEAV43@@Z 0000000180048ee4     scheduler.obj
 0002:00010efc       $tryMap$?local_wait_for_all@?$custom_scheduler@UDefaultSchedulerTraits@internal@tbb@@@internal@tbb@@EEAAXAEAVtask@3@PEAV43@@Z 0000000180048efc     scheduler.obj
 0002:00010f10       $handlerMap$0$?local_wait_for_all@?$custom_scheduler@UDefaultSchedulerTraits@internal@tbb@@@internal@tbb@@EEAAXAEAVtask@3@PEAV43@@Z 0000000180048f10     scheduler.obj
 0002:00010f50       $ip2state$?local_wait_for_all@?$custom_scheduler@UDefaultSchedulerTraits@internal@tbb@@@internal@tbb@@EEAAXAEAVtask@3@PEAV43@@Z 0000000180048f50     scheduler.obj
 0002:00010fe0       $unwind$?catch$4@?0??local_wait_for_all@?$custom_scheduler@UDefaultSchedulerTraits@internal@tbb@@@internal@tbb@@EEAAXAEAVtask@3@PEAV43@@Z@4HA 0000000180048fe0     scheduler.obj
 0002:00010fe0       $unwind$?catch$6@?0??local_wait_for_all@?$custom_scheduler@UDefaultSchedulerTraits@internal@tbb@@@internal@tbb@@EEAAXAEAVtask@3@PEAV43@@Z@4HA 0000000180048fe0     scheduler.obj
 0002:00010ff4       $unwind$?catch$5@?0??local_wait_for_all@?$custom_scheduler@UDefaultSchedulerTraits@internal@tbb@@@internal@tbb@@EEAAXAEAVtask@3@PEAV43@@Z@4HA 0000000180048ff4     scheduler.obj
 0002:0001100c       $unwind$?receive_or_steal_task@?$custom_scheduler@UDefaultSchedulerTraits@internal@tbb@@@internal@tbb@@UEAAPEAVtask@3@AEA_J@Z 000000018004900c     scheduler.obj
 0002:00011024       $unwind$?local_wait_for_all@?$custom_scheduler@UIntelSchedulerTraits@internal@tbb@@@internal@tbb@@EEAAXAEAVtask@3@PEAV43@@Z 0000000180049024     scheduler.obj
 0002:00011040       $stateUnwindMap$?local_wait_for_all@?$custom_scheduler@UIntelSchedulerTraits@internal@tbb@@@internal@tbb@@EEAAXAEAVtask@3@PEAV43@@Z 0000000180049040     scheduler.obj
 0002:00011058       $tryMap$?local_wait_for_all@?$custom_scheduler@UIntelSchedulerTraits@internal@tbb@@@internal@tbb@@EEAAXAEAVtask@3@PEAV43@@Z 0000000180049058     scheduler.obj
 0002:0001106c       $handlerMap$0$?local_wait_for_all@?$custom_scheduler@UIntelSchedulerTraits@internal@tbb@@@internal@tbb@@EEAAXAEAVtask@3@PEAV43@@Z 000000018004906c     scheduler.obj
 0002:000110b0       $ip2state$?local_wait_for_all@?$custom_scheduler@UIntelSchedulerTraits@internal@tbb@@@internal@tbb@@EEAAXAEAVtask@3@PEAV43@@Z 00000001800490b0     scheduler.obj
 0002:00011140       $unwind$?catch$4@?0??local_wait_for_all@?$custom_scheduler@UIntelSchedulerTraits@internal@tbb@@@internal@tbb@@EEAAXAEAVtask@3@PEAV43@@Z@4HA 0000000180049140     scheduler.obj
 0002:00011140       $unwind$?catch$6@?0??local_wait_for_all@?$custom_scheduler@UIntelSchedulerTraits@internal@tbb@@@internal@tbb@@EEAAXAEAVtask@3@PEAV43@@Z@4HA 0000000180049140     scheduler.obj
 0002:00011154       $unwind$?catch$5@?0??local_wait_for_all@?$custom_scheduler@UIntelSchedulerTraits@internal@tbb@@@internal@tbb@@EEAAXAEAVtask@3@PEAV43@@Z@4HA 0000000180049154     scheduler.obj
 0002:0001116c       $unwind$?receive_or_steal_task@?$custom_scheduler@UIntelSchedulerTraits@internal@tbb@@@internal@tbb@@UEAAPEAVtask@3@AEA_J@Z 000000018004916c     scheduler.obj
 0002:00011184       $unwind$?tally_completion_of_predecessor@?$custom_scheduler@UIntelSchedulerTraits@internal@tbb@@@internal@tbb@@AEAAXAEAVtask@3@AEAPEAV43@@Z 0000000180049184     scheduler.obj
 0002:00011190       $chain$0$?tally_completion_of_predecessor@?$custom_scheduler@UIntelSchedulerTraits@internal@tbb@@@internal@tbb@@AEAAXAEAVtask@3@AEAPEAV43@@Z 0000000180049190     scheduler.obj
 0002:000111a4       $chain$1$?tally_completion_of_predecessor@?$custom_scheduler@UIntelSchedulerTraits@internal@tbb@@@internal@tbb@@AEAAXAEAVtask@3@AEAPEAV43@@Z 00000001800491a4     scheduler.obj
 0002:000111b4       $chain$0$?clear@observer_list@internal@tbb@@QEAAXXZ 00000001800491b4     observer_proxy.obj
 0002:000111c8       $chain$1$?clear@observer_list@internal@tbb@@QEAAXXZ 00000001800491c8     observer_proxy.obj
 0002:000111dc       $chain$2$?clear@observer_list@internal@tbb@@QEAAXXZ 00000001800491dc     observer_proxy.obj
 0002:000111ec       $chain$3$?clear@observer_list@internal@tbb@@QEAAXXZ 00000001800491ec     observer_proxy.obj
 0002:000111fc       $chain$0$?remove_ref@observer_list@internal@tbb@@QEAAXPEAVobserver_proxy@23@@Z 00000001800491fc     observer_proxy.obj
 0002:00011210       $chain$1$?remove_ref@observer_list@internal@tbb@@QEAAXPEAVobserver_proxy@23@@Z 0000000180049210     observer_proxy.obj
 0002:00011220       $unwind$?do_notify_entry_observers@observer_list@internal@tbb@@AEAAXAEAPEAVobserver_proxy@23@_N@Z 0000000180049220     observer_proxy.obj
 0002:00011244       $stateUnwindMap$?do_notify_entry_observers@observer_list@internal@tbb@@AEAAXAEAPEAVobserver_proxy@23@_N@Z 0000000180049244     observer_proxy.obj
 0002:00011244       $stateUnwindMap$?do_notify_exit_observers@observer_list@internal@tbb@@AEAAXPEAVobserver_proxy@23@_N@Z 0000000180049244     observer_proxy.obj
 0002:00011250       $ip2state$?do_notify_entry_observers@observer_list@internal@tbb@@AEAAXAEAPEAVobserver_proxy@23@_N@Z 0000000180049250     observer_proxy.obj
 0002:00011278       $unwind$?do_notify_exit_observers@observer_list@internal@tbb@@AEAAXPEAVobserver_proxy@23@_N@Z 0000000180049278     observer_proxy.obj
 0002:000112a0       $ip2state$?do_notify_exit_observers@observer_list@internal@tbb@@AEAAXPEAVobserver_proxy@23@_N@Z 00000001800492a0     observer_proxy.obj
 0002:000112c8       $chain$0$?observe@task_scheduler_observer_v3@internal@tbb@@QEAAX_N@Z 00000001800492c8     observer_proxy.obj
 0002:000112dc       $chain$1$?observe@task_scheduler_observer_v3@internal@tbb@@QEAAX_N@Z 00000001800492dc     observer_proxy.obj
 0002:000112f0       $chain$2$?observe@task_scheduler_observer_v3@internal@tbb@@QEAAX_N@Z 00000001800492f0     observer_proxy.obj
 0002:00011300       $chain$3$?observe@task_scheduler_observer_v3@internal@tbb@@QEAAX_N@Z 0000000180049300     observer_proxy.obj
 0002:00011310       $chain$0$?add_ref@__TBB_InitOnce@internal@tbb@@SAXXZ 0000000180049310     tbb_main.obj
 0002:00011324       $chain$1$?add_ref@__TBB_InitOnce@internal@tbb@@SAXXZ 0000000180049324     tbb_main.obj
 0002:00011334       $unwind$?internal_create@global_control@interface9@tbb@@AEAAXXZ 0000000180049334     tbb_main.obj
 0002:00011354       $stateUnwindMap$?internal_create@global_control@interface9@tbb@@AEAAXXZ 0000000180049354     tbb_main.obj
 0002:00011354       $stateUnwindMap$?internal_destroy@global_control@interface9@tbb@@AEAAXXZ 0000000180049354     tbb_main.obj
 0002:00011360       $ip2state$?internal_create@global_control@interface9@tbb@@AEAAXXZ 0000000180049360     tbb_main.obj
 0002:00011378       $unwind$?internal_destroy@global_control@interface9@tbb@@AEAAXXZ 0000000180049378     tbb_main.obj
 0002:000113a0       $ip2state$?internal_destroy@global_control@interface9@tbb@@AEAAXXZ 00000001800493a0     tbb_main.obj
 0002:000113b8       $unwind$?extend_segment@helper@concurrent_vector_base@internal@tbb@@CAXAEAV234@@Z 00000001800493b8     concurrent_vector_v2.obj
 0002:000113cc       $unwind$?internal_reserve@concurrent_vector_base@internal@tbb@@IEAAX_K00@Z 00000001800493cc     concurrent_vector_v2.obj
 0002:000113d8       $chain$3$?internal_reserve@concurrent_vector_base@internal@tbb@@IEAAX_K00@Z 00000001800493d8     concurrent_vector_v2.obj
 0002:000113f8       $chain$4$?internal_reserve@concurrent_vector_base@internal@tbb@@IEAAX_K00@Z 00000001800493f8     concurrent_vector_v2.obj
 0002:0001140c       $chain$5$?internal_reserve@concurrent_vector_base@internal@tbb@@IEAAX_K00@Z 000000018004940c     concurrent_vector_v2.obj
 0002:0001141c       $chain$6$?internal_reserve@concurrent_vector_base@internal@tbb@@IEAAX_K00@Z 000000018004941c     concurrent_vector_v2.obj
 0002:0001142c       $unwind$?internal_copy@concurrent_vector_base@internal@tbb@@IEAAXAEBV123@_KP6AXPEAXPEBX1@Z@Z 000000018004942c     concurrent_vector_v2.obj
 0002:0001143c       $chain$1$?internal_copy@concurrent_vector_base@internal@tbb@@IEAAXAEBV123@_KP6AXPEAXPEBX1@Z@Z 000000018004943c     concurrent_vector_v2.obj
 0002:00011454       $chain$3$?internal_copy@concurrent_vector_base@internal@tbb@@IEAAXAEBV123@_KP6AXPEAXPEBX1@Z@Z 0000000180049454     concurrent_vector_v2.obj
 0002:0001146c       $chain$4$?internal_copy@concurrent_vector_base@internal@tbb@@IEAAXAEBV123@_KP6AXPEAXPEBX1@Z@Z 000000018004946c     concurrent_vector_v2.obj
 0002:0001147c       $chain$5$?internal_copy@concurrent_vector_base@internal@tbb@@IEAAXAEBV123@_KP6AXPEAXPEBX1@Z@Z 000000018004947c     concurrent_vector_v2.obj
 0002:0001148c       $unwind$?internal_assign@concurrent_vector_base@internal@tbb@@IEAAXAEBV123@_KP6AXPEAX1@ZP6AX2PEBX1@Z5@Z 000000018004948c     concurrent_vector_v2.obj
 0002:000114a0       $chain$1$?internal_assign@concurrent_vector_base@internal@tbb@@IEAAXAEBV123@_KP6AXPEAX1@ZP6AX2PEBX1@Z5@Z 00000001800494a0     concurrent_vector_v2.obj
 0002:000114b8       $chain$2$?internal_assign@concurrent_vector_base@internal@tbb@@IEAAXAEBV123@_KP6AXPEAX1@ZP6AX2PEBX1@Z5@Z 00000001800494b8     concurrent_vector_v2.obj
 0002:000114c8       $unwind$?internal_push_back@concurrent_vector_base@internal@tbb@@IEAAPEAX_KAEA_K@Z 00000001800494c8     concurrent_vector_v2.obj
 0002:000114e4       $unwind$?internal_grow@concurrent_vector_base@internal@tbb@@IEAAX_K00P6AXPEAX0@Z@Z 00000001800494e4     concurrent_vector_v2.obj
 0002:000114fc       $unwind$?internal_clear@concurrent_vector_base@internal@tbb@@IEAAXP6AXPEAX_K@Z_N@Z 00000001800494fc     concurrent_vector_v2.obj
 0002:0001150c       $chain$0$?internal_clear@concurrent_vector_base@internal@tbb@@IEAAXP6AXPEAX_K@Z_N@Z 000000018004950c     concurrent_vector_v2.obj
 0002:00011520       $chain$1$?internal_clear@concurrent_vector_base@internal@tbb@@IEAAXP6AXPEAX_K@Z_N@Z 0000000180049520     concurrent_vector_v2.obj
 0002:00011534       $chain$2$?internal_clear@concurrent_vector_base@internal@tbb@@IEAAXP6AXPEAX_K@Z_N@Z 0000000180049534     concurrent_vector_v2.obj
 0002:00011544       $chain$3$?internal_clear@concurrent_vector_base@internal@tbb@@IEAAXP6AXPEAX_K@Z_N@Z 0000000180049544     concurrent_vector_v2.obj
 0002:00011554       $unwind$??1pop_finalizer@micro_queue@internal@tbb@@QEAA@XZ 0000000180049554     concurrent_queue_v2.obj
 0002:0001155c       $chain$0$??1pop_finalizer@micro_queue@internal@tbb@@QEAA@XZ 000000018004955c     concurrent_queue_v2.obj
 0002:00011570       $chain$3$??1pop_finalizer@micro_queue@internal@tbb@@QEAA@XZ 0000000180049570     concurrent_queue_v2.obj
 0002:0001158c       $chain$4$??1pop_finalizer@micro_queue@internal@tbb@@QEAA@XZ 000000018004958c     concurrent_queue_v2.obj
 0002:000115a0       $chain$5$??1pop_finalizer@micro_queue@internal@tbb@@QEAA@XZ 00000001800495a0     concurrent_queue_v2.obj
 0002:000115b0       $chain$6$??1pop_finalizer@micro_queue@internal@tbb@@QEAA@XZ 00000001800495b0     concurrent_queue_v2.obj
 0002:000115c0       $unwind$?push@micro_queue@internal@tbb@@QEAAXPEBX_KAEAVconcurrent_queue_base@23@@Z 00000001800495c0     concurrent_queue_v2.obj
 0002:000115e4       $stateUnwindMap$?push@micro_queue@internal@tbb@@QEAAXPEBX_KAEAVconcurrent_queue_base@23@@Z 00000001800495e4     concurrent_queue_v2.obj
 0002:000115f0       $ip2state$?push@micro_queue@internal@tbb@@QEAAXPEBX_KAEAVconcurrent_queue_base@23@@Z 00000001800495f0     concurrent_queue_v2.obj
 0002:00011608       $unwind$?pop@micro_queue@internal@tbb@@QEAA_NPEAX_KAEAVconcurrent_queue_base@23@@Z 0000000180049608     concurrent_queue_v2.obj
 0002:0001162c       $stateUnwindMap$?pop@micro_queue@internal@tbb@@QEAA_NPEAX_KAEAVconcurrent_queue_base@23@@Z 000000018004962c     concurrent_queue_v2.obj
 0002:00011638       $ip2state$?pop@micro_queue@internal@tbb@@QEAA_NPEAX_KAEAVconcurrent_queue_base@23@@Z 0000000180049638     concurrent_queue_v2.obj
 0002:00011650       $unwind$??1concurrent_queue_base@internal@tbb@@MEAA@XZ 0000000180049650     concurrent_queue_v2.obj
 0002:00011668       $ip2state$??1concurrent_queue_base@internal@tbb@@MEAA@XZ 0000000180049668     concurrent_queue_v2.obj
 0002:00011670       $chain$0$?internal_upgrade@spin_rw_mutex@tbb@@CA_NPEAV12@@Z 0000000180049670     spin_rw_mutex_v2.obj
 0002:00011684       $chain$1$?internal_upgrade@spin_rw_mutex@tbb@@CA_NPEAV12@@Z 0000000180049684     spin_rw_mutex_v2.obj
 0002:00011694       $unwind$?__ExceptionPtrCopyException@@YAXPEAXPEBX1@Z 0000000180049694     libcpmt:excptptr.obj
 0002:00011694       $unwind$?__ExceptionPtrCurrentException@@YAXPEAX@Z 0000000180049694     libcpmt:excptptr.obj
 0002:00011694       $unwind$strerror           0000000180049694     libucrt:strerror.obj
 0002:00011694       $unwind$?getCallingConvention@UnDecorator@@CA?AVDName@@XZ 0000000180049694     libvcruntime:undname.obj
 0002:000116a0       $unwind$?_CurrentException@__ExceptionPtr@@SA?AV?$shared_ptr@V__ExceptionPtr@@@std@@XZ 00000001800496a0     libcpmt:excptptr.obj
 0002:000116b0       $tryMap$?_CurrentException@__ExceptionPtr@@SA?AV?$shared_ptr@V__ExceptionPtr@@@std@@XZ 00000001800496b0     libcpmt:excptptr.obj
 0002:000116c4       $handlerMap$0$?_CurrentException@__ExceptionPtr@@SA?AV?$shared_ptr@V__ExceptionPtr@@@std@@XZ 00000001800496c4     libcpmt:excptptr.obj
 0002:000116f0       $ip2state$?_CurrentException@__ExceptionPtr@@SA?AV?$shared_ptr@V__ExceptionPtr@@@std@@XZ 00000001800496f0     libcpmt:excptptr.obj
 0002:00011728       $unwind$?catch$6@?0??_CurrentException@__ExceptionPtr@@SA?AV?$shared_ptr@V__ExceptionPtr@@@std@@XZ@4HA 0000000180049728     libcpmt:excptptr.obj
 0002:00011728       $unwind$?catch$5@?0??_CurrentException@__ExceptionPtr@@SA?AV?$shared_ptr@V__ExceptionPtr@@@std@@XZ@4HA 0000000180049728     libcpmt:excptptr.obj
 0002:00011738       $unwind$?_CopyException@__ExceptionPtr@@SA?AV?$shared_ptr@V__ExceptionPtr@@@std@@PEBXPEBU_s_ThrowInfo@@_N@Z 0000000180049738     libcpmt:excptptr.obj
 0002:0001174c       $tryMap$?_CopyException@__ExceptionPtr@@SA?AV?$shared_ptr@V__ExceptionPtr@@@std@@PEBXPEBU_s_ThrowInfo@@_N@Z 000000018004974c     libcpmt:excptptr.obj
 0002:00011760       $handlerMap$0$?_CopyException@__ExceptionPtr@@SA?AV?$shared_ptr@V__ExceptionPtr@@@std@@PEBXPEBU_s_ThrowInfo@@_N@Z 0000000180049760     libcpmt:excptptr.obj
 0002:00011788       $ip2state$?_CopyException@__ExceptionPtr@@SA?AV?$shared_ptr@V__ExceptionPtr@@@std@@PEBXPEBU_s_ThrowInfo@@_N@Z 0000000180049788     libcpmt:excptptr.obj
 0002:000117c0       $unwind$?catch$4@?0??_CopyException@__ExceptionPtr@@SA?AV?$shared_ptr@V__ExceptionPtr@@@std@@PEBXPEBU_s_ThrowInfo@@_N@Z@4HA 00000001800497c0     libcpmt:excptptr.obj
 0002:000117c0       $unwind$?catch$3@?0??_CopyException@__ExceptionPtr@@SA?AV?$shared_ptr@V__ExceptionPtr@@@std@@PEBXPEBU_s_ThrowInfo@@_N@Z@4HA 00000001800497c0     libcpmt:excptptr.obj
 0002:000117d0       $unwind$??1__ExceptionPtr@@QEAA@XZ 00000001800497d0     libcpmt:excptptr.obj
 0002:000117e8       $ip2state$??1__ExceptionPtr@@QEAA@XZ 00000001800497e8     libcpmt:excptptr.obj
 0002:000117f0       $unwind$?_RethrowException@__ExceptionPtr@@QEBAXXZ 00000001800497f0     libcpmt:excptptr.obj
 0002:00011810       $unwind$?_InitBadAllocException@__ExceptionPtr@@CA?AV?$shared_ptr@V__ExceptionPtr@@@std@@XZ 0000000180049810     libcpmt:excptptr.obj
 0002:00011820       $stateUnwindMap$?_InitBadAllocException@__ExceptionPtr@@CA?AV?$shared_ptr@V__ExceptionPtr@@@std@@XZ 0000000180049820     libcpmt:excptptr.obj
 0002:00011828       $ip2state$?_InitBadAllocException@__ExceptionPtr@@CA?AV?$shared_ptr@V__ExceptionPtr@@@std@@XZ 0000000180049828     libcpmt:excptptr.obj
 0002:00011840       $unwind$?_CallCopyCtor@__ExceptionPtr@@AEBAXPEAX0_KQEBU_s_CatchableType@@@Z 0000000180049840     libcpmt:excptptr.obj
 0002:0001185c       $tryMap$?_CallCopyCtor@__ExceptionPtr@@AEBAXPEAX0_KQEBU_s_CatchableType@@@Z 000000018004985c     libcpmt:excptptr.obj
 0002:00011870       $handlerMap$0$?_CallCopyCtor@__ExceptionPtr@@AEBAXPEAX0_KQEBU_s_CatchableType@@@Z 0000000180049870     libcpmt:excptptr.obj
 0002:00011888       $ip2state$?_CallCopyCtor@__ExceptionPtr@@AEBAXPEAX0_KQEBU_s_CatchableType@@@Z 0000000180049888     libcpmt:excptptr.obj
 0002:000118b0       $unwind$?catch$0@?0??_CallCopyCtor@__ExceptionPtr@@AEBAXPEAX0_KQEBU_s_CatchableType@@@Z@4HA 00000001800498b0     libcpmt:excptptr.obj
 0002:000118c0       $unwind$??4?$shared_ptr@V__ExceptionPtr@@@std@@QEAAAEAV01@$$QEAV01@@Z 00000001800498c0     libcpmt:excptptr.obj
 0002:000118d0       $unwind$??$make_shared@V__ExceptionPtr@@AEAPEAUEHExceptionRecord@@_N@std@@YA?AV?$shared_ptr@V__ExceptionPtr@@@0@AEAPEAUEHExceptionRecord@@$$QEA_N@Z 00000001800498d0     libcpmt:excptptr.obj
 0002:000118e8       $stateUnwindMap$??$make_shared@V__ExceptionPtr@@AEAPEAUEHExceptionRecord@@_N@std@@YA?AV?$shared_ptr@V__ExceptionPtr@@@0@AEAPEAUEHExceptionRecord@@$$QEA_N@Z 00000001800498e8     libcpmt:excptptr.obj
 0002:00011900       $ip2state$??$make_shared@V__ExceptionPtr@@AEAPEAUEHExceptionRecord@@_N@std@@YA?AV?$shared_ptr@V__ExceptionPtr@@@0@AEAPEAUEHExceptionRecord@@$$QEA_N@Z 0000000180049900     libcpmt:excptptr.obj
 0002:00011930       $unwind$??$allocate_shared@V__ExceptionPtr@@U?$_StaticAllocator@H@@AEAPEAUEHExceptionRecord@@_N@std@@YA?AV?$shared_ptr@V__ExceptionPtr@@@0@AEBU?$_StaticAllocator@H@@AEAPEAUEHExceptionRecord@@$$QEA_N@Z 0000000180049930     libcpmt:excptptr.obj
 0002:0001194c       $stateUnwindMap$??$allocate_shared@V__ExceptionPtr@@U?$_StaticAllocator@H@@AEAPEAUEHExceptionRecord@@_N@std@@YA?AV?$shared_ptr@V__ExceptionPtr@@@0@AEBU?$_StaticAllocator@H@@AEAPEAUEHExceptionRecord@@$$QEA_N@Z 000000018004994c     libcpmt:excptptr.obj
 0002:00011964       $tryMap$??$allocate_shared@V__ExceptionPtr@@U?$_StaticAllocator@H@@AEAPEAUEHExceptionRecord@@_N@std@@YA?AV?$shared_ptr@V__ExceptionPtr@@@0@AEBU?$_StaticAllocator@H@@AEAPEAUEHExceptionRecord@@$$QEA_N@Z 0000000180049964     libcpmt:excptptr.obj
 0002:00011978       $handlerMap$0$??$allocate_shared@V__ExceptionPtr@@U?$_StaticAllocator@H@@AEAPEAUEHExceptionRecord@@_N@std@@YA?AV?$shared_ptr@V__ExceptionPtr@@@0@AEBU?$_StaticAllocator@H@@AEAPEAUEHExceptionRecord@@$$QEA_N@Z 0000000180049978     libcpmt:excptptr.obj
 0002:00011990       $ip2state$??$allocate_shared@V__ExceptionPtr@@U?$_StaticAllocator@H@@AEAPEAUEHExceptionRecord@@_N@std@@YA?AV?$shared_ptr@V__ExceptionPtr@@@0@AEBU?$_StaticAllocator@H@@AEAPEAUEHExceptionRecord@@$$QEA_N@Z 0000000180049990     libcpmt:excptptr.obj
 0002:000119c0       $unwind$?catch$18@?0???$allocate_shared@V__ExceptionPtr@@U?$_StaticAllocator@H@@AEAPEAUEHExceptionRecord@@_N@std@@YA?AV?$shared_ptr@V__ExceptionPtr@@@0@AEBU?$_StaticAllocator@H@@AEAPEAUEHExceptionRecord@@$$QEA_N@Z@4HA 00000001800499c0     libcpmt:excptptr.obj
 0002:000119d0       $unwind$?_Delete_this@?$_Ref_count_obj@V__ExceptionPtr@@@std@@EEAAXXZ 00000001800499d0     libcpmt:excptptr.obj
 0002:000119d0       $unwind$??$free_environment@_W@@YAXQEAPEA_W@Z 00000001800499d0     libucrt:environment_initialization.obj
 0002:000119d0       $unwind$??$free_environment@D@@YAXQEAPEAD@Z 00000001800499d0     libucrt:environment_initialization.obj
 0002:000119dc       $unwind$??$?0AEAPEAUEHExceptionRecord@@_N@?$_Ref_count_obj_alloc@V__ExceptionPtr@@U?$_StaticAllocator@H@@@std@@QEAA@AEBU?$_StaticAllocator@H@@AEAPEAUEHExceptionRecord@@$$QEA_N@Z 00000001800499dc     libcpmt:excptptr.obj
 0002:000119f4       $stateUnwindMap$??$?0AEAPEAUEHExceptionRecord@@_N@?$_Ref_count_obj_alloc@V__ExceptionPtr@@U?$_StaticAllocator@H@@@std@@QEAA@AEBU?$_StaticAllocator@H@@AEAPEAUEHExceptionRecord@@$$QEA_N@Z 00000001800499f4     libcpmt:excptptr.obj
 0002:00011a08       $ip2state$??$?0AEAPEAUEHExceptionRecord@@_N@?$_Ref_count_obj_alloc@V__ExceptionPtr@@U?$_StaticAllocator@H@@@std@@QEAA@AEBU?$_StaticAllocator@H@@AEAPEAUEHExceptionRecord@@$$QEA_N@Z 0000000180049a08     libcpmt:excptptr.obj
 0002:00011a28       $xdatasym                  0000000180049a28     LIBCMT:_amdsecgs_.obj
 0002:00011a2c       $unwind$__report_securityfailure 0000000180049a2c     LIBCMT:gs_report.obj
 0002:00011a34       $unwind$_putwch_nolock     0000000180049a34     libucrt:putwch.obj
 0002:00011a34       $unwind$__report_gsfailure 0000000180049a34     LIBCMT:gs_report.obj
 0002:00011a3c       $unwind$capture_current_context 0000000180049a3c     LIBCMT:gs_report.obj
 0002:00011a48       $unwind$capture_previous_context 0000000180049a48     LIBCMT:gs_report.obj
 0002:00011a54       $unwind$??_M@YAXPEAX_K1P6AX0@Z@Z 0000000180049a54     LIBCMT:ehvecdtr.obj
 0002:00011a7c       $unwind$?__ArrayUnwind@@YAXPEAX_K1P6AX0@Z@Z 0000000180049a7c     LIBCMT:ehvecdtr.obj
 0002:00011aa8       $unwind$??_L@YAXPEAX_K1P6AX0@Z2@Z 0000000180049aa8     LIBCMT:ehvecctr.obj
 0002:00011ad4       $unwind$__scrt_is_nonwritable_in_current_image 0000000180049ad4     LIBCMT:utility.obj
 0002:00011af4       $unwind$__scrt_is_nonwritable_in_current_image$filt$0 0000000180049af4     LIBCMT:utility.obj
 0002:00011afc       $unwind$?getScopedName@UnDecorator@@CA?AVDName@@XZ 0000000180049afc     libvcruntime:undname.obj
 0002:00011afc       $unwind$__scrt_initialize_onexit_tables 0000000180049afc     LIBCMT:utility.obj
 0002:00011b08       $unwind$?dllmain_crt_process_attach@@YAHQEAUHINSTANCE__@@QEAX@Z 0000000180049b08     LIBCMT:dll_dllmain.obj
 0002:00011b34       $unwind$?dllmain_crt_process_detach@@YAH_N@Z 0000000180049b34     LIBCMT:dll_dllmain.obj
 0002:00011b5c       $unwind$?dllmain_dispatch@@YAHQEAUHINSTANCE__@@KQEAX@Z 0000000180049b5c     LIBCMT:dll_dllmain.obj
 0002:00011b84       $unwind$__GSHandlerCheckCommon 0000000180049b84     LIBCMT:_gshandler_.obj
 0002:00011b90       $xdatasym                  0000000180049b90     LIBCMT:_chkstk_.obj
 0002:00011b98       $unwind$__isa_available_init 0000000180049b98     LIBCMT:_cpu_disp_.obj
 0002:00011ba8       $unwind$__scrt_fastfail    0000000180049ba8     LIBCMT:utility_desktop.obj
 0002:00011bb8       $unwind$__security_init_cookie 0000000180049bb8     LIBCMT:gs_support.obj
 0002:00011bc8       $xdatasym                  0000000180049bc8     LIBCMT:_guard_dispatch_.obj
 0002:00011bcc       $unwind$__CxxCallCatchBlock 0000000180049bcc     libvcruntime:frame.obj
 0002:00011c08       $unwind$__CxxCallCatchBlock$fin$1 0000000180049c08     libvcruntime:frame.obj
 0002:00011c14       $unwind$__FrameUnwindToState 0000000180049c14     libvcruntime:frame.obj
 0002:00011c50       $unwind$?FindHandler@@YAXPEAUEHExceptionRecord@@PEA_KPEAU_CONTEXT@@PEAU_xDISPATCHER_CONTEXT@@PEBU_s_FuncInfo@@EH1@Z 0000000180049c50     libvcruntime:frame.obj
 0002:00011c70       $unwind$?CatchIt@@YAXPEAUEHExceptionRecord@@PEA_KPEAU_CONTEXT@@PEAU_xDISPATCHER_CONTEXT@@PEBU_s_FuncInfo@@PEBU_s_HandlerType@@PEBU_s_CatchableType@@PEBU_s_TryBlockMapEntry@@H1EE@Z 0000000180049c70     libvcruntime:frame.obj
 0002:00011c88       $unwind$__BuildCatchObject 0000000180049c88     libvcruntime:frame.obj
 0002:00011cb4       $unwind$?FindHandlerForForeignException@@YAXPEAUEHExceptionRecord@@PEA_KPEAU_CONTEXT@@PEAU_xDISPATCHER_CONTEXT@@PEBU_s_FuncInfo@@HH1@Z 0000000180049cb4     libvcruntime:frame.obj
 0002:00011ccc       $unwind$__DestructExceptionObject 0000000180049ccc     libvcruntime:frame.obj
 0002:00011cf0       $unwind$__BuildCatchObjectHelper 0000000180049cf0     libvcruntime:frame.obj
 0002:00011d30       $unwind$strchr             0000000180049d30     libvcruntime:strchr.obj
 0002:00011d30       $unwind$strrchr            0000000180049d30     libvcruntime:strrchr.obj
 0002:00011d38       $unwind$__RTtypeid         0000000180049d38     libvcruntime:rtti.obj
 0002:00011d58       $xdatasym                  0000000180049d58     libvcruntime:memcpy.obj
 0002:00011d5c       $unwind$_CxxThrowException 0000000180049d5c     libvcruntime:throw.obj
 0002:00011d70       $unwind$?_GetEstablisherFrame@@YAPEA_KPEA_KPEAU_xDISPATCHER_CONTEXT@@PEBU_s_FuncInfo@@0@Z 0000000180049d70     libvcruntime:trnsctrl.obj
 0002:00011d88       $unwind$?__FrameUnwindToEmptyState@@YAXPEA_KPEAU_xDISPATCHER_CONTEXT@@PEBU_s_FuncInfo@@@Z 0000000180049d88     libvcruntime:trnsctrl.obj
 0002:00011d9c       $unwind$_CallSETranslator  0000000180049d9c     libvcruntime:trnsctrl.obj
 0002:00011dc0       $unwind$_CallSETranslator$filt$0 0000000180049dc0     libvcruntime:trnsctrl.obj
 0002:00011dc8       $unwind$_UnwindNestedFrames 0000000180049dc8     libvcruntime:trnsctrl.obj
 0002:00011ddc       $unwind$__CxxFrameHandler3 0000000180049ddc     libvcruntime:trnsctrl.obj
 0002:00011df0       $xdatasym                  0000000180049df0     libvcruntime:memset.obj
 0002:00011df4       $unwind$__std_type_info_name 0000000180049df4     libvcruntime:std_type_info.obj
 0002:00011df4       $unwind$__C_specific_handler 0000000180049df4     libvcruntime:_chandler_.obj
 0002:00011df4       $unwind$__InternalCxxFrameHandler 0000000180049df4     libvcruntime:frame.obj
 0002:00011e10       $xdatasym                  0000000180049e10     libvcruntime:handlers.obj
 0002:00011e18       $xdatasym                  0000000180049e18     libvcruntime:_jmpuwind_.obj
 0002:00011e2c       $unwind$__unDName          0000000180049e2c     libvcruntime:undname.obj
 0002:00011e5c       $unwind$?filt$0@?0??dllmain_dispatch@@YAHQEAUHINSTANCE__@@KQEAX@Z@4HA 0000000180049e5c     LIBCMT:dll_dllmain.obj
 0002:00011e5c       $unwind$__unDName$fin$0    0000000180049e5c     libvcruntime:undname.obj
 0002:00011e64       $unwind$??0DName@@QEAA@_J@Z 0000000180049e64     libvcruntime:undname.obj
 0002:00011e64       $unwind$??0DName@@QEAA@_K@Z 0000000180049e64     libvcruntime:undname.obj
 0002:00011e74       $unwind$?getDecoratedName@UnDecorator@@CA?AVDName@@XZ 0000000180049e74     libvcruntime:undname.obj
 0002:00011e84       $unwind$?getZName@UnDecorator@@CA?AVDName@@_N0@Z 0000000180049e84     libvcruntime:undname.obj
 0002:00011ea8       $unwind$?getOperatorName@UnDecorator@@CA?AVDName@@_NPEA_N@Z 0000000180049ea8     libvcruntime:undname.obj
 0002:00011ebc       $unwind$?getScope@UnDecorator@@CA?AVDName@@XZ 0000000180049ebc     libvcruntime:undname.obj
 0002:00011ed8       $unwind$?getExternalDataType@UnDecorator@@CA?AVDName@@AEBV2@@Z 0000000180049ed8     libvcruntime:undname.obj
 0002:00011ed8       $unwind$?getDimension@UnDecorator@@CA?AVDName@@_N@Z 0000000180049ed8     libvcruntime:undname.obj
 0002:00011eec       $unwind$?getTemplateName@UnDecorator@@CA?AVDName@@_N@Z 0000000180049eec     libvcruntime:undname.obj
 0002:00011f08       $unwind$?getTemplateArgumentList@UnDecorator@@CA?AVDName@@XZ 0000000180049f08     libvcruntime:undname.obj
 0002:00011f30       $unwind$?getTemplateConstant@UnDecorator@@CA?AVDName@@XZ 0000000180049f30     libvcruntime:undname.obj
 0002:00011f54       $unwind$?composeDeclaration@UnDecorator@@CA?AVDName@@AEBV2@@Z 0000000180049f54     libvcruntime:undname.obj
 0002:00011f78       $unwind$?getEnumType@UnDecorator@@CA?AVDName@@XZ 0000000180049f78     libvcruntime:undname.obj
 0002:00011f84       $unwind$?getDataType@UnDecorator@@CA?AVDName@@PEAV2@@Z 0000000180049f84     libvcruntime:undname.obj
 0002:00011f90       $unwind$?getPrimaryDataType@UnDecorator@@CA?AVDName@@AEBV2@@Z 0000000180049f90     libvcruntime:undname.obj
 0002:00011f90       $unwind$?getThrowTypes@UnDecorator@@CA?AVDName@@XZ 0000000180049f90     libvcruntime:undname.obj
 0002:00011f90       $unwind$?getPtrRefDataType@UnDecorator@@CA?AVDName@@AEBV2@H@Z 0000000180049f90     libvcruntime:undname.obj
 0002:00011fa0       $unwind$?getDataIndirectType@UnDecorator@@CA?AVDName@@AEBV2@PEBD0H@Z 0000000180049fa0     libvcruntime:undname.obj
 0002:00011fc8       $unwind$?getExtendedDataIndirectType@UnDecorator@@CA?AVDName@@AEAPEBDAEA_NH@Z 0000000180049fc8     libvcruntime:undname.obj
 0002:00011fdc       $unwind$?getBasicDataType@UnDecorator@@CA?AVDName@@AEBV2@@Z 0000000180049fdc     libvcruntime:undname.obj
 0002:00011fec       $unwind$?getECSUDataType@UnDecorator@@CA?AVDName@@XZ 0000000180049fec     libvcruntime:undname.obj
 0002:00012000       $unwind$?getPtrRefType@UnDecorator@@CA?AVDName@@AEBV2@0PEBD@Z 000000018004a000     libvcruntime:undname.obj
 0002:00012018       $unwind$?getArrayType@UnDecorator@@CA?AVDName@@AEBV2@@Z 000000018004a018     libvcruntime:undname.obj
 0002:00012030       $unwind$?getFunctionIndirectType@UnDecorator@@CA?AVDName@@AEBV2@@Z 000000018004a030     libvcruntime:undname.obj
 0002:00012050       $unwind$?getRestrictionSpec@UnDecorator@@CA?AVDName@@XZ 000000018004a050     libvcruntime:undname.obj
 0002:00012060       $unwind$?getVfTableType@UnDecorator@@CA?AVDName@@AEBV2@@Z 000000018004a060     libvcruntime:undname.obj
 0002:00012060       $unwind$??BUnDecorator@@QEAAPEADXZ 000000018004a060     libvcruntime:undname.obj
 0002:00012070       $unwind$__GSHandlerCheck_EH 000000018004a070     LIBCMT:gshandlereh.obj
 0002:00012070       $unwind$__TypeMatch        000000018004a070     libvcruntime:frame.obj
 0002:00012070       $unwind$?getString@pairNode@@UEBAPEADPEAD0@Z 000000018004a070     libvcruntime:undname.obj
 0002:00012070       $unwind$_initterm          000000018004a070     libucrt:initterm.obj
 0002:00012070       $unwind$__acrt_initialize_stdio 000000018004a070     libucrt:_file.obj
 0002:00012070       $unwind$?_Reset0@?$_Ptr_base@V__ExceptionPtr@@@std@@QEAAXPEAV__ExceptionPtr@@PEAV_Ref_count_base@2@@Z 000000018004a070     libcpmt:excptptr.obj
 0002:00012088       $xdatasym                  000000018004a088     libucrt:strncpy.obj
 0002:0001208c       $unwind$??$thread_start@P6AIPEAX@Z@@YAKQEAX@Z 000000018004a08c     libucrt:thread.obj
 0002:000120b0       $unwind$?common_exit@@YAXHW4_crt_exit_cleanup_mode@@W4_crt_exit_return_mode@@@Z 000000018004a0b0     libucrt:exit.obj
 0002:000120f0       $unwind$__stdio_common_vfprintf 000000018004a0f0     libucrt:output.obj
 0002:000120f8       $unwind$__stdio_common_vsprintf 000000018004a0f8     libucrt:output.obj
 0002:0001211c       $unwind$?process@?$output_processor@DV?$stream_output_adapter@D@__crt_stdio_output@@V?$standard_base@DV?$stream_output_adapter@D@__crt_stdio_output@@@2@@__crt_stdio_output@@QEAAHXZ 000000018004a11c     libucrt:output.obj
 0002:0001211c       $unwind$?process@?$output_processor@DV?$string_output_adapter@D@__crt_stdio_output@@V?$standard_base@DV?$string_output_adapter@D@__crt_stdio_output@@@2@@__crt_stdio_output@@QEAAHXZ 000000018004a11c     libucrt:output.obj
 0002:0001212c       $unwind$?write_stored_string_tchar@?$output_processor@DV?$string_output_adapter@D@__crt_stdio_output@@V?$standard_base@DV?$string_output_adapter@D@__crt_stdio_output@@@2@@__crt_stdio_output@@AEAA_ND@Z 000000018004a12c     libucrt:output.obj
 0002:0001212c       $unwind$?write_stored_string_tchar@?$output_processor@DV?$stream_output_adapter@D@__crt_stdio_output@@V?$standard_base@DV?$stream_output_adapter@D@__crt_stdio_output@@@2@@__crt_stdio_output@@AEAA_ND@Z 000000018004a12c     libucrt:output.obj
 0002:0001212c       $unwind$?write_stored_string_tchar@?$output_processor@DV?$string_output_adapter@D@__crt_stdio_output@@V?$format_validation_base@DV?$string_output_adapter@D@__crt_stdio_output@@@2@@__crt_stdio_output@@AEAA_ND@Z 000000018004a12c     libucrt:output.obj
 0002:00012144       $unwind$??R<lambda_0a64b6a4deda75c01876f29c44fc5eb3>@@QEBAHXZ 000000018004a144     libucrt:output.obj
 0002:00012160       $unwind$?type_case_a@?$output_processor@DV?$stream_output_adapter@D@__crt_stdio_output@@V?$standard_base@DV?$stream_output_adapter@D@__crt_stdio_output@@@2@@__crt_stdio_output@@AEAA_NXZ 000000018004a160     libucrt:output.obj
 0002:00012160       $unwind$?type_case_a@?$output_processor@DV?$string_output_adapter@D@__crt_stdio_output@@V?$standard_base@DV?$string_output_adapter@D@__crt_stdio_output@@@2@@__crt_stdio_output@@AEAA_NXZ 000000018004a160     libucrt:output.obj
 0002:00012160       $unwind$?type_case_a@?$output_processor@DV?$string_output_adapter@D@__crt_stdio_output@@V?$format_validation_base@DV?$string_output_adapter@D@__crt_stdio_output@@@2@@__crt_stdio_output@@AEAA_NXZ 000000018004a160     libucrt:output.obj
 0002:0001216c       $unwind$??$common_vsprintf@Vformat_validation_base@__crt_stdio_output@@D@@YAH_KQEAD0QEBDQEAU__crt_locale_pointers@@1@Z 000000018004a16c     libucrt:output.obj
 0002:0001218c       $unwind$??$write_multiple_characters@V?$stream_output_adapter@D@__crt_stdio_output@@D@__crt_stdio_output@@YAXAEBV?$stream_output_adapter@D@0@DHQEAH@Z 000000018004a18c     libucrt:output.obj
 0002:000121a4       $unwind$??$?RV<lambda_aa279a7bcb127014629d5b1d62c7325d>@@AEAV<lambda_0a64b6a4deda75c01876f29c44fc5eb3>@@V<lambda_3323e69fbefe9d1a11713e670d47cdfa>@@@?$__crt_seh_guarded_call@H@@QEAAH$$QEAV<lambda_aa279a7bcb127014629d5b1d62c7325d>@@AEAV<lambda_0a64b6a4deda75c01876f29c44fc5eb3>@@$$QEAV<lambda_3323e69fbefe9d1a11713e670d47cdfa>@@@Z 000000018004a1a4     libucrt:output.obj
 0002:000121c8       $unwind$?parse_int_from_format_string@?$output_processor@DV?$string_output_adapter@D@__crt_stdio_output@@V?$standard_base@DV?$string_output_adapter@D@__crt_stdio_output@@@2@@__crt_stdio_output@@AEAA_NQEAH@Z 000000018004a1c8     libucrt:output.obj
 0002:000121c8       $unwind$?parse_int_from_format_string@?$output_processor@DV?$string_output_adapter@D@__crt_stdio_output@@V?$format_validation_base@DV?$string_output_adapter@D@__crt_stdio_output@@@2@@__crt_stdio_output@@AEAA_NQEAH@Z 000000018004a1c8     libucrt:output.obj
 0002:000121c8       $unwind$?parse_int_from_format_string@?$output_processor@DV?$stream_output_adapter@D@__crt_stdio_output@@V?$standard_base@DV?$stream_output_adapter@D@__crt_stdio_output@@@2@@__crt_stdio_output@@AEAA_NQEAH@Z 000000018004a1c8     libucrt:output.obj
 0002:000121dc       $unwind$fflush             000000018004a1dc     libucrt:fflush.obj
 0002:00012200       $unwind$common_flush_all   000000018004a200     libucrt:fflush.obj
 0002:0001223c       $unwind$fputs              000000018004a23c     libucrt:fputs.obj
 0002:00012244       $unwind$??$?RV<lambda_a81aa23bb2c9577c1e55b9d0b57d9de4>@@AEAV<lambda_9a20e10065b92b5193c3597a66cba9d4>@@V<lambda_cb3a421ff86d8a5f008440ee6b28fa9c>@@@?$__crt_seh_guarded_call@H@@QEAAH$$QEAV<lambda_a81aa23bb2c9577c1e55b9d0b57d9de4>@@AEAV<lambda_9a20e10065b92b5193c3597a66cba9d4>@@$$QEAV<lambda_cb3a421ff86d8a5f008440ee6b28fa9c>@@@Z 000000018004a244     libucrt:fputs.obj
 0002:00012268       $unwind$??$common_getenv@D@@YAPEADQEBD@Z 000000018004a268     libucrt:getenv.obj
 0002:00012288       $unwind$terminate          000000018004a288     libucrt:terminate.obj
 0002:000122a8       $unwind$_query_new_handler 000000018004a2a8     libucrt:new_handler.obj
 0002:000122c8       $unwind$_configure_narrow_argv 000000018004a2c8     libucrt:argv_parsing.obj
 0002:000122dc       $unwind$??$parse_command_line@D@@YAXPEADPEAPEAD0PEA_K2@Z 000000018004a2dc     libucrt:argv_parsing.obj
 0002:000122dc       $unwind$?_GetRangeOfTrysToCheck@@YAPEBU_s_TryBlockMapEntry@@PEA_KPEBU_s_FuncInfo@@HHPEAI2PEAU_xDISPATCHER_CONTEXT@@@Z 000000018004a2dc     libvcruntime:trnsctrl.obj
 0002:000122dc       $unwind$??R<lambda_4e60a939b0d047cfe11ddc22648dfba9>@@QEBAHXZ 000000018004a2dc     libucrt:onexit.obj
 0002:000122dc       $unwind$?write_string@?$string_output_adapter@D@__crt_stdio_output@@QEBAXQEBDHQEAH1@Z 000000018004a2dc     libucrt:output.obj
 0002:000122f8       $unwind$??$initialize_environment_by_cloning_nolock@D@@YAHXZ 000000018004a2f8     libucrt:environment_initialization.obj
 0002:00012308       $unwind$_register_onexit_function 000000018004a308     libucrt:onexit.obj
 0002:00012310       $unwind$_execute_onexit_table 000000018004a310     libucrt:onexit.obj
 0002:00012318       $unwind$??$?RV<lambda_b8c45f8f788dd370798f47cfe8ac3a86>@@AEAV<lambda_4e60a939b0d047cfe11ddc22648dfba9>@@V<lambda_332c3edc96d0294ec56c57d38c1cdfd5>@@@?$__crt_seh_guarded_call@H@@QEAAH$$QEAV<lambda_b8c45f8f788dd370798f47cfe8ac3a86>@@AEAV<lambda_4e60a939b0d047cfe11ddc22648dfba9>@@$$QEAV<lambda_332c3edc96d0294ec56c57d38c1cdfd5>@@@Z 000000018004a318     libucrt:onexit.obj
 0002:0001233c       $unwind$??$?RV<lambda_e24bbb7b643b32fcea6fa61b31d4c984>@@AEAV<lambda_275893d493268fdec8709772e3fcec0e>@@V<lambda_9d71df4d7cf3f480f8d633942495c3b0>@@@?$__crt_seh_guarded_call@H@@QEAAH$$QEAV<lambda_e24bbb7b643b32fcea6fa61b31d4c984>@@AEAV<lambda_275893d493268fdec8709772e3fcec0e>@@$$QEAV<lambda_9d71df4d7cf3f480f8d633942495c3b0>@@@Z 000000018004a33c     libucrt:onexit.obj
 0002:0001236c       $unwind$??$parse_integer@KV?$c_string_character_source@D@__crt_strtox@@@__crt_strtox@@YAKQEAU__crt_locale_pointers@@V?$c_string_character_source@D@0@H_N@Z 000000018004a36c     libucrt:atox.obj
 0002:00012388       $unwind$__acrt_call_reportfault 000000018004a388     libucrt:invalid_parameter.obj
 0002:000123a8       $unwind$_invalid_parameter 000000018004a3a8     libucrt:invalid_parameter.obj
 0002:000123c0       $unwind$?destroy_ptd_array@@YAXQEAU__acrt_ptd@@@Z 000000018004a3c0     libucrt:per_thread_data.obj
 0002:000123c8       $unwind$??$?RV<lambda_72d1df2b273a38828b1ce30cbf4cdab5>@@AEAV<lambda_876a65b173b8412d3a47c70a915b0cf4>@@V<lambda_41932305e351933ebe8f8be3ed8bb5dc>@@@?$__crt_seh_guarded_call@X@@QEAAX$$QEAV<lambda_72d1df2b273a38828b1ce30cbf4cdab5>@@AEAV<lambda_876a65b173b8412d3a47c70a915b0cf4>@@$$QEAV<lambda_41932305e351933ebe8f8be3ed8bb5dc>@@@Z 000000018004a3c8     libucrt:per_thread_data.obj
 0002:000123ec       $unwind$??$?RV<lambda_5e887d1dcbef67a5eb4283622ba103bf>@@AEAV<lambda_4466841279450cc726390878d4a41900>@@V<lambda_341c25c0346d94847f1f3c463c57e077>@@@?$__crt_seh_guarded_call@X@@QEAAX$$QEAV<lambda_5e887d1dcbef67a5eb4283622ba103bf>@@AEAV<lambda_4466841279450cc726390878d4a41900>@@$$QEAV<lambda_341c25c0346d94847f1f3c463c57e077>@@@Z 000000018004a3ec     libucrt:per_thread_data.obj
 0002:00012410       $unwind$??$?RV<lambda_46352004c1216016012b18bd6f87e700>@@AEAV<lambda_3bd07e1a1191394380780325891bf33f>@@V<lambda_334532d3f185bcaa59b5be82d7d22bff>@@@?$__crt_seh_guarded_call@X@@QEAAX$$QEAV<lambda_46352004c1216016012b18bd6f87e700>@@AEAV<lambda_3bd07e1a1191394380780325891bf33f>@@$$QEAV<lambda_334532d3f185bcaa59b5be82d7d22bff>@@@Z 000000018004a410     libucrt:per_thread_data.obj
 0002:00012434       $unwind$??$?RV<lambda_fb3a7dec4e47f37f22dae91bb15c9095>@@AEAV<lambda_698284760c8add0bfb0756c19673e34b>@@V<lambda_dfb8eca1e75fef3034a8fb18dd509707>@@@?$__crt_seh_guarded_call@X@@QEAAX$$QEAV<lambda_fb3a7dec4e47f37f22dae91bb15c9095>@@AEAV<lambda_698284760c8add0bfb0756c19673e34b>@@$$QEAV<lambda_dfb8eca1e75fef3034a8fb18dd509707>@@@Z 000000018004a434     libucrt:per_thread_data.obj
 0002:00012458       $unwind$__acrt_initialize_winapi_thunks 000000018004a458     libucrt:winapi_thunks.obj
 0002:00012460       $unwind$__acrt_CompareStringEx 000000018004a460     libucrt:winapi_thunks.obj
 0002:00012460       $unwind$_mbtowc_l          000000018004a460     libucrt:mbtowc.obj
 0002:00012460       $unwind$__acrt_LCMapStringEx 000000018004a460     libucrt:winapi_thunks.obj
 0002:00012460       $unwind$??0__ExceptionPtr@@QEAA@PEBUEHExceptionRecord@@_N@Z 000000018004a460     libcpmt:excptptr.obj
 0002:00012478       $unwind$_fcloseall         000000018004a478     libucrt:closeall.obj
 0002:0001249c       $unwind$__acrt_initialize_lowio 000000018004a49c     libucrt:ioinit.obj
 0002:000124bc       $unwind$?initialize_inherited_file_handles_nolock@@YAXXZ 000000018004a4bc     libucrt:ioinit.obj
 0002:000124d8       $unwind$_tolower_l         000000018004a4d8     libucrt:tolower_toupper.obj
 0002:000124e8       $unwind$_wctomb_s_l        000000018004a4e8     libucrt:wctomb.obj
 0002:000124f8       $unwind$wcsnlen            000000018004a4f8     libucrt:strnlen.obj
 0002:000124f8       $unwind$strnlen            000000018004a4f8     libucrt:strnlen.obj
 0002:00012500       $unwind$__acrt_fp_format   000000018004a500     libucrt:cvt.obj
 0002:0001251c       $unwind$?fp_format_nan_or_infinity@@YAHW4__acrt_fp_class@@_NPEAD_K1@Z 000000018004a51c     libucrt:cvt.obj
 0002:00012530       $unwind$?fp_format_e_internal@@YAHQEAD_KH_NIQEAU_strflt@@2QEAU__crt_locale_pointers@@@Z 000000018004a530     libucrt:cvt.obj
 0002:00012548       $unwind$?fp_format_a@@YAHQEBNPEAD_KQEAD2H_NIQEAU__crt_locale_pointers@@@Z 000000018004a548     libucrt:cvt.obj
 0002:00012564       $unwind$?fp_format_g@@YAHQEBNQEAD_K12H_NIQEAU__crt_locale_pointers@@@Z 000000018004a564     libucrt:cvt.obj
 0002:00012578       $unwind$??0DName@@QEAA@D@Z 000000018004a578     libvcruntime:undname.obj
 0002:00012578       $unwind$__acrt_stdio_end_temporary_buffering_nolock 000000018004a578     libucrt:_sftbuf.obj
 0002:00012578       $unwind$__vcrt_uninitialize_winapi_thunks 000000018004a578     libvcruntime:winapi_downlevel.obj
 0002:00012580       $unwind$__acrt_uninitialize_locale 000000018004a580     libucrt:wsetlocale.obj
 0002:000125a0       $unwind$__acrt_get_sigabrt_handler 000000018004a5a0     libucrt:signal.obj
 0002:000125a8       $unwind$raise              000000018004a5a8     libucrt:signal.obj
 0002:000125d4       $unwind$??$?RV<lambda_c36588078e9f5dfd39652860aa6b3aaf>@@AEAV<lambda_ec61778202f4f5fc7e7711acc23c3bca>@@V<lambda_dc9d2797ccde5d239b4a0efae8ebd7db>@@@?$__crt_seh_guarded_call@P6AXH@Z@@QEAAP6AXH@Z$$QEAV<lambda_c36588078e9f5dfd39652860aa6b3aaf>@@AEAV<lambda_ec61778202f4f5fc7e7711acc23c3bca>@@$$QEAV<lambda_dc9d2797ccde5d239b4a0efae8ebd7db>@@@Z 000000018004a5d4     libucrt:signal.obj
 0002:000125f8       $unwind$??$?RV<lambda_b521505b218e5242e90febf6bfebc422>@@AEAV<lambda_6978c1fb23f02e42e1d9e99668cc68aa>@@V<lambda_314360699dd331753a4119843814e9a7>@@@?$__crt_seh_guarded_call@H@@QEAAH$$QEAV<lambda_b521505b218e5242e90febf6bfebc422>@@AEAV<lambda_6978c1fb23f02e42e1d9e99668cc68aa>@@$$QEAV<lambda_314360699dd331753a4119843814e9a7>@@@Z 000000018004a5f8     libucrt:commit.obj
 0002:0001261c       $unwind$_write             000000018004a61c     libucrt:write.obj
 0002:0001264c       $unwind$_write_nolock      000000018004a64c     libucrt:write.obj
 0002:00012664       $unwind$?write_double_translated_ansi_nolock@@YA?AUwrite_result@?A0x9c548279@@HQEBDI@Z 000000018004a664     libucrt:write.obj
 0002:00012684       $unwind$?write_text_utf16le_nolock@@YA?AUwrite_result@?A0x9c548279@@HQEBDI@Z 000000018004a684     libucrt:write.obj
 0002:00012684       $unwind$?write_text_ansi_nolock@@YA?AUwrite_result@?A0x9c548279@@HQEBDI@Z 000000018004a684     libucrt:write.obj
 0002:000126a4       $unwind$?write_text_utf8_nolock@@YA?AUwrite_result@?A0x9c548279@@HQEBDI@Z 000000018004a6a4     libucrt:write.obj
 0002:000126c8       $unwind$??$common_expand_argv_wildcards@D@@YAHQEAPEADQEAPEAPEAD@Z 000000018004a6c8     libucrt:argv_wildcards.obj
 0002:000126e0       $unwind$??$copy_and_add_argument_to_buffer@D@@YAHQEBD0_KAEAV?$argument_list@D@?A0xca0879c4@@@Z 000000018004a6e0     libucrt:argv_wildcards.obj
 0002:000126fc       $unwind$??$expand_argument_wildcards@D@@YAHQEAD0AEAV?$argument_list@D@?A0xca0879c4@@@Z 000000018004a6fc     libucrt:argv_wildcards.obj
 0002:0001271c       $unwind$__acrt_update_thread_multibyte_data 000000018004a71c     libucrt:mbctype.obj
 0002:00012740       $unwind$_setmbcp_nolock    000000018004a740     libucrt:mbctype.obj
 0002:00012760       $unwind$?getSystemCP@@YAHH@Z 000000018004a760     libucrt:mbctype.obj
 0002:00012760       $unwind$?getStringEncoding@UnDecorator@@CA?AVDName@@PEADH@Z 000000018004a760     libvcruntime:undname.obj
 0002:00012760       $unwind$?getBasedType@UnDecorator@@CA?AVDName@@XZ 000000018004a760     libvcruntime:undname.obj
 0002:00012760       $unwind$_isleadbyte_l      000000018004a760     libucrt:_wctype.obj
 0002:00012760       $unwind$isdigit            000000018004a760     libucrt:_ctype.obj
 0002:00012768       $unwind$?setSBUpLow@@YAXPEAU__crt_multibyte_data@@@Z 000000018004a768     libucrt:mbctype.obj
 0002:00012784       $unwind$?setmbcp_internal@@YAHH_N@Z 000000018004a784     libucrt:mbctype.obj
 0002:00012794       $unwind$??$?RV<lambda_99476a1ad63dd22509b5d3e65b0ffc95>@@AEAV<lambda_ad1ced32f4ac17aa236e5ef05d6b3b7c>@@V<lambda_f7424dd8d45958661754dc4f2697e9c3>@@@?$__crt_seh_guarded_call@X@@QEAAX$$QEAV<lambda_99476a1ad63dd22509b5d3e65b0ffc95>@@AEAV<lambda_ad1ced32f4ac17aa236e5ef05d6b3b7c>@@$$QEAV<lambda_f7424dd8d45958661754dc4f2697e9c3>@@@Z 000000018004a794     libucrt:mbctype.obj
 0002:000127b8       $unwind$?fp_format_f_internal@@YAHQEAD_KHQEAU_strflt@@_NQEAU__crt_locale_pointers@@@Z 000000018004a7b8     libucrt:cvt.obj
 0002:000127b8       $unwind$__dcrt_get_narrow_environment_from_os 000000018004a7b8     libucrt:get_environment_from_os.obj
 0002:000127d0       $unwind$??$common_set_variable_in_environment_nolock@D@@YAHQEADH@Z 000000018004a7d0     libucrt:setenv.obj
 0002:000127e8       $unwind$??$copy_environment@D@@YAPEAPEADQEAPEAD@Z 000000018004a7e8     libucrt:setenv.obj
 0002:000127fc       $unwind$_isctype_l         000000018004a7fc     libucrt:isctype.obj
 0002:00012818       $unwind$__acrt_update_thread_locale_data 000000018004a818     libucrt:locale_refcounting.obj
 0002:0001283c       $unwind$?GetTableIndexFromLocaleName@@YAHPEB_W@Z 000000018004a83c     libucrt:lcidtoname_downlevel.obj
 0002:00012854       $unwind$fclose             000000018004a854     libucrt:fclose.obj
 0002:00012878       $unwind$_free_osfhnd       000000018004a878     libucrt:osfinfo.obj
 0002:00012878       $unwind$__std_exception_copy 000000018004a878     libvcruntime:std_exception.obj
 0002:00012878       $unwind$?getString@DName@@QEBAPEADPEADH@Z 000000018004a878     libvcruntime:undname.obj
 0002:00012878       $unwind$?initialize_stdio_handles_nolock@@YAXXZ 000000018004a878     libucrt:ioinit.obj
 0002:0001288c       $unwind$__acrt_lowio_destroy_handle_array 000000018004a88c     libucrt:osfinfo.obj
 0002:0001289c       $unwind$__acrt_lowio_ensure_fh_exists 000000018004a89c     libucrt:osfinfo.obj
 0002:000128c8       $unwind$__acrt_LCMapStringA 000000018004a8c8     libucrt:lcmapstringa.obj
 0002:000128d8       $unwind$?__acrt_LCMapStringA_stat@@YAHPEAU__crt_locale_pointers@@PEB_WKPEBDHPEADHHH@Z 000000018004a8d8     libucrt:lcmapstringa.obj
 0002:00012900       $unwind$__acrt_fltout      000000018004a900     libucrt:cfout.obj
 0002:00012920       $unwind$?divide@__crt_strtox@@YA_KAEAUbig_integer@1@AEBU21@@Z 000000018004a920     libucrt:cfout.obj
 0002:00012940       $chain$5$?divide@__crt_strtox@@YA_KAEAUbig_integer@1@AEBU21@@Z 000000018004a940     libucrt:cfout.obj
 0002:00012954       $chain$6$?divide@__crt_strtox@@YA_KAEAUbig_integer@1@AEBU21@@Z 000000018004a954     libucrt:cfout.obj
 0002:00012964       $unwind$??$write_buffer_nolock@D@@YA_NDV__crt_stdio_stream@@@Z 000000018004a964     libucrt:_flsbuf.obj
 0002:00012974       $unwind$__acrt_locale_free_monetary 000000018004a974     libucrt:initmon.obj
 0002:0001297c       $unwind$__acrt_locale_free_time 000000018004a97c     libucrt:inittime.obj
 0002:0001298c       $unwind$__acrt_GetStringTypeA 000000018004a98c     libucrt:getstringtypea.obj
 0002:000129b4       $unwind$??$common_lseek@_J@@YA_JH_JH@Z 000000018004a9b4     libucrt:lseek.obj
 0002:000129e4       $unwind$__acrt_CompareStringA 000000018004a9e4     libucrt:comparestringa.obj
 0002:000129f4       $unwind$?InternalCompareStringA@@YAHPEAU__crt_locale_pointers@@PEB_WKPEBDH2HH@Z 000000018004a9f4     libucrt:comparestringa.obj
 0002:00012a18       $unwind$qsort              000000018004aa18     libucrt:qsort.obj
 0002:00012a30       $chain$4$qsort             000000018004aa30     libucrt:qsort.obj
 0002:00012a54       $chain$5$qsort             000000018004aa54     libucrt:qsort.obj
 0002:00012a64       $unwind$?shortsort@@YAXPEAD0_KP6AHPEBX2@Z@Z 000000018004aa64     libucrt:qsort.obj
 0002:00012a74       $chain$2$?shortsort@@YAXPEAD0_KP6AHPEBX2@Z@Z 000000018004aa74     libucrt:qsort.obj
 0002:00012a90       $chain$3$?shortsort@@YAXPEAD0_KP6AHPEBX2@Z@Z 000000018004aa90     libucrt:qsort.obj
 0002:00012aa0       $unwind$strpbrk            000000018004aaa0     libucrt:strpbrk.obj
 0002:00012ab0       $unwind$_close             000000018004aab0     libucrt:close.obj
 0002:00012ab0       $unwind$_commit            000000018004aab0     libucrt:commit.obj
 0002:00012ab8       $unwind$??$?RV<lambda_bfedae4ebbf01fab1bb6dcc6a9e276e0>@@AEAV<lambda_2fe9b910cf3cbf4a0ab98a02ba45b3ec>@@V<lambda_237c231691f317818eb88cc1d5d642d6>@@@?$__crt_seh_guarded_call@H@@QEAAH$$QEAV<lambda_bfedae4ebbf01fab1bb6dcc6a9e276e0>@@AEAV<lambda_2fe9b910cf3cbf4a0ab98a02ba45b3ec>@@$$QEAV<lambda_237c231691f317818eb88cc1d5d642d6>@@@Z 000000018004aab8     libucrt:close.obj
 0002:00012ae0       $xdatasym                  000000018004aae0     libucrt:log10.obj
 0002:00012aec       $unwind$common_control87   000000018004aaec     libucrt:ieee.obj
 0002:00012b1c       $unwind$_call_matherr      000000018004ab1c     libucrt:libm_error.obj
 0002:00012b24       $unwind$_handle_error      000000018004ab24     libucrt:libm_error.obj
 0002:00012b44       $unwind$__acrt_initialize_fma3 000000018004ab44     libucrt:fma3_available.obj
 0002:00012b4c       $unwind$_log_special_common 000000018004ab4c     libucrt:log_special.obj
 0002:00012b58       $xdatasym                  000000018004ab58     libucrt:fpsr.obj
 0002:00012b60       $unwind$_raise_exc_ex      000000018004ab60     libucrt:fpexcept.obj
 0002:00012b74       $unwind$_ctrlfp            000000018004ab74     libucrt:fpctrl.obj
 0002:00012b9c       $unwind$_IsNonwritableInCurrentImage 000000018004ab9c     LIBCMT:pesect.obj
 0002:00012bc0       $xdatasym                  000000018004abc0     libvcruntime:memcmp.obj
 0002:00013280       .edata                     000000018004b280     tbb.exp
 0002:000132a8       rgpv                       000000018004b2a8     tbb.exp
 0002:0001363c       rgszName                   000000018004b63c     tbb.exp
 0002:000139d0       rgwOrd                     000000018004b9d0     tbb.exp
 0002:00013b9a       szName                     000000018004bb9a     tbb.exp
 0002:00013ba2       $N00001                    000000018004bba2     tbb.exp
 0002:00013bd3       $N00002                    000000018004bbd3     tbb.exp
 0002:00013c07       $N00003                    000000018004bc07     tbb.exp
 0002:00013c5c       $N00004                    000000018004bc5c     tbb.exp
 0002:00013cb7       $N00005                    000000018004bcb7     tbb.exp
 0002:00013d14       $N00006                    000000018004bd14     tbb.exp
 0002:00013d2d       $N00007                    000000018004bd2d     tbb.exp
 0002:00013d50       $N00008                    000000018004bd50     tbb.exp
 0002:00013d7f       $N00009                    000000018004bd7f     tbb.exp
 0002:00013db1       $N00010                    000000018004bdb1     tbb.exp
 0002:00013de9       $N00011                    000000018004bde9     tbb.exp
 0002:00013e24       $N00012                    000000018004be24     tbb.exp
 0002:00013e57       $N00013                    000000018004be57     tbb.exp
 0002:00013e6e       $N00014                    000000018004be6e     tbb.exp
 0002:00013e87       $N00015                    000000018004be87     tbb.exp
 0002:00013eaa       $N00016                    000000018004beaa     tbb.exp
 0002:00013ec0       $N00017                    000000018004bec0     tbb.exp
 0002:00013eec       $N00018                    000000018004beec     tbb.exp
 0002:00013f0e       $N00019                    000000018004bf0e     tbb.exp
 0002:00013f34       $N00020                    000000018004bf34     tbb.exp
 0002:00013f6b       $N00021                    000000018004bf6b     tbb.exp
 0002:00013fa7       $N00022                    000000018004bfa7     tbb.exp
 0002:00013fdc       $N00023                    000000018004bfdc     tbb.exp
 0002:0001400b       $N00024                    000000018004c00b     tbb.exp
 0002:00014049       $N00025                    000000018004c049     tbb.exp
 0002:0001408a       $N00026                    000000018004c08a     tbb.exp
 0002:000140d9       $N00027                    000000018004c0d9     tbb.exp
 0002:0001411a       $N00028                    000000018004c11a     tbb.exp
 0002:00014162       $N00029                    000000018004c162     tbb.exp
 0002:000141a0       $N00030                    000000018004c1a0     tbb.exp
 0002:000141ed       $N00031                    000000018004c1ed     tbb.exp
 0002:0001421b       $N00032                    000000018004c21b     tbb.exp
 0002:0001424d       $N00033                    000000018004c24d     tbb.exp
 0002:00014272       $N00034                    000000018004c272     tbb.exp
 0002:000142b1       $N00035                    000000018004c2b1     tbb.exp
 0002:000142f6       $N00036                    000000018004c2f6     tbb.exp
 0002:0001433e       $N00037                    000000018004c33e     tbb.exp
 0002:0001436b       $N00038                    000000018004c36b     tbb.exp
 0002:000143a4       $N00039                    000000018004c3a4     tbb.exp
 0002:000143d9       $N00040                    000000018004c3d9     tbb.exp
 0002:00014412       $N00041                    000000018004c412     tbb.exp
 0002:00014439       $N00042                    000000018004c439     tbb.exp
 0002:00014456       $N00043                    000000018004c456     tbb.exp
 0002:00014489       $N00044                    000000018004c489     tbb.exp
 0002:000144bd       $N00045                    000000018004c4bd     tbb.exp
 0002:000144e6       $N00046                    000000018004c4e6     tbb.exp
 0002:00014508       $N00047                    000000018004c508     tbb.exp
 0002:00014545       $N00048                    000000018004c545     tbb.exp
 0002:00014571       $N00049                    000000018004c571     tbb.exp
 0002:000145b1       $N00050                    000000018004c5b1     tbb.exp
 0002:000145fb       $N00051                    000000018004c5fb     tbb.exp
 0002:00014637       $N00052                    000000018004c637     tbb.exp
 0002:0001467a       $N00053                    000000018004c67a     tbb.exp
 0002:000146b3       $N00054                    000000018004c6b3     tbb.exp
 0002:000146fb       $N00055                    000000018004c6fb     tbb.exp
 0002:00014724       $N00056                    000000018004c724     tbb.exp
 0002:0001475f       $N00057                    000000018004c75f     tbb.exp
 0002:00014787       $N00058                    000000018004c787     tbb.exp
 0002:000147bf       $N00059                    000000018004c7bf     tbb.exp
 0002:000147e5       $N00060                    000000018004c7e5     tbb.exp
 0002:00014813       $N00061                    000000018004c813     tbb.exp
 0002:00014843       $N00062                    000000018004c843     tbb.exp
 0002:00014872       $N00063                    000000018004c872     tbb.exp
 0002:000148b1       $N00064                    000000018004c8b1     tbb.exp
 0002:000148e9       $N00065                    000000018004c8e9     tbb.exp
 0002:0001492b       $N00066                    000000018004c92b     tbb.exp
 0002:00014968       $N00067                    000000018004c968     tbb.exp
 0002:000149a1       $N00068                    000000018004c9a1     tbb.exp
 0002:000149d8       $N00069                    000000018004c9d8     tbb.exp
 0002:00014a3a       $N00070                    000000018004ca3a     tbb.exp
 0002:00014a74       $N00071                    000000018004ca74     tbb.exp
 0002:00014aac       $N00072                    000000018004caac     tbb.exp
 0002:00014b0e       $N00073                    000000018004cb0e     tbb.exp
 0002:00014b6e       $N00074                    000000018004cb6e     tbb.exp
 0002:00014bd1       $N00075                    000000018004cbd1     tbb.exp
 0002:00014c13       $N00076                    000000018004cc13     tbb.exp
 0002:00014c54       $N00077                    000000018004cc54     tbb.exp
 0002:00014c98       $N00078                    000000018004cc98     tbb.exp
 0002:00014ce3       $N00079                    000000018004cce3     tbb.exp
 0002:00014d30       $N00080                    000000018004cd30     tbb.exp
 0002:00014d8f       $N00081                    000000018004cd8f     tbb.exp
 0002:00014ded       $N00082                    000000018004cded     tbb.exp
 0002:00014e4b       $N00083                    000000018004ce4b     tbb.exp
 0002:00014ecc       $N00084                    000000018004cecc     tbb.exp
 0002:00014f0a       $N00085                    000000018004cf0a     tbb.exp
 0002:00014f31       $N00086                    000000018004cf31     tbb.exp
 0002:00014f60       $N00087                    000000018004cf60     tbb.exp
 0002:00014f92       $N00088                    000000018004cf92     tbb.exp
 0002:00014fd1       $N00089                    000000018004cfd1     tbb.exp
 0002:00015002       $N00090                    000000018004d002     tbb.exp
 0002:00015055       $N00091                    000000018004d055     tbb.exp
 0002:000150ad       $N00092                    000000018004d0ad     tbb.exp
 0002:000150d9       $N00093                    000000018004d0d9     tbb.exp
 0002:0001510b       $N00094                    000000018004d10b     tbb.exp
 0002:00015151       $N00095                    000000018004d151     tbb.exp
 0002:000151a6       $N00096                    000000018004d1a6     tbb.exp
 0002:000151fe       $N00097                    000000018004d1fe     tbb.exp
 0002:00015236       $N00098                    000000018004d236     tbb.exp
 0002:0001527c       $N00099                    000000018004d27c     tbb.exp
 0002:000152ad       $N00100                    000000018004d2ad     tbb.exp
 0002:000152e6       $N00101                    000000018004d2e6     tbb.exp
 0002:0001530b       $N00102                    000000018004d30b     tbb.exp
 0002:00015348       $N00103                    000000018004d348     tbb.exp
 0002:00015377       $N00104                    000000018004d377     tbb.exp
 0002:000153c0       $N00105                    000000018004d3c0     tbb.exp
 0002:0001540e       $N00106                    000000018004d40e     tbb.exp
 0002:00015469       $N00107                    000000018004d469     tbb.exp
 0002:0001549d       $N00108                    000000018004d49d     tbb.exp
 0002:000154cf       $N00109                    000000018004d4cf     tbb.exp
 0002:0001552b       $N00110                    000000018004d52b     tbb.exp
 0002:0001556b       $N00111                    000000018004d56b     tbb.exp
 0002:000155bb       $N00112                    000000018004d5bb     tbb.exp
 0002:00015614       $N00113                    000000018004d614     tbb.exp
 0002:0001565a       $N00114                    000000018004d65a     tbb.exp
 0002:000156a8       $N00115                    000000018004d6a8     tbb.exp
 0002:000156fe       $N00116                    000000018004d6fe     tbb.exp
 0002:00015744       $N00117                    000000018004d744     tbb.exp
 0002:0001579a       $N00118                    000000018004d79a     tbb.exp
 0002:000157f8       $N00119                    000000018004d7f8     tbb.exp
 0002:00015863       $N00120                    000000018004d863     tbb.exp
 0002:000158a9       $N00121                    000000018004d8a9     tbb.exp
 0002:00015907       $N00122                    000000018004d907     tbb.exp
 0002:0001593f       $N00123                    000000018004d93f     tbb.exp
 0002:0001597d       $N00124                    000000018004d97d     tbb.exp
 0002:000159be       $N00125                    000000018004d9be     tbb.exp
 0002:00015a08       $N00126                    000000018004da08     tbb.exp
 0002:00015a55       $N00127                    000000018004da55     tbb.exp
 0002:00015a94       $N00128                    000000018004da94     tbb.exp
 0002:00015ad6       $N00129                    000000018004dad6     tbb.exp
 0002:00015b21       $N00130                    000000018004db21     tbb.exp
 0002:00015b6f       $N00131                    000000018004db6f     tbb.exp
 0002:00015bbb       $N00132                    000000018004dbbb     tbb.exp
 0002:00015c0a       $N00133                    000000018004dc0a     tbb.exp
 0002:00015c51       $N00134                    000000018004dc51     tbb.exp
 0002:00015ca5       $N00135                    000000018004dca5     tbb.exp
 0002:00015cd6       $N00136                    000000018004dcd6     tbb.exp
 0002:00015d11       $N00137                    000000018004dd11     tbb.exp
 0002:00015d47       $N00138                    000000018004dd47     tbb.exp
 0002:00015da0       $N00139                    000000018004dda0     tbb.exp
 0002:00015dd9       $N00140                    000000018004ddd9     tbb.exp
 0002:00015e10       $N00141                    000000018004de10     tbb.exp
 0002:00015e49       $N00142                    000000018004de49     tbb.exp
 0002:00015e80       $N00143                    000000018004de80     tbb.exp
 0002:00015ec3       $N00144                    000000018004dec3     tbb.exp
 0002:00015f09       $N00145                    000000018004df09     tbb.exp
 0002:00015f66       $N00146                    000000018004df66     tbb.exp
 0002:00015fad       $N00147                    000000018004dfad     tbb.exp
 0002:00015ff7       $N00148                    000000018004dff7     tbb.exp
 0002:00016022       $N00149                    000000018004e022     tbb.exp
 0002:0001605e       $N00150                    000000018004e05e     tbb.exp
 0002:0001609d       $N00151                    000000018004e09d     tbb.exp
 0002:000160dc       $N00152                    000000018004e0dc     tbb.exp
 0002:00016123       $N00153                    000000018004e123     tbb.exp
 0002:00016168       $N00154                    000000018004e168     tbb.exp
 0002:000161b1       $N00155                    000000018004e1b1     tbb.exp
 0002:000161fd       $N00156                    000000018004e1fd     tbb.exp
 0002:0001623a       $N00157                    000000018004e23a     tbb.exp
 0002:00016281       $N00158                    000000018004e281     tbb.exp
 0002:000162c3       $N00159                    000000018004e2c3     tbb.exp
 0002:00016301       $N00160                    000000018004e301     tbb.exp
 0002:0001633d       $N00161                    000000018004e33d     tbb.exp
 0002:0001637b       $N00162                    000000018004e37b     tbb.exp
 0002:000163b7       $N00163                    000000018004e3b7     tbb.exp
 0002:0001641c       $N00164                    000000018004e41c     tbb.exp
 0002:0001644f       $N00165                    000000018004e44f     tbb.exp
 0002:00016480       $N00166                    000000018004e480     tbb.exp
 0002:000164da       $N00167                    000000018004e4da     tbb.exp
 0002:0001651a       $N00168                    000000018004e51a     tbb.exp
 0002:00016559       $N00169                    000000018004e559     tbb.exp
 0002:00016581       $N00170                    000000018004e581     tbb.exp
 0002:000165b0       $N00171                    000000018004e5b0     tbb.exp
 0002:000165e0       $N00172                    000000018004e5e0     tbb.exp
 0002:0001661d       $N00173                    000000018004e61d     tbb.exp
 0002:00016650       $N00174                    000000018004e650     tbb.exp
 0002:0001668c       $N00175                    000000018004e68c     tbb.exp
 0002:000166b6       $N00176                    000000018004e6b6     tbb.exp
 0002:000166e7       $N00177                    000000018004e6e7     tbb.exp
 0002:0001671d       $N00178                    000000018004e71d     tbb.exp
 0002:00016749       $N00179                    000000018004e749     tbb.exp
 0002:0001678e       $N00180                    000000018004e78e     tbb.exp
 0002:000167c1       $N00181                    000000018004e7c1     tbb.exp
 0002:000167ea       $N00182                    000000018004e7ea     tbb.exp
 0002:0001680c       $N00183                    000000018004e80c     tbb.exp
 0002:00016848       $N00184                    000000018004e848     tbb.exp
 0002:00016882       $N00185                    000000018004e882     tbb.exp
 0002:000168c3       $N00186                    000000018004e8c3     tbb.exp
 0002:000168ff       $N00187                    000000018004e8ff     tbb.exp
 0002:0001692f       $N00188                    000000018004e92f     tbb.exp
 0002:00016962       $N00189                    000000018004e962     tbb.exp
 0002:00016989       $N00190                    000000018004e989     tbb.exp
 0002:000169c5       $N00191                    000000018004e9c5     tbb.exp
 0002:000169e2       $N00192                    000000018004e9e2     tbb.exp
 0002:00016a18       $N00193                    000000018004ea18     tbb.exp
 0002:00016a41       $N00194                    000000018004ea41     tbb.exp
 0002:00016a5d       $N00195                    000000018004ea5d     tbb.exp
 0002:00016a87       $N00196                    000000018004ea87     tbb.exp
 0002:00016abf       $N00197                    000000018004eabf     tbb.exp
 0002:00016ae5       $N00198                    000000018004eae5     tbb.exp
 0002:00016b22       $N00199                    000000018004eb22     tbb.exp
 0002:00016b5c       $N00200                    000000018004eb5c     tbb.exp
 0002:00016b88       $N00201                    000000018004eb88     tbb.exp
 0002:00016bc4       $N00202                    000000018004ebc4     tbb.exp
 0002:00016c05       $N00203                    000000018004ec05     tbb.exp
 0002:00016c2a       $N00204                    000000018004ec2a     tbb.exp
 0002:00016c61       $N00205                    000000018004ec61     tbb.exp
 0002:00016c9b       $N00206                    000000018004ec9b     tbb.exp
 0002:00016cd7       $N00207                    000000018004ecd7     tbb.exp
 0002:00016d18       $N00208                    000000018004ed18     tbb.exp
 0002:00016d4e       $N00209                    000000018004ed4e     tbb.exp
 0002:00016d89       $N00210                    000000018004ed89     tbb.exp
 0002:00016dce       $N00211                    000000018004edce     tbb.exp
 0002:00016e01       $N00212                    000000018004ee01     tbb.exp
 0002:00016e3f       $N00213                    000000018004ee3f     tbb.exp
 0002:00016e64       $N00214                    000000018004ee64     tbb.exp
 0002:00016e8d       $N00215                    000000018004ee8d     tbb.exp
 0002:00016eb1       $N00216                    000000018004eeb1     tbb.exp
 0002:00016ee3       $N00217                    000000018004eee3     tbb.exp
 0002:00016f06       $N00218                    000000018004ef06     tbb.exp
 0002:00016f27       $N00219                    000000018004ef27     tbb.exp
 0002:00016f45       $N00220                    000000018004ef45     tbb.exp
 0002:00016f5b       $N00221                    000000018004ef5b     tbb.exp
 0002:00016f71       $N00222                    000000018004ef71     tbb.exp
 0002:00016f89       $N00223                    000000018004ef89     tbb.exp
 0002:00016fa1       $N00224                    000000018004efa1     tbb.exp
 0002:00016fbb       $N00225                    000000018004efbb     tbb.exp
 0002:00016fd5       $N00226                    000000018004efd5     tbb.exp
 0002:00016ff5       $N00227                    000000018004eff5     tbb.exp
 0002:00017009       $N00228                    000000018004f009     tbb.exp
 0002:00017027       $N00229                    000000018004f027     tbb.exp
 0002:0001765a       .idata$6                   000000018004f65a     kernel32:KERNEL32.dll
 0003:00000000       ?_StaticAllocStorageLeft@@3_KA 0000000180050000     libcpmt:excptptr.obj
 0003:00000040       ?__vcrt_flsindex@@3KA      0000000180050040     libvcruntime:per_thread_data.obj
 0003:00000050       errno_no_memory            0000000180050050     libucrt:errno.obj
 0003:00000054       doserrno_no_memory         0000000180050054     libucrt:errno.obj
 0003:0000016c       __acrt_flsindex            000000018005016c     libucrt:per_thread_data.obj
 0003:00000550       __rgctypeflag              0000000180050550     libucrt:mbctype.obj
 0003:00000560       __rgcode_page_info         0000000180050560     libucrt:mbctype.obj
 0003:00000918       ?dazSupported@?1??common_control87@@9@9 0000000180050918     libucrt:ieee.obj
 0003:00000920       ?dazSupported@?1??_ctrlfp@@9@9 0000000180050920     libucrt:fpctrl.obj
 0003:00000930       ?dummy@?1??make_invalid@micro_queue@internal@tbb@@QEAAX_K@Z@4Upage@concurrent_queue_base_v3@34@A 0000000180050930     concurrent_queue.obj
 0003:00000a20       ?group_list@@3PAU___itt_group_list@@A 0000000180050a20     itt_notify.obj
 0003:00000d50       ?api_list@@3PAU___itt_api_info@@A 0000000180050d50     itt_notify.obj
 0003:000027c0       ?group_alias@@3PAU___itt_group_alias@@A 00000001800527c0     itt_notify.obj
 0003:00002878       ?padded_allocate_handler@internal@tbb@@3P6APEAX_K0@ZEA 0000000180052878     cache_aligned_allocator.obj
 0003:00002880       ?padded_free_handler@internal@tbb@@3P6AXPEAX@ZEA 0000000180052880     cache_aligned_allocator.obj
 0003:00002888       ?MallocHandler@internal@tbb@@3P6APEAX_K@ZEA 0000000180052888     cache_aligned_allocator.obj
 0003:00002890       ?FreeHandler@internal@tbb@@3P6AXPEAX@ZEA 0000000180052890     cache_aligned_allocator.obj
 0003:00002898       ?__TBB_destroy_condvar@internal@tbb@@3P6AXPEAU_RTL_CONDITION_VARIABLE@@@ZEA 0000000180052898     condition_variable.obj
 0003:000028a0       ?__TBB_condvar_wait@internal@tbb@@3P6AHPEAU_RTL_CONDITION_VARIABLE@@PEAU_RTL_CRITICAL_SECTION@@K@ZEA 00000001800528a0     condition_variable.obj
 0003:000028a8       ?__TBB_condvar_notify_one@internal@tbb@@3P6AXPEAU_RTL_CONDITION_VARIABLE@@@ZEA 00000001800528a8     condition_variable.obj
 0003:000028b0       ?__TBB_init_condvar@internal@tbb@@3P6AXPEAU_RTL_CONDITION_VARIABLE@@@ZEA 00000001800528b0     condition_variable.obj
 0003:000028b8       ?__TBB_condvar_notify_all@internal@tbb@@3P6AXPEAU_RTL_CONDITION_VARIABLE@@@ZEA 00000001800528b8     condition_variable.obj
 0003:000028d0       ?the_dummy_context@internal@tbb@@3Vtask_group_context@2@A 00000001800528d0     scheduler.obj
 0003:000029d0       ?stack_size_ctl@internal@tbb@@3Vstack_size_control@12@A 00000001800529d0     tbb_main.obj
 0003:00002a50       ?allowed_parallelism_ctl@internal@tbb@@3Vallowed_parallelism_control@12@A 0000000180052a50     tbb_main.obj
 0003:00002ad0       ?env_value@?1??__itt_get_env_var@@YAPEBDPEBD@Z@4PEADEA 0000000180052ad0     itt_notify.obj
 0003:00003730       ?_StaticAllocStorage@@3PADA 0000000180053730     libcpmt:excptptr.obj
 0003:00003810       GS_ExceptionRecord         0000000180053810     LIBCMT:gs_report.obj
 0003:000038b0       GS_ContextRecord           00000001800538b0     LIBCMT:gs_report.obj
 0003:00003da0       ?module_local_atexit_table@@3U_onexit_table_t@@A 0000000180053da0     LIBCMT:utility.obj
 0003:00003db8       ?module_local_at_quick_exit_table@@3U_onexit_table_t@@A 0000000180053db8     LIBCMT:utility.obj
 0003:00003dd0       ?is_initialized_as_dll@@3_NA 0000000180053dd0     LIBCMT:utility.obj
 0003:00003dd4       ?__proc_attached@@3HA      0000000180053dd4     LIBCMT:dll_dllmain.obj
 0003:00003e00       ?__vcrt_startup_thread_ptd@@3U__vcrt_ptd@@A 0000000180053e00     libvcruntime:per_thread_data.obj
 0003:00003ec0       ?heap@@3V_HeapManager@@A   0000000180053ec0     libvcruntime:undname.obj
 0003:00003f38       __vcrt_lock_table          0000000180053f38     libvcruntime:locks.obj
 0003:00003f60       __vcrt_locks_initialized   0000000180053f60     libvcruntime:locks.obj
 0003:00003f70       ?module_handles@@3PAPEAUHINSTANCE__@@A 0000000180053f70     libvcruntime:winapi_downlevel.obj
 0003:00003f90       ?encoded_function_pointers@@3PAPEAXA 0000000180053f90     libvcruntime:winapi_downlevel.obj
 0003:00003fd8       c_termination_complete     0000000180053fd8     libucrt:exit.obj
 0003:00003fe0       thread_local_exit_callback_func 0000000180053fe0     libucrt:exit.obj
 0003:00003fe8       ?c_exit_complete@?5??common_exit@@YAXHW4_crt_exit_cleanup_mode@@W4_crt_exit_return_mode@@@Z@4_NA 0000000180053fe8     libucrt:exit.obj
 0003:00004008       __acrt_new_handler         0000000180054008     libucrt:new_handler.obj
 0003:00004010       ?program_name@?5???$common_configure_argv@D@@YAHW4_crt_argv_mode@@@Z@4PADA 0000000180054010     libucrt:argv_parsing.obj
 0003:00004168       __acrt_invalid_parameter_handler 0000000180054168     libucrt:invalid_parameter.obj
 0003:00004170       module_handles             0000000180054170     libucrt:winapi_thunks.obj
 0003:00004210       encoded_function_pointers  0000000180054210     libucrt:winapi_thunks.obj
 0003:00004310       ?state_cache@?1??__acrt_is_packaged_app@@9@4JA 0000000180054310     libucrt:winapi_thunks.obj
 0003:00004320       __acrt_lock_table          0000000180054320     libucrt:locks.obj
 0003:00004528       __acrt_locks_initialized   0000000180054528     libucrt:locks.obj
 0003:00004938       enable_percent_n           0000000180054938     libucrt:printf_count_output.obj
 0003:00004960       ctrlc_action               0000000180054960     libucrt:signal.obj
 0003:00004968       ctrlbreak_action           0000000180054968     libucrt:signal.obj
 0003:00004970       abort_action               0000000180054970     libucrt:signal.obj
 0003:00004978       term_action                0000000180054978     libucrt:signal.obj
 0003:00004994       fSystemSet                 0000000180054994     libucrt:mbctype.obj
 0003:000049a0       ?initialized@?1??__acrt_initialize_multibyte@@9@4_NA 00000001800549a0     libucrt:mbctype.obj
 0003:000049d8       user_matherr               00000001800549d8     libucrt:matherr.obj
 0003:000049e0       __acrt_global_new_mode     00000001800549e0     libucrt:new_mode.obj
 0003:000049ec       __acrt_app_type            00000001800549ec     libucrt:report_runtime_error.obj
 0003:00004a04       ?PrintVersionFlag@internal@tbb@@3_NA 0000000180054a04     tbb_misc.obj
 0003:00004a50       ?TBB_GetThreadGroupAffinity@internal@tbb@@3P6AHPEAXPEAUTBB_GROUP_AFFINITY@12@@ZEA 0000000180054a50     tbb_misc_ex.obj
 0003:00004a58       ?TBB_SetThreadGroupAffinity@internal@tbb@@3P6AHPEAXPEBUTBB_GROUP_AFFINITY@12@PEAU312@@ZEA 0000000180054a58     tbb_misc_ex.obj
 0003:00004e60       ?TBB_GetActiveProcessorCount@internal@tbb@@3P6AKG@ZEA 0000000180054e60     tbb_misc_ex.obj
 0003:00004e68       ?TBB_GetActiveProcessorGroupCount@internal@tbb@@3P6AGXZEA 0000000180054e68     tbb_misc_ex.obj
 0003:00004e78       ?watch_stack_handler@internal@tbb@@3P6AHPEAU__cilk_tbb_unwatch_thunk@@U__cilk_tbb_stack_op_thunk@@@ZEA 0000000180054e78     governor.obj
 0003:00004ed8       ?static_init_dl_data@internal@tbb@@3Ustatic_init_dl_data_t@12@A 0000000180054ed8     dynamic_link.obj
 0003:00004edb       ?ITT_Present@internal@tbb@@3_NA 0000000180054edb     tbb_main.obj
 0003:00004edc       ?initialization_state@internal@tbb@@3U?$atomic@W4do_once_state@internal@tbb@@@2@A 0000000180054edc     cache_aligned_allocator.obj
 0003:00004f60       ?static_invalid_page@internal@tbb@@3PEAXEA 0000000180054f60     concurrent_queue.obj
 0003:00004f68       ?condvar_api_state@internal@tbb@@3U?$atomic@W4do_once_state@internal@tbb@@@2@A 0000000180054f68     condition_variable.obj
 0003:00004f6c       ?hardware_concurrency_info@internal@tbb@@3U?$atomic@W4do_once_state@internal@tbb@@@2@A 0000000180054f6c     tbb_misc_ex.obj
 0003:00004f70       ?ap_data@internal@tbb@@3Uap_data_t@12@A 0000000180054f70     dynamic_link.obj
 0003:00005080       ?assertion_handler@tbb@@3P6AXPEBDH00@ZEA 0000000180055080     tbb_misc.obj
 0003:00005088       ?cilkrts_load_state@internal@tbb@@3U?$atomic@W4do_once_state@internal@tbb@@@2@A 0000000180055088     governor.obj
 0003:0000508c       ?ITT_InitializationDone@internal@tbb@@3_NA 000000018005508c     tbb_main.obj
 0003:00005090       ?env_buff@?1??__itt_get_env_var@@YAPEBDPEBD@Z@4PADA 0000000180055090     itt_notify.obj
 0003:00006088       ?current_thread@?1??__itt_init_ittlib@@9@4KC 0000000180056088     itt_notify.obj
 0003:0000608c       ?current_thread@?1??__itt_fini_ittlib@@9@4KC 000000018005608c     itt_notify.obj
 0003:00006098       ?already_failed@?6??assertion_failure@tbb@@YAXPEBDH00@Z@4_NA 0000000180056098     tbb_misc.obj
 0004:00000000       $pdata$??__E?m_badAllocExceptionPtr@__ExceptionPtr@@0V?$shared_ptr@V__ExceptionPtr@@@std@@A@@YAXXZ 0000000180057000     libcpmt:excptptr.obj
 0004:0000000c       $pdata$??0scoped_lock@spin_mutex@tbb@@QEAA@AEAV12@@Z 000000018005700c     concurrent_queue.obj
 0004:00000018       $pdata$??1thread_context@concurrent_monitor@internal@tbb@@QEAA@XZ 0000000180057018     concurrent_queue.obj
 0004:00000024       $pdata$??1micro_queue_pop_finalizer@internal@tbb@@QEAA@XZ 0000000180057024     concurrent_queue.obj
 0004:00000030       $pdata$?push@micro_queue@internal@tbb@@QEAAXPEBX_KAEAVconcurrent_queue_base_v3@23@W4copy_specifics@423@@Z 0000000180057030     concurrent_queue.obj
 0004:0000003c       $pdata$?pop@micro_queue@internal@tbb@@QEAA_NPEAX_KAEAVconcurrent_queue_base_v3@23@@Z 000000018005703c     concurrent_queue.obj
 0004:00000048       $pdata$?assign@micro_queue@internal@tbb@@QEAAAEAU123@AEBU123@AEAVconcurrent_queue_base_v3@23@W4copy_specifics@423@@Z 0000000180057048     concurrent_queue.obj
 0004:00000054       $pdata$?make_invalid@micro_queue@internal@tbb@@QEAAX_K@Z 0000000180057054     concurrent_queue.obj
 0004:00000060       $pdata$??0concurrent_queue_base_v3@internal@tbb@@IEAA@_K@Z 0000000180057060     concurrent_queue.obj
 0004:0000006c       $pdata$??_Gconcurrent_queue_base_v3@internal@tbb@@MEAAPEAXI@Z 000000018005706c     concurrent_queue.obj
 0004:00000078       $pdata$??1concurrent_queue_base_v3@internal@tbb@@MEAA@XZ 0000000180057078     concurrent_queue.obj
 0004:00000084       $pdata$?internal_insert_item@concurrent_queue_base_v3@internal@tbb@@IEAAXPEBXW4copy_specifics@123@@Z 0000000180057084     concurrent_queue.obj
 0004:00000090       $pdata$?internal_pop@concurrent_queue_base_v3@internal@tbb@@IEAAXPEAX@Z 0000000180057090     concurrent_queue.obj
 0004:0000009c       $pdata$?internal_abort@concurrent_queue_base_v3@internal@tbb@@IEAAXXZ 000000018005709c     concurrent_queue.obj
 0004:000000a8       $pdata$?internal_pop_if_present@concurrent_queue_base_v3@internal@tbb@@IEAA_NPEAX@Z 00000001800570a8     concurrent_queue.obj
 0004:000000b4       $pdata$?internal_insert_if_not_full@concurrent_queue_base_v3@internal@tbb@@IEAA_NPEBXW4copy_specifics@123@@Z 00000001800570b4     concurrent_queue.obj
 0004:000000c0       $pdata$?internal_finish_clear@concurrent_queue_base_v3@internal@tbb@@IEAAXXZ 00000001800570c0     concurrent_queue.obj
 0004:000000cc       $pdata$?internal_assign@concurrent_queue_base_v3@internal@tbb@@IEAAXAEBV123@W4copy_specifics@123@@Z 00000001800570cc     concurrent_queue.obj
 0004:000000d8       $pdata$?initialize@concurrent_queue_iterator_base_v3@internal@tbb@@AEAAXAEBVconcurrent_queue_base_v3@23@_K@Z 00000001800570d8     concurrent_queue.obj
 0004:000000e4       $pdata$??0concurrent_queue_iterator_base_v3@internal@tbb@@IEAA@AEBVconcurrent_queue_base_v3@12@@Z 00000001800570e4     concurrent_queue.obj
 0004:000000f0       $pdata$??0concurrent_queue_iterator_base_v3@internal@tbb@@IEAA@AEBVconcurrent_queue_base_v3@12@_K@Z 00000001800570f0     concurrent_queue.obj
 0004:000000fc       $pdata$?assign@concurrent_queue_iterator_base_v3@internal@tbb@@IEAAXAEBV123@@Z 00000001800570fc     concurrent_queue.obj
 0004:00000108       $pdata$0$?assign@concurrent_queue_iterator_base_v3@internal@tbb@@IEAAXAEBV123@@Z 0000000180057108     concurrent_queue.obj
 0004:00000114       $pdata$1$?assign@concurrent_queue_iterator_base_v3@internal@tbb@@IEAAXAEBV123@@Z 0000000180057114     concurrent_queue.obj
 0004:00000120       $pdata$??1concurrent_queue_iterator_base_v3@internal@tbb@@IEAA@XZ 0000000180057120     concurrent_queue.obj
 0004:0000012c       $pdata$??$notify_relaxed@Upredicate_leq@internal@tbb@@@concurrent_monitor@internal@tbb@@QEAAXAEBUpredicate_leq@12@@Z 000000018005712c     concurrent_queue.obj
 0004:00000138       $pdata$0$??$notify_relaxed@Upredicate_leq@internal@tbb@@@concurrent_monitor@internal@tbb@@QEAAXAEBUpredicate_leq@12@@Z 0000000180057138     concurrent_queue.obj
 0004:00000144       $pdata$2$??$notify_relaxed@Upredicate_leq@internal@tbb@@@concurrent_monitor@internal@tbb@@QEAAXAEBUpredicate_leq@12@@Z 0000000180057144     concurrent_queue.obj
 0004:00000150       $pdata$3$??$notify_relaxed@Upredicate_leq@internal@tbb@@@concurrent_monitor@internal@tbb@@QEAAXAEBUpredicate_leq@12@@Z 0000000180057150     concurrent_queue.obj
 0004:0000015c       $pdata$4$??$notify_relaxed@Upredicate_leq@internal@tbb@@@concurrent_monitor@internal@tbb@@QEAAXAEBUpredicate_leq@12@@Z 000000018005715c     concurrent_queue.obj
 0004:00000168       $pdata$5$??$notify_relaxed@Upredicate_leq@internal@tbb@@@concurrent_monitor@internal@tbb@@QEAAXAEBUpredicate_leq@12@@Z 0000000180057168     concurrent_queue.obj
 0004:00000174       $pdata$?acquire_segment@helper@concurrent_vector_base_v3@internal@tbb@@SAAEAVsegment_t@234@AEAV234@_K1_N@Z 0000000180057174     concurrent_vector.obj
 0004:00000180       $pdata$0$?acquire_segment@helper@concurrent_vector_base_v3@internal@tbb@@SAAEAVsegment_t@234@AEAV234@_K1_N@Z 0000000180057180     concurrent_vector.obj
 0004:0000018c       $pdata$1$?acquire_segment@helper@concurrent_vector_base_v3@internal@tbb@@SAAEAVsegment_t@234@AEAV234@_K1_N@Z 000000018005718c     concurrent_vector.obj
 0004:00000198       $pdata$??1helper@concurrent_vector_base_v3@internal@tbb@@QEAA@XZ 0000000180057198     concurrent_vector.obj
 0004:000001a4       $pdata$?extend_segment_table@helper@concurrent_vector_base_v3@internal@tbb@@SAXAEAV234@_K@Z 00000001800571a4     concurrent_vector.obj
 0004:000001b0       $pdata$1$?extend_segment_table@helper@concurrent_vector_base_v3@internal@tbb@@SAXAEAV234@_K@Z 00000001800571b0     concurrent_vector.obj
 0004:000001bc       $pdata$2$?extend_segment_table@helper@concurrent_vector_base_v3@internal@tbb@@SAXAEAV234@_K@Z 00000001800571bc     concurrent_vector.obj
 0004:000001c8       $pdata$3$?extend_segment_table@helper@concurrent_vector_base_v3@internal@tbb@@SAXAEAV234@_K@Z 00000001800571c8     concurrent_vector.obj
 0004:000001d4       $pdata$4$?extend_segment_table@helper@concurrent_vector_base_v3@internal@tbb@@SAXAEAV234@_K@Z 00000001800571d4     concurrent_vector.obj
 0004:000001e0       $pdata$?enable_segment@helper@concurrent_vector_base_v3@internal@tbb@@SA_KAEAV234@_K1_N@Z 00000001800571e0     concurrent_vector.obj
 0004:000001ec       $pdata$??1segment_scope_guard@?1??enable_segment@helper@concurrent_vector_base_v3@internal@tbb@@SA_KAEAV345@_K1_N@Z@QEAA@XZ 00000001800571ec     concurrent_vector.obj
 0004:000001f8       $pdata$?cleanup@helper@concurrent_vector_base_v3@internal@tbb@@QEAAXXZ 00000001800571f8     concurrent_vector.obj
 0004:00000204       $pdata$4$?cleanup@helper@concurrent_vector_base_v3@internal@tbb@@QEAAXXZ 0000000180057204     concurrent_vector.obj
 0004:00000210       $pdata$5$?cleanup@helper@concurrent_vector_base_v3@internal@tbb@@QEAAXXZ 0000000180057210     concurrent_vector.obj
 0004:0000021c       $pdata$??1concurrent_vector_base_v3@internal@tbb@@IEAA@XZ 000000018005721c     concurrent_vector.obj
 0004:00000228       $pdata$?internal_throw_exception@concurrent_vector_base_v3@internal@tbb@@IEBAX_K@Z 0000000180057228     concurrent_vector.obj
 0004:00000234       $pdata$?internal_reserve@concurrent_vector_base_v3@internal@tbb@@IEAAX_K00@Z 0000000180057234     concurrent_vector.obj
 0004:00000240       $pdata$?internal_copy@concurrent_vector_base_v3@internal@tbb@@IEAAXAEBV123@_KP6AXPEAXPEBX1@Z@Z 0000000180057240     concurrent_vector.obj
 0004:0000024c       $pdata$1$?internal_copy@concurrent_vector_base_v3@internal@tbb@@IEAAXAEBV123@_KP6AXPEAXPEBX1@Z@Z 000000018005724c     concurrent_vector.obj
 0004:00000258       $pdata$2$?internal_copy@concurrent_vector_base_v3@internal@tbb@@IEAAXAEBV123@_KP6AXPEAXPEBX1@Z@Z 0000000180057258     concurrent_vector.obj
 0004:00000264       $pdata$3$?internal_copy@concurrent_vector_base_v3@internal@tbb@@IEAAXAEBV123@_KP6AXPEAXPEBX1@Z@Z 0000000180057264     concurrent_vector.obj
 0004:00000270       $pdata$4$?internal_copy@concurrent_vector_base_v3@internal@tbb@@IEAAXAEBV123@_KP6AXPEAXPEBX1@Z@Z 0000000180057270     concurrent_vector.obj
 0004:0000027c       $pdata$?internal_assign@concurrent_vector_base_v3@internal@tbb@@IEAAXAEBV123@_KP6AXPEAX1@ZP6AX2PEBX1@Z5@Z 000000018005727c     concurrent_vector.obj
 0004:00000288       $pdata$?internal_push_back@concurrent_vector_base_v3@internal@tbb@@IEAAPEAX_KAEA_K@Z 0000000180057288     concurrent_vector.obj
 0004:00000294       $pdata$?internal_grow_to_at_least_with_result@concurrent_vector_base_v3@internal@tbb@@IEAA_K_K0P6AXPEAXPEBX0@Z2@Z 0000000180057294     concurrent_vector.obj
 0004:000002a0       $pdata$?internal_grow_by@concurrent_vector_base_v3@internal@tbb@@IEAA_K_K0P6AXPEAXPEBX0@Z2@Z 00000001800572a0     concurrent_vector.obj
 0004:000002ac       $pdata$?internal_grow@concurrent_vector_base_v3@internal@tbb@@IEAAX_K00P6AXPEAXPEBX0@Z2@Z 00000001800572ac     concurrent_vector.obj
 0004:000002b8       $pdata$?internal_resize@concurrent_vector_base_v3@internal@tbb@@IEAAX_K00PEBXP6AXPEAX0@ZP6AX210@Z@Z 00000001800572b8     concurrent_vector.obj
 0004:000002c4       $pdata$?internal_clear@concurrent_vector_base_v3@internal@tbb@@IEAA_KP6AXPEAX_K@Z@Z 00000001800572c4     concurrent_vector.obj
 0004:000002d0       $pdata$?internal_compact@concurrent_vector_base_v3@internal@tbb@@IEAAPEAX_KPEAXP6AX10@ZP6AX1PEBX0@Z@Z 00000001800572d0     concurrent_vector.obj
 0004:000002dc       $pdata$?internal_swap@concurrent_vector_base_v3@internal@tbb@@IEAAXAEAV123@@Z 00000001800572dc     concurrent_vector.obj
 0004:000002e8       $pdata$5$?internal_swap@concurrent_vector_base_v3@internal@tbb@@IEAAXAEAV123@@Z 00000001800572e8     concurrent_vector.obj
 0004:000002f4       $pdata$6$?internal_swap@concurrent_vector_base_v3@internal@tbb@@IEAAXAEAV123@@Z 00000001800572f4     concurrent_vector.obj
 0004:00000300       $pdata$7$?internal_swap@concurrent_vector_base_v3@internal@tbb@@IEAAXAEAV123@@Z 0000000180057300     concurrent_vector.obj
 0004:0000030c       $pdata$8$?internal_swap@concurrent_vector_base_v3@internal@tbb@@IEAAXAEAV123@@Z 000000018005730c     concurrent_vector.obj
 0004:00000318       $pdata$??$spin_wait_while@Usegment_not_used_predicate@helper@concurrent_vector_base_v3@internal@tbb@@@internal@tbb@@YAXUsegment_not_used_predicate@helper@concurrent_vector_base_v3@01@@Z 0000000180057318     concurrent_vector.obj
 0004:00000324       $pdata$??$apply@Usafe_init_body@helper@concurrent_vector_base_v3@internal@tbb@@@helper@concurrent_vector_base_v3@internal@tbb@@QEAA_KAEBUsafe_init_body@0123@@Z 0000000180057324     concurrent_vector.obj
 0004:00000330       $pdata$??$apply@Udestroy_body@helper@concurrent_vector_base_v3@internal@tbb@@@helper@concurrent_vector_base_v3@internal@tbb@@QEAA_KAEBUdestroy_body@0123@@Z 0000000180057330     concurrent_vector.obj
 0004:0000033c       $pdata$?resolve_symbols@internal@tbb@@YA_NPEAUHINSTANCE__@@QEBUdynamic_link_descriptor@12@_K@Z 000000018005733c     dynamic_link.obj
 0004:00000348       $pdata$2$?resolve_symbols@internal@tbb@@YA_NPEAUHINSTANCE__@@QEBUdynamic_link_descriptor@12@_K@Z 0000000180057348     dynamic_link.obj
 0004:00000354       $pdata$3$?resolve_symbols@internal@tbb@@YA_NPEAUHINSTANCE__@@QEBUdynamic_link_descriptor@12@_K@Z 0000000180057354     dynamic_link.obj
 0004:00000360       $pdata$4$?resolve_symbols@internal@tbb@@YA_NPEAUHINSTANCE__@@QEBUdynamic_link_descriptor@12@_K@Z 0000000180057360     dynamic_link.obj
 0004:0000036c       $pdata$?atomic_once@internal@tbb@@YAXP6AXXZAEAU?$atomic@W4do_once_state@internal@tbb@@@2@@Z 000000018005736c     dynamic_link.obj
 0004:00000378       $pdata$1$?atomic_once@internal@tbb@@YAXP6AXXZAEAU?$atomic@W4do_once_state@internal@tbb@@@2@@Z 0000000180057378     dynamic_link.obj
 0004:00000384       $pdata$3$?atomic_once@internal@tbb@@YAXP6AXXZAEAU?$atomic@W4do_once_state@internal@tbb@@@2@@Z 0000000180057384     dynamic_link.obj
 0004:00000390       $pdata$4$?atomic_once@internal@tbb@@YAXP6AXXZAEAU?$atomic@W4do_once_state@internal@tbb@@@2@@Z 0000000180057390     dynamic_link.obj
 0004:0000039c       $pdata$?init_ap_data@internal@tbb@@YAXXZ 000000018005739c     dynamic_link.obj
 0004:000003a8       $pdata$0$?init_ap_data@internal@tbb@@YAXXZ 00000001800573a8     dynamic_link.obj
 0004:000003b4       $pdata$2$?init_ap_data@internal@tbb@@YAXXZ 00000001800573b4     dynamic_link.obj
 0004:000003c0       $pdata$?dynamic_load@internal@tbb@@YAPEAUHINSTANCE__@@PEBDQEBUdynamic_link_descriptor@12@_K@Z 00000001800573c0     dynamic_link.obj
 0004:000003cc       $pdata$0$?dynamic_load@internal@tbb@@YAPEAUHINSTANCE__@@PEBDQEBUdynamic_link_descriptor@12@_K@Z 00000001800573cc     dynamic_link.obj
 0004:000003d8       $pdata$1$?dynamic_load@internal@tbb@@YAPEAUHINSTANCE__@@PEBDQEBUdynamic_link_descriptor@12@_K@Z 00000001800573d8     dynamic_link.obj
 0004:000003e4       $pdata$?dynamic_link@internal@tbb@@YA_NPEBDQEBUdynamic_link_descriptor@12@_KPEAPEAUHINSTANCE__@@H@Z 00000001800573e4     dynamic_link.obj
 0004:000003f0       $pdata$?__itt_detach_init_3_0@@YAXXZ 00000001800573f0     itt_notify.obj
 0004:000003fc       $pdata$?__itt_sync_createA_init_3_0@@YAXPEAXPEBD1H@Z 00000001800573fc     itt_notify.obj
 0004:00000408       $pdata$?__itt_sync_createW_init_3_0@@YAXPEAXPEB_W1H@Z 0000000180057408     itt_notify.obj
 0004:00000414       $pdata$?__itt_sync_renameA_init_3_0@@YAXPEAXPEBD@Z 0000000180057414     itt_notify.obj
 0004:00000420       $pdata$?__itt_sync_renameW_init_3_0@@YAXPEAXPEB_W@Z 0000000180057420     itt_notify.obj
 0004:0000042c       $pdata$?__itt_sync_destroy_init_3_0@@YAXPEAX@Z 000000018005742c     itt_notify.obj
 0004:00000438       $pdata$?__itt_sync_prepare_init_3_0@@YAXPEAX@Z 0000000180057438     itt_notify.obj
 0004:00000444       $pdata$?__itt_sync_cancel_init_3_0@@YAXPEAX@Z 0000000180057444     itt_notify.obj
 0004:00000450       $pdata$?__itt_sync_acquired_init_3_0@@YAXPEAX@Z 0000000180057450     itt_notify.obj
 0004:0000045c       $pdata$?__itt_sync_releasing_init_3_0@@YAXPEAX@Z 000000018005745c     itt_notify.obj
 0004:00000468       $pdata$?__itt_suppress_push_init_3_0@@YAXI@Z 0000000180057468     itt_notify.obj
 0004:00000474       $pdata$?__itt_suppress_pop_init_3_0@@YAXXZ 0000000180057474     itt_notify.obj
 0004:00000480       $pdata$?__itt_suppress_mark_range_init_3_0@@YAXW4__itt_suppress_mode@@IPEAX_K@Z 0000000180057480     itt_notify.obj
 0004:0000048c       $pdata$?__itt_suppress_clear_range_init_3_0@@YAXW4__itt_suppress_mode@@IPEAX_K@Z 000000018005748c     itt_notify.obj
 0004:00000498       $pdata$?__itt_fsync_prepare_init_3_0@@YAXPEAX@Z 0000000180057498     itt_notify.obj
 0004:000004a4       $pdata$?__itt_fsync_cancel_init_3_0@@YAXPEAX@Z 00000001800574a4     itt_notify.obj
 0004:000004b0       $pdata$?__itt_fsync_acquired_init_3_0@@YAXPEAX@Z 00000001800574b0     itt_notify.obj
 0004:000004bc       $pdata$?__itt_fsync_releasing_init_3_0@@YAXPEAX@Z 00000001800574bc     itt_notify.obj
 0004:000004c8       $pdata$?__itt_model_site_begin_init_3_0@@YAXPEAPEAX0PEBD@Z 00000001800574c8     itt_notify.obj
 0004:000004d4       $pdata$?__itt_model_site_end_init_3_0@@YAXPEAPEAX0@Z 00000001800574d4     itt_notify.obj
 0004:000004e0       $pdata$?__itt_model_task_begin_init_3_0@@YAXPEAPEAX0PEBD@Z 00000001800574e0     itt_notify.obj
 0004:000004ec       $pdata$?__itt_model_task_end_init_3_0@@YAXPEAPEAX0@Z 00000001800574ec     itt_notify.obj
 0004:000004f8       $pdata$?__itt_model_lock_acquire_init_3_0@@YAXPEAX@Z 00000001800574f8     itt_notify.obj
 0004:00000504       $pdata$?__itt_model_lock_release_init_3_0@@YAXPEAX@Z 0000000180057504     itt_notify.obj
 0004:00000510       $pdata$?__itt_model_record_allocation_init_3_0@@YAXPEAX_K@Z 0000000180057510     itt_notify.obj
 0004:0000051c       $pdata$?__itt_model_record_deallocation_init_3_0@@YAXPEAX@Z 000000018005751c     itt_notify.obj
 0004:00000528       $pdata$?__itt_model_induction_uses_init_3_0@@YAXPEAX_K@Z 0000000180057528     itt_notify.obj
 0004:00000534       $pdata$?__itt_model_reduction_uses_init_3_0@@YAXPEAX_K@Z 0000000180057534     itt_notify.obj
 0004:00000540       $pdata$?__itt_model_observe_uses_init_3_0@@YAXPEAX_K@Z 0000000180057540     itt_notify.obj
 0004:0000054c       $pdata$?__itt_model_clear_uses_init_3_0@@YAXPEAX@Z 000000018005754c     itt_notify.obj
 0004:00000558       $pdata$?__itt_model_site_beginW_init_3_0@@YAXPEB_W@Z 0000000180057558     itt_notify.obj
 0004:00000564       $pdata$?__itt_model_task_beginW_init_3_0@@YAXPEB_W@Z 0000000180057564     itt_notify.obj
 0004:00000570       $pdata$?__itt_model_iteration_taskW_init_3_0@@YAXPEB_W@Z 0000000180057570     itt_notify.obj
 0004:0000057c       $pdata$?__itt_model_site_beginA_init_3_0@@YAXPEBD@Z 000000018005757c     itt_notify.obj
 0004:00000588       $pdata$?__itt_model_site_beginAL_init_3_0@@YAXPEBD_K@Z 0000000180057588     itt_notify.obj
 0004:00000594       $pdata$?__itt_model_task_beginA_init_3_0@@YAXPEBD@Z 0000000180057594     itt_notify.obj
 0004:000005a0       $pdata$?__itt_model_task_beginAL_init_3_0@@YAXPEBD_K@Z 00000001800575a0     itt_notify.obj
 0004:000005ac       $pdata$?__itt_model_iteration_taskA_init_3_0@@YAXPEBD@Z 00000001800575ac     itt_notify.obj
 0004:000005b8       $pdata$?__itt_model_iteration_taskAL_init_3_0@@YAXPEBD_K@Z 00000001800575b8     itt_notify.obj
 0004:000005c4       $pdata$?__itt_model_site_end_2_init_3_0@@YAXXZ 00000001800575c4     itt_notify.obj
 0004:000005d0       $pdata$?__itt_model_task_end_2_init_3_0@@YAXXZ 00000001800575d0     itt_notify.obj
 0004:000005dc       $pdata$?__itt_model_lock_acquire_2_init_3_0@@YAXPEAX@Z 00000001800575dc     itt_notify.obj
 0004:000005e8       $pdata$?__itt_model_lock_release_2_init_3_0@@YAXPEAX@Z 00000001800575e8     itt_notify.obj
 0004:000005f4       $pdata$?__itt_model_aggregate_task_init_3_0@@YAX_K@Z 00000001800575f4     itt_notify.obj
 0004:00000600       $pdata$?__itt_model_disable_push_init_3_0@@YAXW4__itt_model_disable@@@Z 0000000180057600     itt_notify.obj
 0004:0000060c       $pdata$?__itt_model_disable_pop_init_3_0@@YAXXZ 000000018005760c     itt_notify.obj
 0004:00000618       $pdata$?__itt_heap_function_createA_init_3_0@@YAPEAXPEBD0@Z 0000000180057618     itt_notify.obj
 0004:00000624       $pdata$?__itt_heap_function_createW_init_3_0@@YAPEAXPEB_W0@Z 0000000180057624     itt_notify.obj
 0004:00000630       $pdata$?__itt_heap_allocate_begin_init_3_0@@YAXPEAX_KH@Z 0000000180057630     itt_notify.obj
 0004:0000063c       $pdata$?__itt_heap_allocate_end_init_3_0@@YAXPEAXPEAPEAX_KH@Z 000000018005763c     itt_notify.obj
 0004:00000648       $pdata$?__itt_heap_free_begin_init_3_0@@YAXPEAX0@Z 0000000180057648     itt_notify.obj
 0004:00000654       $pdata$?__itt_heap_free_end_init_3_0@@YAXPEAX0@Z 0000000180057654     itt_notify.obj
 0004:00000660       $pdata$?__itt_heap_reallocate_begin_init_3_0@@YAXPEAX0_KH@Z 0000000180057660     itt_notify.obj
 0004:0000066c       $pdata$?__itt_heap_reallocate_end_init_3_0@@YAXPEAX0PEAPEAX_KH@Z 000000018005766c     itt_notify.obj
 0004:00000678       $pdata$?__itt_heap_internal_access_begin_init_3_0@@YAXXZ 0000000180057678     itt_notify.obj
 0004:00000684       $pdata$?__itt_heap_internal_access_end_init_3_0@@YAXXZ 0000000180057684     itt_notify.obj
 0004:00000690       $pdata$?__itt_heap_record_memory_growth_begin_init_3_0@@YAXXZ 0000000180057690     itt_notify.obj
 0004:0000069c       $pdata$?__itt_heap_record_memory_growth_end_init_3_0@@YAXXZ 000000018005769c     itt_notify.obj
 0004:000006a8       $pdata$?__itt_heap_reset_detection_init_3_0@@YAXI@Z 00000001800576a8     itt_notify.obj
 0004:000006b4       $pdata$?__itt_heap_record_init_3_0@@YAXI@Z 00000001800576b4     itt_notify.obj
 0004:000006c0       $pdata$?__itt_id_create_init_3_0@@YAXPEBU___itt_domain@@U___itt_id@@@Z 00000001800576c0     itt_notify.obj
 0004:000006cc       $pdata$?__itt_id_destroy_init_3_0@@YAXPEBU___itt_domain@@U___itt_id@@@Z 00000001800576cc     itt_notify.obj
 0004:000006d8       $pdata$?__itt_get_timestamp_init_3_0@@YA_KXZ 00000001800576d8     itt_notify.obj
 0004:000006e4       $pdata$?__itt_region_begin_init_3_0@@YAXPEBU___itt_domain@@U___itt_id@@1PEAU___itt_string_handle@@@Z 00000001800576e4     itt_notify.obj
 0004:000006f0       $pdata$?__itt_region_end_init_3_0@@YAXPEBU___itt_domain@@U___itt_id@@@Z 00000001800576f0     itt_notify.obj
 0004:000006fc       $pdata$?__itt_frame_begin_v3_init_3_0@@YAXPEBU___itt_domain@@PEAU___itt_id@@@Z 00000001800576fc     itt_notify.obj
 0004:00000708       $pdata$?__itt_frame_end_v3_init_3_0@@YAXPEBU___itt_domain@@PEAU___itt_id@@@Z 0000000180057708     itt_notify.obj
 0004:00000714       $pdata$?__itt_frame_submit_v3_init_3_0@@YAXPEBU___itt_domain@@PEAU___itt_id@@_K2@Z 0000000180057714     itt_notify.obj
 0004:00000720       $pdata$?__itt_task_group_init_3_0@@YAXPEBU___itt_domain@@U___itt_id@@1PEAU___itt_string_handle@@@Z 0000000180057720     itt_notify.obj
 0004:0000072c       $pdata$?__itt_task_begin_init_3_0@@YAXPEBU___itt_domain@@U___itt_id@@1PEAU___itt_string_handle@@@Z 000000018005772c     itt_notify.obj
 0004:00000738       $pdata$?__itt_task_begin_fn_init_3_0@@YAXPEBU___itt_domain@@U___itt_id@@1PEAX@Z 0000000180057738     itt_notify.obj
 0004:00000744       $pdata$?__itt_task_end_init_3_0@@YAXPEBU___itt_domain@@@Z 0000000180057744     itt_notify.obj
 0004:00000750       $pdata$?__itt_counter_inc_v3_init_3_0@@YAXPEBU___itt_domain@@PEAU___itt_string_handle@@@Z 0000000180057750     itt_notify.obj
 0004:0000075c       $pdata$?__itt_counter_inc_delta_v3_init_3_0@@YAXPEBU___itt_domain@@PEAU___itt_string_handle@@_K@Z 000000018005775c     itt_notify.obj
 0004:00000768       $pdata$?__itt_marker_init_3_0@@YAXPEBU___itt_domain@@U___itt_id@@PEAU___itt_string_handle@@W4__itt_scope@@@Z 0000000180057768     itt_notify.obj
 0004:00000774       $pdata$?__itt_metadata_add_init_3_0@@YAXPEBU___itt_domain@@U___itt_id@@PEAU___itt_string_handle@@W4__itt_metadata_type@@_KPEAX@Z 0000000180057774     itt_notify.obj
 0004:00000780       $pdata$?__itt_metadata_str_addA_init_3_0@@YAXPEBU___itt_domain@@U___itt_id@@PEAU___itt_string_handle@@PEBD_K@Z 0000000180057780     itt_notify.obj
 0004:0000078c       $pdata$?__itt_metadata_str_addW_init_3_0@@YAXPEBU___itt_domain@@U___itt_id@@PEAU___itt_string_handle@@PEB_W_K@Z 000000018005778c     itt_notify.obj
 0004:00000798       $pdata$?__itt_relation_add_to_current_init_3_0@@YAXPEBU___itt_domain@@W4__itt_relation@@U___itt_id@@@Z 0000000180057798     itt_notify.obj
 0004:000007a4       $pdata$?__itt_relation_add_init_3_0@@YAXPEBU___itt_domain@@U___itt_id@@W4__itt_relation@@1@Z 00000001800577a4     itt_notify.obj
 0004:000007b0       $pdata$?__itt_event_createA_init_3_0@@YAHPEBDH@Z 00000001800577b0     itt_notify.obj
 0004:000007bc       $pdata$?__itt_event_createW_init_3_0@@YAHPEB_WH@Z 00000001800577bc     itt_notify.obj
 0004:000007c8       $pdata$?__itt_event_start_init_3_0@@YAHH@Z 00000001800577c8     itt_notify.obj
 0004:000007d4       $pdata$?__itt_event_end_init_3_0@@YAHH@Z 00000001800577d4     itt_notify.obj
 0004:000007e0       $pdata$?__itt_sync_set_nameA_init_3_0@@YAXPEAXPEBD1H@Z 00000001800577e0     itt_notify.obj
 0004:000007ec       $pdata$?__itt_sync_set_nameW_init_3_0@@YAXPEAXPEB_W1H@Z 00000001800577ec     itt_notify.obj
 0004:000007f8       $pdata$?__itt_notify_sync_nameA_init_3_0@@YAHPEAXPEBDH1HH@Z 00000001800577f8     itt_notify.obj
 0004:00000804       $pdata$?__itt_notify_sync_nameW_init_3_0@@YAHPEAXPEB_WH1HH@Z 0000000180057804     itt_notify.obj
 0004:00000810       $pdata$?__itt_notify_sync_prepare_init_3_0@@YAXPEAX@Z 0000000180057810     itt_notify.obj
 0004:0000081c       $pdata$?__itt_notify_sync_cancel_init_3_0@@YAXPEAX@Z 000000018005781c     itt_notify.obj
 0004:00000828       $pdata$?__itt_notify_sync_acquired_init_3_0@@YAXPEAX@Z 0000000180057828     itt_notify.obj
 0004:00000834       $pdata$?__itt_notify_sync_releasing_init_3_0@@YAXPEAX@Z 0000000180057834     itt_notify.obj
 0004:00000840       $pdata$?__itt_memory_read_init_3_0@@YAXPEAX_K@Z 0000000180057840     itt_notify.obj
 0004:0000084c       $pdata$?__itt_memory_write_init_3_0@@YAXPEAX_K@Z 000000018005784c     itt_notify.obj
 0004:00000858       $pdata$?__itt_memory_update_init_3_0@@YAXPEAX_K@Z 0000000180057858     itt_notify.obj
 0004:00000864       $pdata$?__itt_state_get_init_3_0@@YAHXZ 0000000180057864     itt_notify.obj
 0004:00000870       $pdata$?__itt_state_set_init_3_0@@YAHH@Z 0000000180057870     itt_notify.obj
 0004:0000087c       $pdata$?__itt_obj_mode_set_init_3_0@@YA?AW4__itt_obj_state@@W4__itt_obj_prop@@W41@@Z 000000018005787c     itt_notify.obj
 0004:00000888       $pdata$?__itt_thr_mode_set_init_3_0@@YA?AW4__itt_thr_state@@W4__itt_thr_prop@@W41@@Z 0000000180057888     itt_notify.obj
 0004:00000894       $pdata$?__itt_frame_createA_init_3_0@@YAPEAU__itt_frame_t@@PEBD@Z 0000000180057894     itt_notify.obj
 0004:000008a0       $pdata$?__itt_frame_createW_init_3_0@@YAPEAU__itt_frame_t@@PEB_W@Z 00000001800578a0     itt_notify.obj
 0004:000008ac       $pdata$?__itt_frame_begin_init_3_0@@YAXPEAU__itt_frame_t@@@Z 00000001800578ac     itt_notify.obj
 0004:000008b8       $pdata$?__itt_frame_end_init_3_0@@YAXPEAU__itt_frame_t@@@Z 00000001800578b8     itt_notify.obj
 0004:000008c4       $pdata$?__itt_counter_createA_init_3_0@@YAPEAU___itt_counter@@PEBD0@Z 00000001800578c4     itt_notify.obj
 0004:000008d0       $pdata$?__itt_counter_createW_init_3_0@@YAPEAU___itt_counter@@PEB_W0@Z 00000001800578d0     itt_notify.obj
 0004:000008dc       $pdata$?__itt_counter_destroy_init_3_0@@YAXPEAU___itt_counter@@@Z 00000001800578dc     itt_notify.obj
 0004:000008e8       $pdata$?__itt_counter_inc_init_3_0@@YAXPEAU___itt_counter@@@Z 00000001800578e8     itt_notify.obj
 0004:000008f4       $pdata$?__itt_counter_inc_delta_init_3_0@@YAXPEAU___itt_counter@@_K@Z 00000001800578f4     itt_notify.obj
 0004:00000900       $pdata$?__itt_mark_createA_init_3_0@@YAHPEBD@Z 0000000180057900     itt_notify.obj
 0004:0000090c       $pdata$?__itt_mark_createW_init_3_0@@YAHPEB_W@Z 000000018005790c     itt_notify.obj
 0004:00000918       $pdata$?__itt_markA_init_3_0@@YAHHPEBD@Z 0000000180057918     itt_notify.obj
 0004:00000924       $pdata$?__itt_markW_init_3_0@@YAHHPEB_W@Z 0000000180057924     itt_notify.obj
 0004:00000930       $pdata$?__itt_mark_off_init_3_0@@YAHH@Z 0000000180057930     itt_notify.obj
 0004:0000093c       $pdata$?__itt_mark_globalA_init_3_0@@YAHHPEBD@Z 000000018005793c     itt_notify.obj
 0004:00000948       $pdata$?__itt_mark_globalW_init_3_0@@YAHHPEB_W@Z 0000000180057948     itt_notify.obj
 0004:00000954       $pdata$?__itt_mark_global_off_init_3_0@@YAHH@Z 0000000180057954     itt_notify.obj
 0004:00000960       $pdata$?__itt_stack_caller_create_init_3_0@@YAPEAU___itt_caller@@XZ 0000000180057960     itt_notify.obj
 0004:0000096c       $pdata$?__itt_stack_caller_destroy_init_3_0@@YAXPEAU___itt_caller@@@Z 000000018005796c     itt_notify.obj
 0004:00000978       $pdata$?__itt_stack_callee_enter_init_3_0@@YAXPEAU___itt_caller@@@Z 0000000180057978     itt_notify.obj
 0004:00000984       $pdata$?__itt_stack_callee_leave_init_3_0@@YAXPEAU___itt_caller@@@Z 0000000180057984     itt_notify.obj
 0004:00000990       $pdata$?__itt_clock_domain_create_init_3_0@@YAPEAU___itt_clock_domain@@P6AXPEAU___itt_clock_info@@PEAX@Z1@Z 0000000180057990     itt_notify.obj
 0004:0000099c       $pdata$?__itt_clock_domain_reset_init_3_0@@YAXXZ 000000018005799c     itt_notify.obj
 0004:000009a8       $pdata$?__itt_id_create_ex_init_3_0@@YAXPEBU___itt_domain@@PEAU___itt_clock_domain@@_KU___itt_id@@@Z 00000001800579a8     itt_notify.obj
 0004:000009b4       $pdata$?__itt_id_destroy_ex_init_3_0@@YAXPEBU___itt_domain@@PEAU___itt_clock_domain@@_KU___itt_id@@@Z 00000001800579b4     itt_notify.obj
 0004:000009c0       $pdata$?__itt_task_begin_ex_init_3_0@@YAXPEBU___itt_domain@@PEAU___itt_clock_domain@@_KU___itt_id@@3PEAU___itt_string_handle@@@Z 00000001800579c0     itt_notify.obj
 0004:000009cc       $pdata$?__itt_task_begin_fn_ex_init_3_0@@YAXPEBU___itt_domain@@PEAU___itt_clock_domain@@_KU___itt_id@@3PEAX@Z 00000001800579cc     itt_notify.obj
 0004:000009d8       $pdata$?__itt_task_end_ex_init_3_0@@YAXPEBU___itt_domain@@PEAU___itt_clock_domain@@_K@Z 00000001800579d8     itt_notify.obj
 0004:000009e4       $pdata$?__itt_task_begin_overlapped_init_3_0@@YAXPEBU___itt_domain@@U___itt_id@@1PEAU___itt_string_handle@@@Z 00000001800579e4     itt_notify.obj
 0004:000009f0       $pdata$?__itt_task_begin_overlapped_ex_init_3_0@@YAXPEBU___itt_domain@@PEAU___itt_clock_domain@@_KU___itt_id@@3PEAU___itt_string_handle@@@Z 00000001800579f0     itt_notify.obj
 0004:000009fc       $pdata$?__itt_task_end_overlapped_init_3_0@@YAXPEBU___itt_domain@@U___itt_id@@@Z 00000001800579fc     itt_notify.obj
 0004:00000a08       $pdata$?__itt_task_end_overlapped_ex_init_3_0@@YAXPEBU___itt_domain@@PEAU___itt_clock_domain@@_KU___itt_id@@@Z 0000000180057a08     itt_notify.obj
 0004:00000a14       $pdata$?__itt_marker_ex_init_3_0@@YAXPEBU___itt_domain@@PEAU___itt_clock_domain@@_KU___itt_id@@PEAU___itt_string_handle@@W4__itt_scope@@@Z 0000000180057a14     itt_notify.obj
 0004:00000a20       $pdata$?__itt_metadata_add_with_scope_init_3_0@@YAXPEBU___itt_domain@@W4__itt_scope@@PEAU___itt_string_handle@@W4__itt_metadata_type@@_KPEAX@Z 0000000180057a20     itt_notify.obj
 0004:00000a2c       $pdata$?__itt_metadata_str_add_with_scopeA_init_3_0@@YAXPEBU___itt_domain@@W4__itt_scope@@PEAU___itt_string_handle@@PEBD_K@Z 0000000180057a2c     itt_notify.obj
 0004:00000a38       $pdata$?__itt_metadata_str_add_with_scopeW_init_3_0@@YAXPEBU___itt_domain@@W4__itt_scope@@PEAU___itt_string_handle@@PEB_W_K@Z 0000000180057a38     itt_notify.obj
 0004:00000a44       $pdata$?__itt_relation_add_to_current_ex_init_3_0@@YAXPEBU___itt_domain@@PEAU___itt_clock_domain@@_KW4__itt_relation@@U___itt_id@@@Z 0000000180057a44     itt_notify.obj
 0004:00000a50       $pdata$?__itt_relation_add_ex_init_3_0@@YAXPEBU___itt_domain@@PEAU___itt_clock_domain@@_KU___itt_id@@W4__itt_relation@@3@Z 0000000180057a50     itt_notify.obj
 0004:00000a5c       $pdata$?__itt_track_group_create_init_3_0@@YAPEAU___itt_track_group@@PEAU___itt_string_handle@@W4___itt_track_group_type@@@Z 0000000180057a5c     itt_notify.obj
 0004:00000a68       $pdata$?__itt_track_create_init_3_0@@YAPEAU___itt_track@@PEAU___itt_track_group@@PEAU___itt_string_handle@@W4___itt_track_type@@@Z 0000000180057a68     itt_notify.obj
 0004:00000a74       $pdata$?__itt_set_track_init_3_0@@YAXPEAU___itt_track@@@Z 0000000180057a74     itt_notify.obj
 0004:00000a80       $pdata$?__itt_api_version_init_3_0@@YAPEBDXZ 0000000180057a80     itt_notify.obj
 0004:00000a8c       $pdata$?__itt_av_saveA_init_3_0@@YAHPEAXHPEBHHPEBDH@Z 0000000180057a8c     itt_notify.obj
 0004:00000a98       $pdata$?__itt_av_saveW_init_3_0@@YAHPEAXHPEBHHPEB_WH@Z 0000000180057a98     itt_notify.obj
 0004:00000aa4       $pdata$?__itt_report_error@@YAXW4__itt_error_code@@ZZ 0000000180057aa4     itt_notify.obj
 0004:00000ab0       $pdata$?__itt_domain_createW_init_3_0@@YAPEAU___itt_domain@@PEB_W@Z 0000000180057ab0     itt_notify.obj
 0004:00000abc       $pdata$?__itt_domain_createA_init_3_0@@YAPEAU___itt_domain@@PEBD@Z 0000000180057abc     itt_notify.obj
 0004:00000ac8       $pdata$?__itt_string_handle_createW_init_3_0@@YAPEAU___itt_string_handle@@PEB_W@Z 0000000180057ac8     itt_notify.obj
 0004:00000ad4       $pdata$?__itt_string_handle_createA_init_3_0@@YAPEAU___itt_string_handle@@PEBD@Z 0000000180057ad4     itt_notify.obj
 0004:00000ae0       $pdata$?__itt_pause_init_3_0@@YAXXZ 0000000180057ae0     itt_notify.obj
 0004:00000aec       $pdata$?__itt_resume_init_3_0@@YAXXZ 0000000180057aec     itt_notify.obj
 0004:00000af8       $pdata$?__itt_thread_set_nameW_init_3_0@@YAXPEB_W@Z 0000000180057af8     itt_notify.obj
 0004:00000b04       $pdata$?__itt_thr_name_setW_init_3_0@@YAHPEB_WH@Z 0000000180057b04     itt_notify.obj
 0004:00000b10       $pdata$?__itt_thread_set_nameA_init_3_0@@YAXPEBD@Z 0000000180057b10     itt_notify.obj
 0004:00000b1c       $pdata$?__itt_thr_name_setA_init_3_0@@YAHPEBDH@Z 0000000180057b1c     itt_notify.obj
 0004:00000b28       $pdata$?__itt_thr_ignore_init_3_0@@YAXXZ 0000000180057b28     itt_notify.obj
 0004:00000b28       $pdata$?__itt_thread_ignore_init_3_0@@YAXXZ 0000000180057b28     itt_notify.obj
 0004:00000b34       $pdata$?__itt_get_env_var@@YAPEBDPEBD@Z 0000000180057b34     itt_notify.obj
 0004:00000b40       $pdata$?__itt_get_groups@@YA?AW4___itt_group_id@@XZ 0000000180057b40     itt_notify.obj
 0004:00000b4c       $pdata$1$?__itt_get_groups@@YA?AW4___itt_group_id@@XZ 0000000180057b4c     itt_notify.obj
 0004:00000b58       $pdata$2$?__itt_get_groups@@YA?AW4___itt_group_id@@XZ 0000000180057b58     itt_notify.obj
 0004:00000b64       $pdata$3$?__itt_get_groups@@YA?AW4___itt_group_id@@XZ 0000000180057b64     itt_notify.obj
 0004:00000b70       $pdata$__itt_fini_ittlib   0000000180057b70     itt_notify.obj
 0004:00000b7c       $pdata$__itt_init_ittlib   0000000180057b7c     itt_notify.obj
 0004:00000b88       $pdata$1$__itt_init_ittlib 0000000180057b88     itt_notify.obj
 0004:00000b94       $pdata$2$__itt_init_ittlib 0000000180057b94     itt_notify.obj
 0004:00000ba0       $pdata$4$__itt_init_ittlib 0000000180057ba0     itt_notify.obj
 0004:00000bac       $pdata$5$__itt_init_ittlib 0000000180057bac     itt_notify.obj
 0004:00000bb8       $pdata$6$__itt_init_ittlib 0000000180057bb8     itt_notify.obj
 0004:00000bc4       $pdata$7$__itt_init_ittlib 0000000180057bc4     itt_notify.obj
 0004:00000bd0       $pdata$?initialize_handler_pointers@internal@tbb@@YAXXZ 0000000180057bd0     cache_aligned_allocator.obj
 0004:00000bdc       $pdata$?initialize_cache_aligned_allocator@internal@tbb@@YAXXZ 0000000180057bdc     cache_aligned_allocator.obj
 0004:00000be8       $pdata$1$?initialize_cache_aligned_allocator@internal@tbb@@YAXXZ 0000000180057be8     cache_aligned_allocator.obj
 0004:00000bf4       $pdata$3$?initialize_cache_aligned_allocator@internal@tbb@@YAXXZ 0000000180057bf4     cache_aligned_allocator.obj
 0004:00000c00       $pdata$4$?initialize_cache_aligned_allocator@internal@tbb@@YAXXZ 0000000180057c00     cache_aligned_allocator.obj
 0004:00000c0c       $pdata$?DummyMalloc@internal@tbb@@YAPEAX_K@Z 0000000180057c0c     cache_aligned_allocator.obj
 0004:00000c18       $pdata$?DummyFree@internal@tbb@@YAXPEAX@Z 0000000180057c18     cache_aligned_allocator.obj
 0004:00000c24       $pdata$?dummy_padded_allocate@internal@tbb@@YAPEAX_K0@Z 0000000180057c24     cache_aligned_allocator.obj
 0004:00000c30       $pdata$?dummy_padded_free@internal@tbb@@YAXPEAX@Z 0000000180057c30     cache_aligned_allocator.obj
 0004:00000c3c       $pdata$?NFS_Allocate@internal@tbb@@YAPEAX_K0PEAX@Z 0000000180057c3c     cache_aligned_allocator.obj
 0004:00000c48       $pdata$?padded_allocate@internal@tbb@@YAPEAX_K0@Z 0000000180057c48     cache_aligned_allocator.obj
 0004:00000c54       $pdata$?allocate_closure_v3@internal@tbb@@YAPEAX_K@Z 0000000180057c54     tbb_thread.obj
 0004:00000c54       $pdata$?allocate_via_handler_v3@internal@tbb@@YAPEAX_K@Z 0000000180057c54     cache_aligned_allocator.obj
 0004:00000c60       $pdata$?is_malloc_used_v3@internal@tbb@@YA_NXZ 0000000180057c60     cache_aligned_allocator.obj
 0004:00000c6c       $pdata$??_Gempty_task@tbb@@UEAAPEAXI@Z 0000000180057c6c     arena.obj
 0004:00000c6c       $pdata$??_Gtask@tbb@@UEAAPEAXI@Z 0000000180057c6c     pipeline.obj
 0004:00000c78       $pdata$??_Gfilter@tbb@@UEAAPEAXI@Z 0000000180057c78     pipeline.obj
 0004:00000c84       $pdata$??0input_buffer@internal@tbb@@QEAA@_N0@Z 0000000180057c84     pipeline.obj
 0004:00000c90       $pdata$0$??0input_buffer@internal@tbb@@QEAA@_N0@Z 0000000180057c90     pipeline.obj
 0004:00000c9c       $pdata$1$??0input_buffer@internal@tbb@@QEAA@_N0@Z 0000000180057c9c     pipeline.obj
 0004:00000ca8       $pdata$?put_token@input_buffer@internal@tbb@@QEAA_NAEAUtask_info@23@_N@Z 0000000180057ca8     pipeline.obj
 0004:00000cb4       $pdata$?return_item@input_buffer@internal@tbb@@QEAA_NAEAUtask_info@23@_N@Z 0000000180057cb4     pipeline.obj
 0004:00000cc0       $pdata$?grow@input_buffer@internal@tbb@@AEAAXK@Z 0000000180057cc0     pipeline.obj
 0004:00000ccc       $pdata$??_Gstage_task@internal@tbb@@UEAAPEAXI@Z 0000000180057ccc     pipeline.obj
 0004:00000cd8       $pdata$?execute@stage_task@internal@tbb@@UEAAPEAVtask@3@XZ 0000000180057cd8     pipeline.obj
 0004:00000ce4       $pdata$?execute@pipeline_root_task@internal@tbb@@EEAAPEAVtask@3@XZ 0000000180057ce4     pipeline.obj
 0004:00000cf0       $pdata$1$?execute@pipeline_root_task@internal@tbb@@EEAAPEAVtask@3@XZ 0000000180057cf0     pipeline.obj
 0004:00000cfc       $pdata$3$?execute@pipeline_root_task@internal@tbb@@EEAAPEAVtask@3@XZ 0000000180057cfc     pipeline.obj
 0004:00000d08       $pdata$4$?execute@pipeline_root_task@internal@tbb@@EEAAPEAVtask@3@XZ 0000000180057d08     pipeline.obj
 0004:00000d14       $pdata$??_Gpipeline_root_task@internal@tbb@@UEAAPEAXI@Z 0000000180057d14     pipeline.obj
 0004:00000d20       $pdata$??1pipeline_cleaner@internal@tbb@@QEAA@XZ 0000000180057d20     pipeline.obj
 0004:00000d2c       $pdata$?clear_filters@pipeline@tbb@@AEAAXXZ 0000000180057d2c     pipeline.obj
 0004:00000d38       $pdata$3$?clear_filters@pipeline@tbb@@AEAAXXZ 0000000180057d38     pipeline.obj
 0004:00000d44       $pdata$4$?clear_filters@pipeline@tbb@@AEAAXXZ 0000000180057d44     pipeline.obj
 0004:00000d50       $pdata$??_Gpipeline@tbb@@UEAAPEAXI@Z 0000000180057d50     pipeline.obj
 0004:00000d5c       $pdata$?clear@pipeline@tbb@@QEAAXXZ 0000000180057d5c     pipeline.obj
 0004:00000d68       $pdata$??_Ginput_buffer@internal@tbb@@QEAAPEAXI@Z 0000000180057d68     pipeline.obj
 0004:00000d74       $pdata$?add_filter@pipeline@tbb@@QEAAXAEAVfilter@2@@Z 0000000180057d74     pipeline.obj
 0004:00000d80       $pdata$?run@pipeline@tbb@@QEAAX_KAEAVtask_group_context@2@@Z 0000000180057d80     pipeline.obj
 0004:00000d8c       $pdata$?run@pipeline@tbb@@QEAAX_K@Z 0000000180057d8c     pipeline.obj
 0004:00000d98       $pdata$??1filter@tbb@@UEAA@XZ 0000000180057d98     pipeline.obj
 0004:00000da4       $pdata$?internal_process_item@thread_bound_filter@tbb@@AEAA?AW4result_type@12@_N@Z 0000000180057da4     pipeline.obj
 0004:00000db0       $pdata$??$note_done@Vstage_task@internal@tbb@@@input_buffer@internal@tbb@@QEAAXKAEAVstage_task@12@@Z 0000000180057db0     pipeline.obj
 0004:00000dbc       $pdata$?acquire@scoped_lock@queuing_mutex@tbb@@QEAAXAEAV23@@Z 0000000180057dbc     queuing_mutex.obj
 0004:00000dc8       $pdata$?try_acquire@scoped_lock@queuing_mutex@tbb@@QEAA_NAEAV23@@Z 0000000180057dc8     queuing_mutex.obj
 0004:00000dd4       $pdata$?release@scoped_lock@queuing_mutex@tbb@@QEAAXXZ 0000000180057dd4     queuing_mutex.obj
 0004:00000de0       $pdata$0$?release@scoped_lock@queuing_mutex@tbb@@QEAAXXZ 0000000180057de0     queuing_mutex.obj
 0004:00000dec       $pdata$1$?release@scoped_lock@queuing_mutex@tbb@@QEAAXXZ 0000000180057dec     queuing_mutex.obj
 0004:00000df8       $pdata$?unblock_or_wait_on_internal_lock@scoped_lock@queuing_rw_mutex@tbb@@AEAAX_K@Z 0000000180057df8     queuing_rw_mutex.obj
 0004:00000e04       $pdata$0$?unblock_or_wait_on_internal_lock@scoped_lock@queuing_rw_mutex@tbb@@AEAAX_K@Z 0000000180057e04     queuing_rw_mutex.obj
 0004:00000e10       $pdata$1$?unblock_or_wait_on_internal_lock@scoped_lock@queuing_rw_mutex@tbb@@AEAAX_K@Z 0000000180057e10     queuing_rw_mutex.obj
 0004:00000e1c       $pdata$?acquire@scoped_lock@queuing_rw_mutex@tbb@@QEAAXAEAV23@_N@Z 0000000180057e1c     queuing_rw_mutex.obj
 0004:00000e28       $pdata$0$?acquire@scoped_lock@queuing_rw_mutex@tbb@@QEAAXAEAV23@_N@Z 0000000180057e28     queuing_rw_mutex.obj
 0004:00000e34       $pdata$1$?acquire@scoped_lock@queuing_rw_mutex@tbb@@QEAAXAEAV23@_N@Z 0000000180057e34     queuing_rw_mutex.obj
 0004:00000e40       $pdata$2$?acquire@scoped_lock@queuing_rw_mutex@tbb@@QEAAXAEAV23@_N@Z 0000000180057e40     queuing_rw_mutex.obj
 0004:00000e4c       $pdata$3$?acquire@scoped_lock@queuing_rw_mutex@tbb@@QEAAXAEAV23@_N@Z 0000000180057e4c     queuing_rw_mutex.obj
 0004:00000e58       $pdata$?try_acquire@scoped_lock@queuing_rw_mutex@tbb@@QEAA_NAEAV23@_N@Z 0000000180057e58     queuing_rw_mutex.obj
 0004:00000e64       $pdata$?release@scoped_lock@queuing_rw_mutex@tbb@@QEAAXXZ 0000000180057e64     queuing_rw_mutex.obj
 0004:00000e70       $pdata$1$?release@scoped_lock@queuing_rw_mutex@tbb@@QEAAXXZ 0000000180057e70     queuing_rw_mutex.obj
 0004:00000e7c       $pdata$2$?release@scoped_lock@queuing_rw_mutex@tbb@@QEAAXXZ 0000000180057e7c     queuing_rw_mutex.obj
 0004:00000e88       $pdata$3$?release@scoped_lock@queuing_rw_mutex@tbb@@QEAAXXZ 0000000180057e88     queuing_rw_mutex.obj
 0004:00000e94       $pdata$4$?release@scoped_lock@queuing_rw_mutex@tbb@@QEAAXXZ 0000000180057e94     queuing_rw_mutex.obj
 0004:00000ea0       $pdata$5$?release@scoped_lock@queuing_rw_mutex@tbb@@QEAAXXZ 0000000180057ea0     queuing_rw_mutex.obj
 0004:00000eac       $pdata$6$?release@scoped_lock@queuing_rw_mutex@tbb@@QEAAXXZ 0000000180057eac     queuing_rw_mutex.obj
 0004:00000eb8       $pdata$?downgrade_to_reader@scoped_lock@queuing_rw_mutex@tbb@@QEAA_NXZ 0000000180057eb8     queuing_rw_mutex.obj
 0004:00000ec4       $pdata$0$?downgrade_to_reader@scoped_lock@queuing_rw_mutex@tbb@@QEAA_NXZ 0000000180057ec4     queuing_rw_mutex.obj
 0004:00000ed0       $pdata$1$?downgrade_to_reader@scoped_lock@queuing_rw_mutex@tbb@@QEAA_NXZ 0000000180057ed0     queuing_rw_mutex.obj
 0004:00000edc       $pdata$?upgrade_to_writer@scoped_lock@queuing_rw_mutex@tbb@@QEAA_NXZ 0000000180057edc     queuing_rw_mutex.obj
 0004:00000ee8       $pdata$??$spin_wait_until_eq@EH@internal@tbb@@YAXAEDEH@Z 0000000180057ee8     queuing_rw_mutex.obj
 0004:00000ef4       $pdata$??$spin_wait_while_eq@PEAVscoped_lock@queuing_rw_mutex@tbb@@PEAV123@@internal@tbb@@YAXAEDSEAVscoped_lock@queuing_rw_mutex@1@PEAV231@@Z 0000000180057ef4     queuing_rw_mutex.obj
 0004:00000f00       $pdata$??$spin_wait_while_eq@PEAXPEAX@internal@tbb@@YAXAEDSEAXPEAX@Z 0000000180057f00     concurrent_vector_v2.obj
 0004:00000f00       $pdata$??$spin_wait_while_eq@PEAVscoped_lock@queuing_rw_mutex@tbb@@PEAX@internal@tbb@@YAXAEDSEAVscoped_lock@queuing_rw_mutex@1@PEAX@Z 0000000180057f00     queuing_rw_mutex.obj
 0004:00000f00       $pdata$??$spin_wait_while_eq@PEAVscoped_lock@reader_writer_lock@interface5@tbb@@PEAV1234@@internal@tbb@@YAXAEDSEAVscoped_lock@reader_writer_lock@interface5@1@PEAV2341@@Z 0000000180057f00     reader_writer_lock.obj
 0004:00000f0c       $pdata$??1scoped_lock_read@reader_writer_lock@interface5@tbb@@QEAA@XZ 0000000180057f0c     reader_writer_lock.obj
 0004:00000f18       $pdata$?fetch_and_or@interface5@tbb@@YA_KAEAU?$atomic@_K@2@_K@Z 0000000180057f18     reader_writer_lock.obj
 0004:00000f24       $pdata$?lock@reader_writer_lock@interface5@tbb@@QEAAXXZ 0000000180057f24     reader_writer_lock.obj
 0004:00000f30       $pdata$?try_lock@reader_writer_lock@interface5@tbb@@QEAA_NXZ 0000000180057f30     reader_writer_lock.obj
 0004:00000f3c       $pdata$?start_write@reader_writer_lock@interface5@tbb@@AEAA_NPEAVscoped_lock@123@@Z 0000000180057f3c     reader_writer_lock.obj
 0004:00000f48       $pdata$??_Gscoped_lock@reader_writer_lock@interface5@tbb@@QEAAPEAXI@Z 0000000180057f48     reader_writer_lock.obj
 0004:00000f54       $pdata$?set_next_writer@reader_writer_lock@interface5@tbb@@AEAAXPEAVscoped_lock@123@@Z 0000000180057f54     reader_writer_lock.obj
 0004:00000f60       $pdata$2$?set_next_writer@reader_writer_lock@interface5@tbb@@AEAAXPEAVscoped_lock@123@@Z 0000000180057f60     reader_writer_lock.obj
 0004:00000f6c       $pdata$3$?set_next_writer@reader_writer_lock@interface5@tbb@@AEAAXPEAVscoped_lock@123@@Z 0000000180057f6c     reader_writer_lock.obj
 0004:00000f78       $pdata$4$?set_next_writer@reader_writer_lock@interface5@tbb@@AEAAXPEAVscoped_lock@123@@Z 0000000180057f78     reader_writer_lock.obj
 0004:00000f84       $pdata$?lock_read@reader_writer_lock@interface5@tbb@@QEAAXXZ 0000000180057f84     reader_writer_lock.obj
 0004:00000f90       $pdata$?try_lock_read@reader_writer_lock@interface5@tbb@@QEAA_NXZ 0000000180057f90     reader_writer_lock.obj
 0004:00000f9c       $pdata$?start_read@reader_writer_lock@interface5@tbb@@AEAAXPEAVscoped_lock_read@123@@Z 0000000180057f9c     reader_writer_lock.obj
 0004:00000fa8       $pdata$1$?start_read@reader_writer_lock@interface5@tbb@@AEAAXPEAVscoped_lock_read@123@@Z 0000000180057fa8     reader_writer_lock.obj
 0004:00000fb4       $pdata$2$?start_read@reader_writer_lock@interface5@tbb@@AEAAXPEAVscoped_lock_read@123@@Z 0000000180057fb4     reader_writer_lock.obj
 0004:00000fc0       $pdata$3$?start_read@reader_writer_lock@interface5@tbb@@AEAAXPEAVscoped_lock_read@123@@Z 0000000180057fc0     reader_writer_lock.obj
 0004:00000fcc       $pdata$4$?start_read@reader_writer_lock@interface5@tbb@@AEAAXPEAVscoped_lock_read@123@@Z 0000000180057fcc     reader_writer_lock.obj
 0004:00000fd8       $pdata$5$?start_read@reader_writer_lock@interface5@tbb@@AEAAXPEAVscoped_lock_read@123@@Z 0000000180057fd8     reader_writer_lock.obj
 0004:00000fe4       $pdata$?unlock@reader_writer_lock@interface5@tbb@@QEAAXXZ 0000000180057fe4     reader_writer_lock.obj
 0004:00000ff0       $pdata$?end_write@reader_writer_lock@interface5@tbb@@AEAAXPEAVscoped_lock@123@@Z 0000000180057ff0     reader_writer_lock.obj
 0004:00000ffc       $pdata$0$?end_write@reader_writer_lock@interface5@tbb@@AEAAXPEAVscoped_lock@123@@Z 0000000180057ffc     reader_writer_lock.obj
 0004:00001008       $pdata$1$?end_write@reader_writer_lock@interface5@tbb@@AEAAXPEAVscoped_lock@123@@Z 0000000180058008     reader_writer_lock.obj
 0004:00001014       $pdata$?internal_construct@scoped_lock@reader_writer_lock@interface5@tbb@@AEAAXAEAV234@@Z 0000000180058014     reader_writer_lock.obj
 0004:00001020       $pdata$?internal_construct@scoped_lock_read@reader_writer_lock@interface5@tbb@@AEAAXAEAV234@@Z 0000000180058020     reader_writer_lock.obj
 0004:0000102c       $pdata$?internal_destroy@scoped_lock@reader_writer_lock@interface5@tbb@@AEAAXXZ 000000018005802c     reader_writer_lock.obj
 0004:00001038       $pdata$?internal_destroy@scoped_lock_read@reader_writer_lock@interface5@tbb@@AEAAXXZ 0000000180058038     reader_writer_lock.obj
 0004:00001044       $pdata$?internal_acquire_writer@spin_rw_mutex@tbb@@CA_NPEAV12@@Z 0000000180058044     spin_rw_mutex_v2.obj
 0004:00001044       $pdata$?internal_acquire_writer@spin_rw_mutex_v3@tbb@@AEAA_NXZ 0000000180058044     spin_rw_mutex.obj
 0004:00001050       $pdata$?internal_release_writer@spin_rw_mutex_v3@tbb@@AEAAXXZ 0000000180058050     spin_rw_mutex.obj
 0004:0000105c       $pdata$?internal_acquire_reader@spin_rw_mutex_v3@tbb@@AEAAXXZ 000000018005805c     spin_rw_mutex.obj
 0004:00001068       $pdata$?internal_upgrade@spin_rw_mutex_v3@tbb@@AEAA_NXZ 0000000180058068     spin_rw_mutex.obj
 0004:00001074       $pdata$0$?internal_upgrade@spin_rw_mutex_v3@tbb@@AEAA_NXZ 0000000180058074     spin_rw_mutex.obj
 0004:00001080       $pdata$1$?internal_upgrade@spin_rw_mutex_v3@tbb@@AEAA_NXZ 0000000180058080     spin_rw_mutex.obj
 0004:0000108c       $pdata$2$?internal_upgrade@spin_rw_mutex_v3@tbb@@AEAA_NXZ 000000018005808c     spin_rw_mutex.obj
 0004:00001098       $pdata$3$?internal_upgrade@spin_rw_mutex_v3@tbb@@AEAA_NXZ 0000000180058098     spin_rw_mutex.obj
 0004:000010a4       $pdata$?internal_downgrade@spin_rw_mutex_v3@tbb@@AEAAXXZ 00000001800580a4     spin_rw_mutex.obj
 0004:000010b0       $pdata$?internal_release_reader@spin_rw_mutex@tbb@@CAXPEAV12@@Z 00000001800580b0     spin_rw_mutex_v2.obj
 0004:000010b0       $pdata$?internal_release_reader@spin_rw_mutex_v3@tbb@@AEAAXXZ 00000001800580b0     spin_rw_mutex.obj
 0004:000010bc       $pdata$?internal_try_acquire_writer@spin_rw_mutex_v3@tbb@@AEAA_NXZ 00000001800580bc     spin_rw_mutex.obj
 0004:000010bc       $pdata$?internal_try_acquire_writer@spin_rw_mutex@tbb@@CA_NPEAV12@@Z 00000001800580bc     spin_rw_mutex_v2.obj
 0004:000010c8       $pdata$?internal_try_acquire_reader@spin_rw_mutex_v3@tbb@@AEAA_NXZ 00000001800580c8     spin_rw_mutex.obj
 0004:000010d4       $pdata$?internal_acquire_writer@x86_rtm_rw_mutex@internal@interface8@tbb@@AEAAXAEAVscoped_lock@1234@_N@Z 00000001800580d4     x86_rtm_rw_mutex.obj
 0004:000010e0       $pdata$?internal_acquire_reader@x86_rtm_rw_mutex@internal@interface8@tbb@@AEAAXAEAVscoped_lock@1234@_N@Z 00000001800580e0     x86_rtm_rw_mutex.obj
 0004:000010ec       $pdata$?internal_upgrade@x86_rtm_rw_mutex@internal@interface8@tbb@@AEAA_NAEAVscoped_lock@1234@@Z 00000001800580ec     x86_rtm_rw_mutex.obj
 0004:000010f8       $pdata$1$?internal_upgrade@x86_rtm_rw_mutex@internal@interface8@tbb@@AEAA_NAEAVscoped_lock@1234@@Z 00000001800580f8     x86_rtm_rw_mutex.obj
 0004:00001104       $pdata$3$?internal_upgrade@x86_rtm_rw_mutex@internal@interface8@tbb@@AEAA_NAEAVscoped_lock@1234@@Z 0000000180058104     x86_rtm_rw_mutex.obj
 0004:00001110       $pdata$4$?internal_upgrade@x86_rtm_rw_mutex@internal@interface8@tbb@@AEAA_NAEAVscoped_lock@1234@@Z 0000000180058110     x86_rtm_rw_mutex.obj
 0004:0000111c       $pdata$?internal_try_acquire_writer@x86_rtm_rw_mutex@internal@interface8@tbb@@AEAA_NAEAVscoped_lock@1234@@Z 000000018005811c     x86_rtm_rw_mutex.obj
 0004:00001128       $pdata$?internal_acquire@scoped_lock@spin_mutex@tbb@@AEAAXAEAV23@@Z 0000000180058128     spin_mutex.obj
 0004:00001134       $pdata$?internal_release@scoped_lock@spin_mutex@tbb@@AEAAXXZ 0000000180058134     spin_mutex.obj
 0004:00001140       $pdata$?internal_try_acquire@scoped_lock@spin_mutex@tbb@@AEAA_NAEAV23@@Z 0000000180058140     spin_mutex.obj
 0004:0000114c       $pdata$?internal_acquire@scoped_lock@mutex@tbb@@AEAAXAEAV23@@Z 000000018005814c     mutex.obj
 0004:00001158       $pdata$?internal_release@scoped_lock@mutex@tbb@@AEAAXXZ 0000000180058158     mutex.obj
 0004:00001164       $pdata$?internal_try_acquire@scoped_lock@mutex@tbb@@AEAA_NAEAV23@@Z 0000000180058164     mutex.obj
 0004:00001170       $pdata$?internal_construct@mutex@tbb@@AEAAXXZ 0000000180058170     mutex.obj
 0004:0000117c       $pdata$?internal_destroy@mutex@tbb@@AEAAXXZ 000000018005817c     mutex.obj
 0004:0000117c       $pdata$?internal_destroy@recursive_mutex@tbb@@AEAAXXZ 000000018005817c     recursive_mutex.obj
 0004:00001188       $pdata$?internal_acquire@scoped_lock@recursive_mutex@tbb@@AEAAXAEAV23@@Z 0000000180058188     recursive_mutex.obj
 0004:00001194       $pdata$?internal_release@scoped_lock@recursive_mutex@tbb@@AEAAXXZ 0000000180058194     recursive_mutex.obj
 0004:000011a0       $pdata$?internal_try_acquire@scoped_lock@recursive_mutex@tbb@@AEAA_NAEAV23@@Z 00000001800581a0     recursive_mutex.obj
 0004:000011ac       $pdata$?internal_construct@recursive_mutex@tbb@@AEAAXXZ 00000001800581ac     recursive_mutex.obj
 0004:000011b8       $pdata$?init_condvar_using_event@internal@tbb@@YAXPEAUcondition_variable_using_event@1interface5@2@@Z 00000001800581b8     condition_variable.obj
 0004:000011c4       $pdata$?sleep_condition_variable_cs_using_event@internal@tbb@@YAHPEAUcondition_variable_using_event@1interface5@2@PEAU_RTL_CRITICAL_SECTION@@K@Z 00000001800581c4     condition_variable.obj
 0004:000011d0       $pdata$?wake_condition_variable_using_event@internal@tbb@@YAXPEAUcondition_variable_using_event@1interface5@2@@Z 00000001800581d0     condition_variable.obj
 0004:000011dc       $pdata$?wake_all_condition_variable_using_event@internal@tbb@@YAXPEAUcondition_variable_using_event@1interface5@2@@Z 00000001800581dc     condition_variable.obj
 0004:000011e8       $pdata$?destroy_condvar_using_event@internal@tbb@@YAXPEAUcondition_variable_using_event@1interface5@2@@Z 00000001800581e8     condition_variable.obj
 0004:000011f4       $pdata$0$?destroy_condvar_using_event@internal@tbb@@YAXPEAUcondition_variable_using_event@1interface5@2@@Z 00000001800581f4     condition_variable.obj
 0004:00001200       $pdata$1$?destroy_condvar_using_event@internal@tbb@@YAXPEAUcondition_variable_using_event@1interface5@2@@Z 0000000180058200     condition_variable.obj
 0004:0000120c       $pdata$?init_condvar_module@internal@tbb@@YAXXZ 000000018005820c     condition_variable.obj
 0004:00001218       $pdata$?internal_initialize_condition_variable@internal@interface5@tbb@@YAXAEATcondvar_impl_t@123@@Z 0000000180058218     condition_variable.obj
 0004:00001224       $pdata$1$?internal_initialize_condition_variable@internal@interface5@tbb@@YAXAEATcondvar_impl_t@123@@Z 0000000180058224     condition_variable.obj
 0004:00001230       $pdata$2$?internal_initialize_condition_variable@internal@interface5@tbb@@YAXAEATcondvar_impl_t@123@@Z 0000000180058230     condition_variable.obj
 0004:0000123c       $pdata$?internal_condition_variable_wait@internal@interface5@tbb@@YA_NAEATcondvar_impl_t@123@PEAVmutex@3@PEBVinterval_t@tick_count@3@@Z 000000018005823c     condition_variable.obj
 0004:00001248       $pdata$?join@tbb_thread_v3@internal@tbb@@QEAAXXZ 0000000180058248     tbb_thread.obj
 0004:00001254       $pdata$0$?join@tbb_thread_v3@internal@tbb@@QEAAXXZ 0000000180058254     tbb_thread.obj
 0004:00001260       $pdata$1$?join@tbb_thread_v3@internal@tbb@@QEAAXXZ 0000000180058260     tbb_thread.obj
 0004:0000126c       $pdata$?detach@tbb_thread_v3@internal@tbb@@QEAAXXZ 000000018005826c     tbb_thread.obj
 0004:00001278       $pdata$?internal_start@tbb_thread_v3@internal@tbb@@AEAAXP6AIPEAX@Z0@Z 0000000180058278     tbb_thread.obj
 0004:00001284       $pdata$?hardware_concurrency@tbb_thread_v3@internal@tbb@@SAIXZ 0000000180058284     tbb_thread.obj
 0004:00001290       $pdata$?thread_get_id_v3@internal@tbb@@YA?AVid@tbb_thread_v3@12@XZ 0000000180058290     tbb_thread.obj
 0004:0000129c       $pdata$?move_v3@internal@tbb@@YAXAEAVtbb_thread_v3@12@0@Z 000000018005829c     tbb_thread.obj
 0004:000012a8       $pdata$?thread_sleep_v3@internal@tbb@@YAXAEBVinterval_t@tick_count@2@@Z 00000001800582a8     tbb_thread.obj
 0004:000012b4       $pdata$1$?thread_sleep_v3@internal@tbb@@YAXAEBVinterval_t@tick_count@2@@Z 00000001800582b4     tbb_thread.obj
 0004:000012c0       $pdata$2$?thread_sleep_v3@internal@tbb@@YAXAEBVinterval_t@tick_count@2@@Z 00000001800582c0     tbb_thread.obj
 0004:000012cc       $pdata$?init@thread_context@concurrent_monitor@internal@tbb@@AEAAXXZ 00000001800582cc     concurrent_monitor.obj
 0004:000012d8       $pdata$?prepare_wait@concurrent_monitor@internal@tbb@@QEAAXAEAVthread_context@123@_K@Z 00000001800582d8     concurrent_monitor.obj
 0004:000012e4       $pdata$?cancel_wait@concurrent_monitor@internal@tbb@@QEAAXAEAVthread_context@123@@Z 00000001800582e4     concurrent_monitor.obj
 0004:000012f0       $pdata$1$?cancel_wait@concurrent_monitor@internal@tbb@@QEAAXAEAVthread_context@123@@Z 00000001800582f0     concurrent_monitor.obj
 0004:000012fc       $pdata$2$?cancel_wait@concurrent_monitor@internal@tbb@@QEAAXAEAVthread_context@123@@Z 00000001800582fc     concurrent_monitor.obj
 0004:00001308       $pdata$?notify_all_relaxed@concurrent_monitor@internal@tbb@@QEAAXXZ 0000000180058308     concurrent_monitor.obj
 0004:00001314       $pdata$0$?notify_all_relaxed@concurrent_monitor@internal@tbb@@QEAAXXZ 0000000180058314     concurrent_monitor.obj
 0004:00001320       $pdata$1$?notify_all_relaxed@concurrent_monitor@internal@tbb@@QEAAXXZ 0000000180058320     concurrent_monitor.obj
 0004:0000132c       $pdata$2$?notify_all_relaxed@concurrent_monitor@internal@tbb@@QEAAXXZ 000000018005832c     concurrent_monitor.obj
 0004:00001338       $pdata$3$?notify_all_relaxed@concurrent_monitor@internal@tbb@@QEAAXXZ 0000000180058338     concurrent_monitor.obj
 0004:00001344       $pdata$?abort_all_relaxed@concurrent_monitor@internal@tbb@@QEAAXXZ 0000000180058344     concurrent_monitor.obj
 0004:00001350       $pdata$0$?abort_all_relaxed@concurrent_monitor@internal@tbb@@QEAAXXZ 0000000180058350     concurrent_monitor.obj
 0004:0000135c       $pdata$1$?abort_all_relaxed@concurrent_monitor@internal@tbb@@QEAAXXZ 000000018005835c     concurrent_monitor.obj
 0004:00001368       $pdata$2$?abort_all_relaxed@concurrent_monitor@internal@tbb@@QEAAXXZ 0000000180058368     concurrent_monitor.obj
 0004:00001374       $pdata$3$?abort_all_relaxed@concurrent_monitor@internal@tbb@@QEAAXXZ 0000000180058374     concurrent_monitor.obj
 0004:00001380       $pdata$fprintf             0000000180058380     private_server.obj
 0004:0000138c       $pdata$?launch@thread_monitor@internal@rml@@SAPEAXP6AIPEAX@Z0_KPEB_K@Z 000000018005838c     private_server.obj
 0004:00001398       $pdata$?request_close_connection@private_server@rml@internal@tbb@@UEAAX_N@Z 0000000180058398     private_server.obj
 0004:000013a4       $pdata$0$?request_close_connection@private_server@rml@internal@tbb@@UEAAX_N@Z 00000001800583a4     private_server.obj
 0004:000013b0       $pdata$1$?request_close_connection@private_server@rml@internal@tbb@@UEAAX_N@Z 00000001800583b0     private_server.obj
 0004:000013bc       $pdata$2$?request_close_connection@private_server@rml@internal@tbb@@UEAAX_N@Z 00000001800583bc     private_server.obj
 0004:000013c8       $pdata$3$?request_close_connection@private_server@rml@internal@tbb@@UEAAX_N@Z 00000001800583c8     private_server.obj
 0004:000013d4       $pdata$?default_concurrency@private_server@rml@internal@tbb@@UEBAIXZ 00000001800583d4     private_server.obj
 0004:000013e0       $pdata$?thread_routine@private_worker@rml@internal@tbb@@CAIPEAX@Z 00000001800583e0     private_server.obj
 0004:000013ec       $pdata$?start_shutdown@private_worker@rml@internal@tbb@@AEAAXXZ 00000001800583ec     private_server.obj
 0004:000013f8       $pdata$?run@private_worker@rml@internal@tbb@@AEAAXXZ 00000001800583f8     private_server.obj
 0004:00001404       $pdata$??0private_server@rml@internal@tbb@@QEAA@AEAVtbb_client@123@@Z 0000000180058404     private_server.obj
 0004:00001410       $pdata$??_Gprivate_server@rml@internal@tbb@@EEAAPEAXI@Z 0000000180058410     private_server.obj
 0004:0000141c       $pdata$??1private_server@rml@internal@tbb@@EEAA@XZ 000000018005841c     private_server.obj
 0004:00001428       $pdata$?wake_some@private_server@rml@internal@tbb@@AEAAXH@Z 0000000180058428     private_server.obj
 0004:00001434       $pdata$?open@tbb_factory@rml@internal@tbb@@QEAA?AW4status_type@factory@2@XZ 0000000180058434     rml_tbb.obj
 0004:00001440       $pdata$??0exception@std@@QEAA@AEBV01@@Z 0000000180058440     tbb_misc.obj
 0004:0000144c       $pdata$??_Glogic_error@std@@UEAAPEAXI@Z 000000018005844c     tbb_misc.obj
 0004:0000144c       $pdata$??_Guser_abort@tbb@@UEAAPEAXI@Z 000000018005844c     tbb_misc.obj
 0004:0000144c       $pdata$??_Gimproper_lock@tbb@@UEAAPEAXI@Z 000000018005844c     tbb_misc.obj
 0004:0000144c       $pdata$??_Gbad_exception@std@@UEAAPEAXI@Z 000000018005844c     libcpmt:excptptr.obj
 0004:0000144c       $pdata$??_Ginvalid_multiple_scheduling@tbb@@UEAAPEAXI@Z 000000018005844c     tbb_misc.obj
 0004:0000144c       $pdata$??_Gmissing_wait@tbb@@UEAAPEAXI@Z 000000018005844c     tbb_misc.obj
 0004:0000144c       $pdata$??_Gbad_last_alloc@tbb@@UEAAPEAXI@Z 000000018005844c     tbb_misc.obj
 0004:0000144c       $pdata$??_Grange_error@std@@UEAAPEAXI@Z 000000018005844c     tbb_misc.obj
 0004:0000144c       $pdata$??_Ginvalid_argument@std@@UEAAPEAXI@Z 000000018005844c     tbb_misc.obj
 0004:0000144c       $pdata$??_G__non_rtti_object@std@@UEAAPEAXI@Z 000000018005844c     libvcruntime:rtti.obj
 0004:0000144c       $pdata$??_Glength_error@std@@UEAAPEAXI@Z 000000018005844c     tbb_misc.obj
 0004:0000144c       $pdata$??_Gbad_array_new_length@std@@UEAAPEAXI@Z 000000018005844c     LIBCMT:throw_bad_alloc.obj
 0004:0000144c       $pdata$??_Gbad_alloc@std@@UEAAPEAXI@Z 000000018005844c     tbb_misc.obj
 0004:0000144c       $pdata$??_Gout_of_range@std@@UEAAPEAXI@Z 000000018005844c     tbb_misc.obj
 0004:0000144c       $pdata$??_Gruntime_error@std@@UEAAPEAXI@Z 000000018005844c     tbb_misc.obj
 0004:0000144c       $pdata$??_Gbad_typeid@std@@UEAAPEAXI@Z 000000018005844c     libvcruntime:rtti.obj
 0004:0000144c       $pdata$??_Gexception@std@@UEAAPEAXI@Z 000000018005844c     tbb_misc.obj
 0004:00001458       $pdata$_snprintf           0000000180058458     tbb_misc.obj
 0004:00001464       $pdata$?assertion_failure@tbb@@YAXPEBDH00@Z 0000000180058464     tbb_misc.obj
 0004:00001470       $pdata$?runtime_warning@internal@tbb@@YAXPEBDZZ 0000000180058470     tbb_misc.obj
 0004:0000147c       $pdata$??0length_error@std@@QEAA@PEBD@Z 000000018005847c     tbb_misc.obj
 0004:00001488       $pdata$??0runtime_error@std@@QEAA@AEBV01@@Z 0000000180058488     tbb_misc.obj
 0004:00001494       $pdata$?handle_perror@internal@tbb@@YAXHPEBD@Z 0000000180058494     tbb_misc.obj
 0004:000014a0       $pdata$?handle_win_error@internal@tbb@@YAXH@Z 00000001800584a0     tbb_misc.obj
 0004:000014ac       $pdata$?throw_bad_last_alloc_exception_v4@internal@tbb@@YAXXZ 00000001800584ac     tbb_misc.obj
 0004:000014b8       $pdata$?throw_exception_v4@internal@tbb@@YAXW4exception_id@12@@Z 00000001800584b8     tbb_misc.obj
 0004:000014c4       $pdata$??0bad_alloc@std@@QEAA@AEBV01@@Z 00000001800584c4     tbb_misc.obj
 0004:000014d0       $pdata$??0bad_last_alloc@tbb@@QEAA@AEBV01@@Z 00000001800584d0     tbb_misc.obj
 0004:000014dc       $pdata$??0invalid_argument@std@@QEAA@AEBV01@@Z 00000001800584dc     tbb_misc.obj
 0004:000014e8       $pdata$??0logic_error@std@@QEAA@AEBV01@@Z 00000001800584e8     tbb_misc.obj
 0004:000014f4       $pdata$??0out_of_range@std@@QEAA@AEBV01@@Z 00000001800584f4     tbb_misc.obj
 0004:00001500       $pdata$??0range_error@std@@QEAA@AEBV01@@Z 0000000180058500     tbb_misc.obj
 0004:0000150c       $pdata$??0missing_wait@tbb@@QEAA@AEBV01@@Z 000000018005850c     tbb_misc.obj
 0004:00001518       $pdata$??0invalid_multiple_scheduling@tbb@@QEAA@AEBV01@@Z 0000000180058518     tbb_misc.obj
 0004:00001524       $pdata$??0improper_lock@tbb@@QEAA@AEBV01@@Z 0000000180058524     tbb_misc.obj
 0004:00001530       $pdata$??0length_error@std@@QEAA@AEBV01@@Z 0000000180058530     tbb_misc.obj
 0004:0000153c       $pdata$??0user_abort@tbb@@QEAA@AEBV01@@Z 000000018005853c     tbb_misc.obj
 0004:00001548       $pdata$?PrintExtraVersionInfo@internal@tbb@@YAXPEBD0ZZ 0000000180058548     tbb_misc.obj
 0004:00001554       $pdata$0$?PrintExtraVersionInfo@internal@tbb@@YAXPEBD0ZZ 0000000180058554     tbb_misc.obj
 0004:00001560       $pdata$1$?PrintExtraVersionInfo@internal@tbb@@YAXPEBD0ZZ 0000000180058560     tbb_misc.obj
 0004:0000156c       $pdata$?initialize_hardware_concurrency_info@internal@tbb@@YAXXZ 000000018005856c     tbb_misc_ex.obj
 0004:00001578       $pdata$1$?initialize_hardware_concurrency_info@internal@tbb@@YAXXZ 0000000180058578     tbb_misc_ex.obj
 0004:00001584       $pdata$2$?initialize_hardware_concurrency_info@internal@tbb@@YAXXZ 0000000180058584     tbb_misc_ex.obj
 0004:00001590       $pdata$3$?initialize_hardware_concurrency_info@internal@tbb@@YAXXZ 0000000180058590     tbb_misc_ex.obj
 0004:0000159c       $pdata$4$?initialize_hardware_concurrency_info@internal@tbb@@YAXXZ 000000018005859c     tbb_misc_ex.obj
 0004:000015a8       $pdata$?FindProcessorGroupIndex@internal@tbb@@YAHH@Z 00000001800585a8     tbb_misc_ex.obj
 0004:000015b4       $pdata$?AvailableHwConcurrency@internal@tbb@@YAHXZ 00000001800585b4     tbb_misc_ex.obj
 0004:000015c0       $pdata$1$?AvailableHwConcurrency@internal@tbb@@YAHXZ 00000001800585c0     tbb_misc_ex.obj
 0004:000015cc       $pdata$2$?AvailableHwConcurrency@internal@tbb@@YAHXZ 00000001800585cc     tbb_misc_ex.obj
 0004:000015d8       $pdata$?local_scheduler_weak@governor@internal@tbb@@SAPEAVgeneric_scheduler@23@XZ 00000001800585d8     task.obj
 0004:000015e4       $pdata$?allocate@allocate_root_proxy@internal@tbb@@SAAEAVtask@3@_K@Z 00000001800585e4     task.obj
 0004:000015f0       $pdata$?free@allocate_root_proxy@internal@tbb@@SAXAEAVtask@3@@Z 00000001800585f0     task.obj
 0004:000015fc       $pdata$?allocate@allocate_root_with_context_proxy@internal@tbb@@QEBAAEAVtask@3@_K@Z 00000001800585fc     task.obj
 0004:00001608       $pdata$?free@allocate_child_proxy@internal@tbb@@QEBAXAEAVtask@3@@Z 0000000180058608     task.obj
 0004:00001608       $pdata$?free@allocate_root_with_context_proxy@internal@tbb@@QEBAXAEAVtask@3@@Z 0000000180058608     task.obj
 0004:00001614       $pdata$?allocate@allocate_continuation_proxy@internal@tbb@@QEBAAEAVtask@3@_K@Z 0000000180058614     task.obj
 0004:00001620       $pdata$?free@allocate_continuation_proxy@internal@tbb@@QEBAXAEAVtask@3@@Z 0000000180058620     task.obj
 0004:0000162c       $pdata$?allocate@allocate_child_proxy@internal@tbb@@QEBAAEAVtask@3@_K@Z 000000018005862c     task.obj
 0004:00001638       $pdata$?allocate@allocate_additional_child_of_proxy@internal@tbb@@QEBAAEAVtask@3@_K@Z 0000000180058638     task.obj
 0004:00001644       $pdata$?free@allocate_additional_child_of_proxy@internal@tbb@@QEBAXAEAVtask@3@@Z 0000000180058644     task.obj
 0004:00001650       $pdata$?get_initial_auto_partitioner_divisor@internal@tbb@@YA_KXZ 0000000180058650     task.obj
 0004:0000165c       $pdata$?resize@affinity_partitioner_base_v3@internal@tbb@@AEAAXI@Z 000000018005865c     task.obj
 0004:00001668       $pdata$1$?resize@affinity_partitioner_base_v3@internal@tbb@@AEAAXI@Z 0000000180058668     task.obj
 0004:00001674       $pdata$2$?resize@affinity_partitioner_base_v3@internal@tbb@@AEAAXI@Z 0000000180058674     task.obj
 0004:00001680       $pdata$?internal_set_ref_count@task@tbb@@AEAAXH@Z 0000000180058680     task.obj
 0004:0000168c       $pdata$?internal_decrement_ref_count@task@tbb@@AEAA_JXZ 000000018005868c     task.obj
 0004:00001698       $pdata$?self@task@tbb@@SAAEAV12@XZ 0000000180058698     task.obj
 0004:000016a4       $pdata$?destroy@task_base@internal@interface5@tbb@@SAXAEAVtask@4@@Z 00000001800586a4     task.obj
 0004:000016b0       $pdata$?spawn_and_wait_for_all@task@tbb@@QEAAXAEAVtask_list@2@@Z 00000001800586b0     task.obj
 0004:000016bc       $pdata$?change_group@task@tbb@@QEAAXAEAVtask_group_context@2@@Z 00000001800586bc     task.obj
 0004:000016c8       $pdata$?_Current_exception@exception_ptr@std@@SA?AV12@XZ 00000001800586c8     task_group_context.obj
 0004:000016d4       $pdata$?_Copy_exception@exception_ptr@std@@SA?AV12@PEAXPEBX@Z 00000001800586d4     task_group_context.obj
 0004:000016e0       $pdata$?current_exception@std@@YA?AVexception_ptr@1@XZ 00000001800586e0     task_group_context.obj
 0004:000016ec       $pdata$??0captured_exception@tbb@@QEAA@AEBV01@@Z 00000001800586ec     task_group_context.obj
 0004:000016f8       $pdata$?throw_self@captured_exception@tbb@@UEAAXXZ 00000001800586f8     task_group_context.obj
 0004:00001704       $pdata$??_Gcaptured_exception@tbb@@UEAAPEAXI@Z 0000000180058704     task_group_context.obj
 0004:00001710       $pdata$??0tbb_exception@tbb@@QEAA@AEBV01@@Z 0000000180058710     task_group_context.obj
 0004:0000171c       $pdata$??_Gtbb_exception@tbb@@UEAAPEAXI@Z 000000018005871c     task_group_context.obj
 0004:00001728       $pdata$??0tbb_exception_ptr@internal@tbb@@QEAA@AEBVcaptured_exception@2@@Z 0000000180058728     task_group_context.obj
 0004:00001734       $pdata$?lock@spin_mutex@tbb@@QEAAXXZ 0000000180058734     task_group_context.obj
 0004:00001740       $pdata$?duplicate_string@tbb@@YAPEADPEBD@Z 0000000180058740     task_group_context.obj
 0004:0000174c       $pdata$1$?duplicate_string@tbb@@YAPEADPEBD@Z 000000018005874c     task_group_context.obj
 0004:00001758       $pdata$2$?duplicate_string@tbb@@YAPEADPEBD@Z 0000000180058758     task_group_context.obj
 0004:00001764       $pdata$??1captured_exception@tbb@@UEAA@XZ 0000000180058764     task_group_context.obj
 0004:00001770       $pdata$?set@captured_exception@tbb@@QEAAXPEBD0@Z 0000000180058770     task_group_context.obj
 0004:0000177c       $pdata$?clear@captured_exception@tbb@@QEAAXXZ 000000018005877c     task_group_context.obj
 0004:00001788       $pdata$?move@captured_exception@tbb@@UEAAPEAV12@XZ 0000000180058788     task_group_context.obj
 0004:00001794       $pdata$?destroy@captured_exception@tbb@@UEAAXXZ 0000000180058794     task_group_context.obj
 0004:000017a0       $pdata$?allocate@captured_exception@tbb@@SAPEAV12@PEBD0@Z 00000001800587a0     task_group_context.obj
 0004:000017ac       $pdata$?allocate@tbb_exception_ptr@internal@tbb@@SAPEAV123@AEBVtbb_exception@3@@Z 00000001800587ac     task_group_context.obj
 0004:000017ac       $pdata$?allocate@tbb_exception_ptr@internal@tbb@@SAPEAV123@XZ 00000001800587ac     task_group_context.obj
 0004:000017b8       $pdata$?allocate@tbb_exception_ptr@internal@tbb@@SAPEAV123@AEAVcaptured_exception@3@@Z 00000001800587b8     task_group_context.obj
 0004:000017c4       $pdata$??1task_group_context@tbb@@QEAA@XZ 00000001800587c4     task_group_context.obj
 0004:000017d0       $pdata$?init@task_group_context@tbb@@IEAAXXZ 00000001800587d0     task_group_context.obj
 0004:000017dc       $pdata$?register_with@task_group_context@tbb@@QEAAXPEAVgeneric_scheduler@internal@2@@Z 00000001800587dc     task_group_context.obj
 0004:000017e8       $pdata$1$?register_with@task_group_context@tbb@@QEAAXPEAVgeneric_scheduler@internal@2@@Z 00000001800587e8     task_group_context.obj
 0004:000017f4       $pdata$2$?register_with@task_group_context@tbb@@QEAAXPEAVgeneric_scheduler@internal@2@@Z 00000001800587f4     task_group_context.obj
 0004:00001800       $pdata$3$?register_with@task_group_context@tbb@@QEAAXPEAVgeneric_scheduler@internal@2@@Z 0000000180058800     task_group_context.obj
 0004:0000180c       $pdata$?bind_to@task_group_context@tbb@@QEAAXPEAVgeneric_scheduler@internal@2@@Z 000000018005880c     task_group_context.obj
 0004:00001818       $pdata$1$?bind_to@task_group_context@tbb@@QEAAXPEAVgeneric_scheduler@internal@2@@Z 0000000180058818     task_group_context.obj
 0004:00001824       $pdata$3$?bind_to@task_group_context@tbb@@QEAAXPEAVgeneric_scheduler@internal@2@@Z 0000000180058824     task_group_context.obj
 0004:00001830       $pdata$4$?bind_to@task_group_context@tbb@@QEAAXPEAVgeneric_scheduler@internal@2@@Z 0000000180058830     task_group_context.obj
 0004:0000183c       $pdata$?cancel_group_execution@task_group_context@tbb@@QEAA_NXZ 000000018005883c     task_group_context.obj
 0004:00001848       $pdata$?reset@task_group_context@tbb@@QEAAXXZ 0000000180058848     task_group_context.obj
 0004:00001854       $pdata$?capture_fp_settings@task_group_context@tbb@@QEAAXXZ 0000000180058854     task_group_context.obj
 0004:00001860       $pdata$?register_pending_exception@task_group_context@tbb@@QEAAXXZ 0000000180058860     task_group_context.obj
 0004:0000186c       $pdata$?set_priority@task_group_context@tbb@@QEAAXW4priority_t@2@@Z 000000018005886c     task_group_context.obj
 0004:00001878       $pdata$0$?set_priority@task_group_context@tbb@@QEAAXW4priority_t@2@@Z 0000000180058878     task_group_context.obj
 0004:00001884       $pdata$1$?set_priority@task_group_context@tbb@@QEAAXW4priority_t@2@@Z 0000000180058884     task_group_context.obj
 0004:00001890       $pdata$??$make_exception_ptr@Vcaptured_exception@tbb@@@std@@YA?AVexception_ptr@0@Vcaptured_exception@tbb@@@Z 0000000180058890     task_group_context.obj
 0004:0000189c       $pdata$??$spin_wait_until_eq@U?$atomic@_K@tbb@@I@internal@tbb@@YAXAEDU?$atomic@_K@1@I@Z 000000018005889c     task_group_context.obj
 0004:000018a8       $pdata$??$propagate_task_group_state@_K@market@internal@tbb@@QEAA_NPEQtask_group_context@2@_KAEAV32@_K@Z 00000001800588a8     task_group_context.obj
 0004:000018b4       $pdata$??$propagate_task_group_state@_J@market@internal@tbb@@QEAA_NPEQtask_group_context@2@_JAEAV32@_J@Z 00000001800588b4     task_group_context.obj
 0004:000018c0       $pdata$??$propagate_task_group_state@_K@generic_scheduler@internal@tbb@@QEAAXPEQtask_group_context@2@_KAEAV32@_K@Z 00000001800588c0     task_group_context.obj
 0004:000018cc       $pdata$??$propagate_task_group_state@_J@generic_scheduler@internal@tbb@@QEAAXPEQtask_group_context@2@_JAEAV32@_J@Z 00000001800588cc     task_group_context.obj
 0004:000018d8       $pdata$?initialize_cilk_interop@internal@tbb@@YA_NXZ 00000001800588d8     governor.obj
 0004:000018e4       $pdata$?release_resources@governor@internal@tbb@@CAXXZ 00000001800588e4     governor.obj
 0004:000018f0       $pdata$0$?release_resources@governor@internal@tbb@@CAXXZ 00000001800588f0     governor.obj
 0004:000018fc       $pdata$1$?release_resources@governor@internal@tbb@@CAXXZ 00000001800588fc     governor.obj
 0004:00001908       $pdata$?create_rml_server@governor@internal@tbb@@CAPEAVtbb_server@rml@23@AEAVtbb_client@523@@Z 0000000180058908     governor.obj
 0004:00001914       $pdata$?is_set@governor@internal@tbb@@SA_NPEAVgeneric_scheduler@23@@Z 0000000180058914     governor.obj
 0004:00001920       $pdata$?sign_on@governor@internal@tbb@@SAXPEAVgeneric_scheduler@23@@Z 0000000180058920     governor.obj
 0004:0000192c       $pdata$?init_scheduler@governor@internal@tbb@@SAPEAVgeneric_scheduler@23@H_K_N@Z 000000018005892c     governor.obj
 0004:00001938       $pdata$?terminate_scheduler@governor@internal@tbb@@SAXPEAVgeneric_scheduler@23@PEBVtask_scheduler_init@3@@Z 0000000180058938     governor.obj
 0004:00001944       $pdata$?stack_op_handler@governor@internal@tbb@@SAHW4__cilk_tbb_stack_op@@PEAX@Z 0000000180058944     governor.obj
 0004:00001950       $pdata$?initialize@task_scheduler_init@tbb@@QEAAXH_K@Z 0000000180058950     governor.obj
 0004:0000195c       $pdata$0$?initialize@task_scheduler_init@tbb@@QEAAXH_K@Z 000000018005895c     governor.obj
 0004:00001968       $pdata$1$?initialize@task_scheduler_init@tbb@@QEAAXH_K@Z 0000000180058968     governor.obj
 0004:00001974       $pdata$2$?initialize@task_scheduler_init@tbb@@QEAAXH_K@Z 0000000180058974     governor.obj
 0004:00001980       $pdata$3$?initialize@task_scheduler_init@tbb@@QEAAXH_K@Z 0000000180058980     governor.obj
 0004:0000198c       $pdata$4$?initialize@task_scheduler_init@tbb@@QEAAXH_K@Z 000000018005898c     governor.obj
 0004:00001998       $pdata$5$?initialize@task_scheduler_init@tbb@@QEAAXH_K@Z 0000000180058998     governor.obj
 0004:000019a4       $pdata$?terminate@task_scheduler_init@tbb@@QEAAXXZ 00000001800589a4     governor.obj
 0004:000019b0       $pdata$?default_num_threads@task_scheduler_init@tbb@@SAHXZ 00000001800589b0     governor.obj
 0004:000019bc       $pdata$??$atomic_do_once@P6A_NXZ@internal@tbb@@YAXAEBQ6A_NXZAEAU?$atomic@W4do_once_state@internal@tbb@@@1@@Z 00000001800589bc     governor.obj
 0004:000019c8       $pdata$1$??$atomic_do_once@P6A_NXZ@internal@tbb@@YAXAEBQ6A_NXZAEAU?$atomic@W4do_once_state@internal@tbb@@@1@@Z 00000001800589c8     governor.obj
 0004:000019d4       $pdata$3$??$atomic_do_once@P6A_NXZ@internal@tbb@@YAXAEBQ6A_NXZAEAU?$atomic@W4do_once_state@internal@tbb@@@1@@Z 00000001800589d4     governor.obj
 0004:000019e0       $pdata$4$??$atomic_do_once@P6A_NXZ@internal@tbb@@YAXAEBQ6A_NXZAEAU?$atomic@W4do_once_state@internal@tbb@@@1@@Z 00000001800589e0     governor.obj
 0004:000019ec       $pdata$??0market@internal@tbb@@AEAA@II_K@Z 00000001800589ec     market.obj
 0004:000019f8       $pdata$?calc_workers_soft_limit@internal@tbb@@YAIII@Z 00000001800589f8     market.obj
 0004:00001a04       $pdata$?global_market@market@internal@tbb@@CAAEAV123@_NI_K@Z 0000000180058a04     market.obj
 0004:00001a10       $pdata$?release@market@internal@tbb@@QEAAX_N@Z 0000000180058a10     market.obj
 0004:00001a1c       $pdata$?set_active_num_workers@market@internal@tbb@@SAXI@Z 0000000180058a1c     market.obj
 0004:00001a28       $pdata$?create_arena@market@internal@tbb@@SAPEAVarena@23@HH_K@Z 0000000180058a28     market.obj
 0004:00001a34       $pdata$?try_destroy_arena@market@internal@tbb@@QEAAXPEAVarena@23@_K@Z 0000000180058a34     market.obj
 0004:00001a40       $pdata$?arena_in_need@market@internal@tbb@@AEAAPEAVarena@23@PEAV423@@Z 0000000180058a40     market.obj
 0004:00001a4c       $pdata$?update_allotment@market@internal@tbb@@AEAAX_J@Z 0000000180058a4c     market.obj
 0004:00001a58       $pdata$0$?update_allotment@market@internal@tbb@@AEAAX_J@Z 0000000180058a58     market.obj
 0004:00001a64       $pdata$2$?update_allotment@market@internal@tbb@@AEAAX_J@Z 0000000180058a64     market.obj
 0004:00001a70       $pdata$3$?update_allotment@market@internal@tbb@@AEAAX_J@Z 0000000180058a70     market.obj
 0004:00001a7c       $pdata$4$?update_allotment@market@internal@tbb@@AEAAX_J@Z 0000000180058a7c     market.obj
 0004:00001a88       $pdata$?mandatory_concurrency_enable@market@internal@tbb@@QEAA_NPEAVarena@23@@Z 0000000180058a88     market.obj
 0004:00001a94       $pdata$?mandatory_concurrency_disable@market@internal@tbb@@QEAAXPEAVarena@23@@Z 0000000180058a94     market.obj
 0004:00001aa0       $pdata$0$?mandatory_concurrency_disable@market@internal@tbb@@QEAAXPEAVarena@23@@Z 0000000180058aa0     market.obj
 0004:00001aac       $pdata$1$?mandatory_concurrency_disable@market@internal@tbb@@QEAAXPEAVarena@23@@Z 0000000180058aac     market.obj
 0004:00001ab8       $pdata$?adjust_demand@market@internal@tbb@@QEAAXAEAVarena@23@H@Z 0000000180058ab8     market.obj
 0004:00001ac4       $pdata$2$?adjust_demand@market@internal@tbb@@QEAAXAEAVarena@23@H@Z 0000000180058ac4     market.obj
 0004:00001ad0       $pdata$3$?adjust_demand@market@internal@tbb@@QEAAXAEAVarena@23@H@Z 0000000180058ad0     market.obj
 0004:00001adc       $pdata$4$?adjust_demand@market@internal@tbb@@QEAAXAEAVarena@23@H@Z 0000000180058adc     market.obj
 0004:00001ae8       $pdata$5$?adjust_demand@market@internal@tbb@@QEAAXAEAVarena@23@H@Z 0000000180058ae8     market.obj
 0004:00001af4       $pdata$?process@market@internal@tbb@@EEAAXAEAVjob@rml@@@Z 0000000180058af4     market.obj
 0004:00001b00       $pdata$?cleanup@market@internal@tbb@@EEAAXAEAVjob@rml@@@Z 0000000180058b00     market.obj
 0004:00001b0c       $pdata$0$?cleanup@market@internal@tbb@@EEAAXAEAVjob@rml@@@Z 0000000180058b0c     market.obj
 0004:00001b18       $pdata$1$?cleanup@market@internal@tbb@@EEAAXAEAVjob@rml@@@Z 0000000180058b18     market.obj
 0004:00001b24       $pdata$?acknowledge_close_connection@market@internal@tbb@@EEAAXXZ 0000000180058b24     market.obj
 0004:00001b30       $pdata$?create_one_job@market@internal@tbb@@EEAAPEAVjob@rml@@XZ 0000000180058b30     market.obj
 0004:00001b3c       $pdata$?update_arena_top_priority@market@internal@tbb@@AEAAXAEAVarena@23@_J@Z 0000000180058b3c     market.obj
 0004:00001b48       $pdata$?lower_arena_priority@market@internal@tbb@@QEAA_NAEAVarena@23@_J_K@Z 0000000180058b48     market.obj
 0004:00001b54       $pdata$?update_arena_priority@market@internal@tbb@@QEAA_NAEAVarena@23@_J@Z 0000000180058b54     market.obj
 0004:00001b60       $pdata$2$?update_arena_priority@market@internal@tbb@@QEAA_NAEAVarena@23@_J@Z 0000000180058b60     market.obj
 0004:00001b6c       $pdata$3$?update_arena_priority@market@internal@tbb@@QEAA_NAEAVarena@23@_J@Z 0000000180058b6c     market.obj
 0004:00001b78       $pdata$4$?update_arena_priority@market@internal@tbb@@QEAA_NAEAVarena@23@_J@Z 0000000180058b78     market.obj
 0004:00001b84       $pdata$6$?update_arena_priority@market@internal@tbb@@QEAA_NAEAVarena@23@_J@Z 0000000180058b84     market.obj
 0004:00001b90       $pdata$7$?update_arena_priority@market@internal@tbb@@QEAA_NAEAVarena@23@_J@Z 0000000180058b90     market.obj
 0004:00001b9c       $pdata$?throw_self@tbb_exception_ptr@internal@tbb@@QEAAXXZ 0000000180058b9c     arena.obj
 0004:00001ba8       $pdata$?occupy_free_slot_in_range@arena@internal@tbb@@QEAA_KAEAVgeneric_scheduler@23@_K1@Z 0000000180058ba8     arena.obj
 0004:00001bb4       $pdata$?process@arena@internal@tbb@@QEAAXAEAVgeneric_scheduler@23@@Z 0000000180058bb4     arena.obj
 0004:00001bc0       $pdata$1$?process@arena@internal@tbb@@QEAAXAEAVgeneric_scheduler@23@@Z 0000000180058bc0     arena.obj
 0004:00001bcc       $pdata$4$?process@arena@internal@tbb@@QEAAXAEAVgeneric_scheduler@23@@Z 0000000180058bcc     arena.obj
 0004:00001bd8       $pdata$5$?process@arena@internal@tbb@@QEAAXAEAVgeneric_scheduler@23@@Z 0000000180058bd8     arena.obj
 0004:00001be4       $pdata$6$?process@arena@internal@tbb@@QEAAXAEAVgeneric_scheduler@23@@Z 0000000180058be4     arena.obj
 0004:00001bf0       $pdata$7$?process@arena@internal@tbb@@QEAAXAEAVgeneric_scheduler@23@@Z 0000000180058bf0     arena.obj
 0004:00001bfc       $pdata$??0arena@internal@tbb@@QEAA@AEAVmarket@12@II@Z 0000000180058bfc     arena.obj
 0004:00001c08       $pdata$??1?$padded@Uarena_base@internal@tbb@@$0IA@@internal@tbb@@QEAA@XZ 0000000180058c08     arena.obj
 0004:00001c14       $pdata$?allocate_arena@arena@internal@tbb@@SAAEAV123@AEAVmarket@23@II@Z 0000000180058c14     arena.obj
 0004:00001c20       $pdata$?free_arena@arena@internal@tbb@@QEAAXXZ 0000000180058c20     arena.obj
 0004:00001c2c       $pdata$?restore_priorities_if_need@arena@internal@tbb@@AEAAXXZ 0000000180058c2c     arena.obj
 0004:00001c38       $pdata$?is_out_of_work@arena@internal@tbb@@QEAA_NXZ 0000000180058c38     arena.obj
 0004:00001c44       $pdata$6$?is_out_of_work@arena@internal@tbb@@QEAA_NXZ 0000000180058c44     arena.obj
 0004:00001c50       $pdata$8$?is_out_of_work@arena@internal@tbb@@QEAA_NXZ 0000000180058c50     arena.obj
 0004:00001c5c       $pdata$9$?is_out_of_work@arena@internal@tbb@@QEAA_NXZ 0000000180058c5c     arena.obj
 0004:00001c68       $pdata$?enqueue_task@arena@internal@tbb@@QEAAXAEAVtask@3@_JAEAVFastRandom@23@@Z 0000000180058c68     arena.obj
 0004:00001c74       $pdata$??1nested_arena_context@internal@tbb@@QEAA@XZ 0000000180058c74     arena.obj
 0004:00001c80       $pdata$?nested_arena_entry@generic_scheduler@internal@tbb@@QEAAXPEAVarena@23@_KAEAUnested_arena_context@23@_N@Z 0000000180058c80     arena.obj
 0004:00001c8c       $pdata$0$?nested_arena_entry@generic_scheduler@internal@tbb@@QEAAXPEAVarena@23@_KAEAUnested_arena_context@23@_N@Z 0000000180058c8c     arena.obj
 0004:00001c98       $pdata$1$?nested_arena_entry@generic_scheduler@internal@tbb@@QEAAXPEAVarena@23@_KAEAUnested_arena_context@23@_N@Z 0000000180058c98     arena.obj
 0004:00001ca4       $pdata$?nested_arena_exit@generic_scheduler@internal@tbb@@QEAAXAEAUnested_arena_context@23@@Z 0000000180058ca4     arena.obj
 0004:00001cb0       $pdata$??1auto_empty_task@internal@tbb@@QEAA@XZ 0000000180058cb0     arena.obj
 0004:00001cbc       $pdata$?internal_initialize@task_arena_base@internal@interface7@tbb@@IEAAXXZ 0000000180058cbc     arena.obj
 0004:00001cc8       $pdata$?internal_terminate@task_arena_base@internal@interface7@tbb@@IEAAXXZ 0000000180058cc8     arena.obj
 0004:00001cd4       $pdata$?internal_attach@task_arena_base@internal@interface7@tbb@@IEAAXXZ 0000000180058cd4     arena.obj
 0004:00001ce0       $pdata$?internal_enqueue@task_arena_base@internal@interface7@tbb@@IEBAXAEAVtask@4@_J@Z 0000000180058ce0     arena.obj
 0004:00001cec       $pdata$?execute@delegated_task@internal@interface7@tbb@@EEAAPEAVtask@4@XZ 0000000180058cec     arena.obj
 0004:00001cf8       $pdata$??_Gdelegated_task@internal@interface7@tbb@@EEAAPEAXI@Z 0000000180058cf8     arena.obj
 0004:00001d04       $pdata$?internal_execute@task_arena_base@internal@interface7@tbb@@IEBAXAEAVdelegate_base@234@@Z 0000000180058d04     arena.obj
 0004:00001d10       $pdata$?execute@wait_task@internal@interface7@tbb@@EEAAPEAVtask@4@XZ 0000000180058d10     arena.obj
 0004:00001d1c       $pdata$??_Gwait_task@internal@interface7@tbb@@UEAAPEAXI@Z 0000000180058d1c     arena.obj
 0004:00001d28       $pdata$?internal_wait@task_arena_base@internal@interface7@tbb@@IEBAXXZ 0000000180058d28     arena.obj
 0004:00001d34       $pdata$?internal_current_slot@task_arena_base@internal@interface7@tbb@@KAHXZ 0000000180058d34     arena.obj
 0004:00001d40       $pdata$?push@?$task_stream@$02@internal@tbb@@QEAAXPEAVtask@3@HAEAVFastRandom@23@@Z 0000000180058d40     arena.obj
 0004:00001d4c       $pdata$??1?$task_stream@$02@internal@tbb@@QEAA@XZ 0000000180058d4c     arena.obj
 0004:00001d58       $pdata$?initialize@?$task_stream@$02@internal@tbb@@QEAAXI@Z 0000000180058d58     arena.obj
 0004:00001d64       $pdata$??0?$padded@U?$queue_and_mutex@PEAVtask@tbb@@Vspin_mutex@2@@internal@tbb@@$0IA@@internal@tbb@@QEAA@XZ 0000000180058d64     arena.obj
 0004:00001d70       $pdata$??1?$padded@U?$queue_and_mutex@PEAVtask@tbb@@Vspin_mutex@2@@internal@tbb@@$0IA@@internal@tbb@@QEAA@XZ 0000000180058d70     arena.obj
 0004:00001d7c       $pdata$?_Growmap@?$deque@PEAVtask@tbb@@V?$tbb_allocator@PEAVtask@tbb@@@2@@std@@IEAAX_K@Z 0000000180058d7c     arena.obj
 0004:00001d88       $pdata$0$?_Growmap@?$deque@PEAVtask@tbb@@V?$tbb_allocator@PEAVtask@tbb@@@2@@std@@IEAAX_K@Z 0000000180058d88     arena.obj
 0004:00001d94       $pdata$1$?_Growmap@?$deque@PEAVtask@tbb@@V?$tbb_allocator@PEAVtask@tbb@@@2@@std@@IEAAX_K@Z 0000000180058d94     arena.obj
 0004:00001da0       $pdata$2$?_Growmap@?$deque@PEAVtask@tbb@@V?$tbb_allocator@PEAVtask@tbb@@@2@@std@@IEAAX_K@Z 0000000180058da0     arena.obj
 0004:00001dac       $pdata$3$?_Growmap@?$deque@PEAVtask@tbb@@V?$tbb_allocator@PEAVtask@tbb@@@2@@std@@IEAAX_K@Z 0000000180058dac     arena.obj
 0004:00001db8       $pdata$?_Tidy@?$deque@PEAVtask@tbb@@V?$tbb_allocator@PEAVtask@tbb@@@2@@std@@IEAAXXZ 0000000180058db8     arena.obj
 0004:00001dc4       $pdata$??$advertise_new_work@$01@arena@internal@tbb@@QEAAXXZ 0000000180058dc4     arena.obj
 0004:00001dd0       $pdata$??$on_thread_leaving@$00@arena@internal@tbb@@QEAAXXZ 0000000180058dd0     arena.obj
 0004:00001ddc       $pdata$0$??$on_thread_leaving@$00@arena@internal@tbb@@QEAAXXZ 0000000180058ddc     arena.obj
 0004:00001de8       $pdata$1$??$on_thread_leaving@$00@arena@internal@tbb@@QEAAXXZ 0000000180058de8     arena.obj
 0004:00001df4       $pdata$??$notify_relaxed@Vdelegated_task@internal@interface7@tbb@@@concurrent_monitor@internal@tbb@@QEAAXAEBVdelegated_task@1interface7@2@@Z 0000000180058df4     arena.obj
 0004:00001e00       $pdata$0$??$notify_relaxed@Vdelegated_task@internal@interface7@tbb@@@concurrent_monitor@internal@tbb@@QEAAXAEBVdelegated_task@1interface7@2@@Z 0000000180058e00     arena.obj
 0004:00001e0c       $pdata$1$??$notify_relaxed@Vdelegated_task@internal@interface7@tbb@@@concurrent_monitor@internal@tbb@@QEAAXAEBVdelegated_task@1interface7@2@@Z 0000000180058e0c     arena.obj
 0004:00001e18       $pdata$2$??$notify_relaxed@Vdelegated_task@internal@interface7@tbb@@@concurrent_monitor@internal@tbb@@QEAAXAEBVdelegated_task@1interface7@2@@Z 0000000180058e18     arena.obj
 0004:00001e24       $pdata$3$??$notify_relaxed@Vdelegated_task@internal@interface7@tbb@@@concurrent_monitor@internal@tbb@@QEAAXAEBVdelegated_task@1interface7@2@@Z 0000000180058e24     arena.obj
 0004:00001e30       $pdata$4$??$notify_relaxed@Vdelegated_task@internal@interface7@tbb@@@concurrent_monitor@internal@tbb@@QEAAXAEBVdelegated_task@1interface7@2@@Z 0000000180058e30     arena.obj
 0004:00001e3c       $pdata$5$??$notify_relaxed@Vdelegated_task@internal@interface7@tbb@@@concurrent_monitor@internal@tbb@@QEAAXAEBVdelegated_task@1interface7@2@@Z 0000000180058e3c     arena.obj
 0004:00001e48       $pdata$??$occupy_free_slot@$0A@@arena@internal@tbb@@QEAA_KAEAVgeneric_scheduler@12@@Z 0000000180058e48     arena.obj
 0004:00001e54       $pdata$?allocate_task_pool@arena_slot@internal@tbb@@QEAAX_K@Z 0000000180058e54     scheduler.obj
 0004:00001e60       $pdata$?internal_pop@mail_outbox@internal@tbb@@AEAAPEAUtask_proxy@23@XZ 0000000180058e60     scheduler.obj
 0004:00001e6c       $pdata$0$?internal_pop@mail_outbox@internal@tbb@@AEAAPEAUtask_proxy@23@XZ 0000000180058e6c     scheduler.obj
 0004:00001e78       $pdata$2$?internal_pop@mail_outbox@internal@tbb@@AEAAPEAUtask_proxy@23@XZ 0000000180058e78     scheduler.obj
 0004:00001e84       $pdata$3$?internal_pop@mail_outbox@internal@tbb@@AEAAPEAUtask_proxy@23@XZ 0000000180058e84     scheduler.obj
 0004:00001e90       $pdata$4$?internal_pop@mail_outbox@internal@tbb@@AEAAPEAUtask_proxy@23@XZ 0000000180058e90     scheduler.obj
 0004:00001e9c       $pdata$?commit_relocated_tasks@generic_scheduler@internal@tbb@@QEAAX_K@Z 0000000180058e9c     scheduler.obj
 0004:00001ea8       $pdata$??0generic_scheduler@internal@tbb@@IEAA@AEAVmarket@12@@Z 0000000180058ea8     scheduler.obj
 0004:00001eb4       $pdata$??_G?$custom_scheduler@UIntelSchedulerTraits@internal@tbb@@@internal@tbb@@UEAAPEAXI@Z 0000000180058eb4     scheduler.obj
 0004:00001eb4       $pdata$??_G?$custom_scheduler@UDefaultSchedulerTraits@internal@tbb@@@internal@tbb@@UEAAPEAXI@Z 0000000180058eb4     scheduler.obj
 0004:00001eb4       $pdata$??_Ggeneric_scheduler@internal@tbb@@UEAAPEAXI@Z 0000000180058eb4     scheduler.obj
 0004:00001ec0       $pdata$?cleanup_local_context_list@generic_scheduler@internal@tbb@@QEAAXXZ 0000000180058ec0     scheduler.obj
 0004:00001ecc       $pdata$1$?cleanup_local_context_list@generic_scheduler@internal@tbb@@QEAAXXZ 0000000180058ecc     scheduler.obj
 0004:00001ed8       $pdata$2$?cleanup_local_context_list@generic_scheduler@internal@tbb@@QEAAXXZ 0000000180058ed8     scheduler.obj
 0004:00001ee4       $pdata$3$?cleanup_local_context_list@generic_scheduler@internal@tbb@@QEAAXXZ 0000000180058ee4     scheduler.obj
 0004:00001ef0       $pdata$4$?cleanup_local_context_list@generic_scheduler@internal@tbb@@QEAAXXZ 0000000180058ef0     scheduler.obj
 0004:00001efc       $pdata$?free_scheduler@generic_scheduler@internal@tbb@@QEAAXXZ 0000000180058efc     scheduler.obj
 0004:00001f08       $pdata$?allocate_task@generic_scheduler@internal@tbb@@QEAAAEAVtask@3@_KPEAV43@PEAVtask_group_context@3@@Z 0000000180058f08     scheduler.obj
 0004:00001f14       $pdata$?free_nonlocal_small_task@generic_scheduler@internal@tbb@@QEAAXAEAVtask@3@@Z 0000000180058f14     scheduler.obj
 0004:00001f20       $pdata$?prepare_task_pool@generic_scheduler@internal@tbb@@QEAA_K_K@Z 0000000180058f20     scheduler.obj
 0004:00001f2c       $pdata$1$?prepare_task_pool@generic_scheduler@internal@tbb@@QEAA_K_K@Z 0000000180058f2c     scheduler.obj
 0004:00001f38       $pdata$3$?prepare_task_pool@generic_scheduler@internal@tbb@@QEAA_K_K@Z 0000000180058f38     scheduler.obj
 0004:00001f44       $pdata$4$?prepare_task_pool@generic_scheduler@internal@tbb@@QEAA_K_K@Z 0000000180058f44     scheduler.obj
 0004:00001f50       $pdata$5$?prepare_task_pool@generic_scheduler@internal@tbb@@QEAA_K_K@Z 0000000180058f50     scheduler.obj
 0004:00001f5c       $pdata$?acquire_task_pool@generic_scheduler@internal@tbb@@QEBAXXZ 0000000180058f5c     scheduler.obj
 0004:00001f68       $pdata$2$?acquire_task_pool@generic_scheduler@internal@tbb@@QEBAXXZ 0000000180058f68     scheduler.obj
 0004:00001f74       $pdata$3$?acquire_task_pool@generic_scheduler@internal@tbb@@QEBAXXZ 0000000180058f74     scheduler.obj
 0004:00001f80       $pdata$?release_task_pool@generic_scheduler@internal@tbb@@QEBAXXZ 0000000180058f80     scheduler.obj
 0004:00001f8c       $pdata$?lock_task_pool@generic_scheduler@internal@tbb@@QEBAPEAPEAVtask@3@PEAUarena_slot@23@@Z 0000000180058f8c     scheduler.obj
 0004:00001f98       $pdata$0$?lock_task_pool@generic_scheduler@internal@tbb@@QEBAPEAPEAVtask@3@PEAUarena_slot@23@@Z 0000000180058f98     scheduler.obj
 0004:00001fa4       $pdata$2$?lock_task_pool@generic_scheduler@internal@tbb@@QEBAPEAPEAVtask@3@PEAUarena_slot@23@@Z 0000000180058fa4     scheduler.obj
 0004:00001fb0       $pdata$3$?lock_task_pool@generic_scheduler@internal@tbb@@QEBAPEAPEAVtask@3@PEAUarena_slot@23@@Z 0000000180058fb0     scheduler.obj
 0004:00001fbc       $pdata$?prepare_for_spawning@generic_scheduler@internal@tbb@@QEAAPEAVtask@3@PEAV43@@Z 0000000180058fbc     scheduler.obj
 0004:00001fc8       $pdata$1$?prepare_for_spawning@generic_scheduler@internal@tbb@@QEAAPEAVtask@3@PEAV43@@Z 0000000180058fc8     scheduler.obj
 0004:00001fd4       $pdata$2$?prepare_for_spawning@generic_scheduler@internal@tbb@@QEAAPEAVtask@3@PEAV43@@Z 0000000180058fd4     scheduler.obj
 0004:00001fe0       $pdata$?local_spawn@generic_scheduler@internal@tbb@@QEAAXAEAVtask@3@AEAPEAV43@@Z 0000000180058fe0     scheduler.obj
 0004:00001fec       $pdata$?local_spawn_root_and_wait@generic_scheduler@internal@tbb@@QEAAXAEAVtask@3@AEAPEAV43@@Z 0000000180058fec     scheduler.obj
 0004:00001ff8       $pdata$?spawn@generic_scheduler@internal@tbb@@UEAAXAEAVtask@3@AEAPEAV43@@Z 0000000180058ff8     scheduler.obj
 0004:00002004       $pdata$?spawn_root_and_wait@generic_scheduler@internal@tbb@@UEAAXAEAVtask@3@AEAPEAV43@@Z 0000000180059004     scheduler.obj
 0004:00002010       $pdata$?enqueue@generic_scheduler@internal@tbb@@UEAAXAEAVtask@3@PEAX@Z 0000000180059010     scheduler.obj
 0004:0000201c       $pdata$?winnow_task_pool@generic_scheduler@internal@tbb@@QEAAPEAVtask@3@XZ 000000018005901c     scheduler.obj
 0004:00002028       $pdata$?reload_tasks@generic_scheduler@internal@tbb@@QEAAPEAVtask@3@AEAPEAV43@AEAPEAPEAV43@_J@Z 0000000180059028     scheduler.obj
 0004:00002034       $pdata$?reload_tasks@generic_scheduler@internal@tbb@@QEAAPEAVtask@3@XZ 0000000180059034     scheduler.obj
 0004:00002040       $pdata$2$?reload_tasks@generic_scheduler@internal@tbb@@QEAAPEAVtask@3@XZ 0000000180059040     scheduler.obj
 0004:0000204c       $pdata$3$?reload_tasks@generic_scheduler@internal@tbb@@QEAAPEAVtask@3@XZ 000000018005904c     scheduler.obj
 0004:00002058       $pdata$?get_task@generic_scheduler@internal@tbb@@QEAAPEAVtask@3@XZ 0000000180059058     scheduler.obj
 0004:00002064       $pdata$?steal_task@generic_scheduler@internal@tbb@@QEAAPEAVtask@3@AEAUarena_slot@23@@Z 0000000180059064     scheduler.obj
 0004:00002070       $pdata$1$?steal_task@generic_scheduler@internal@tbb@@QEAAPEAVtask@3@AEAUarena_slot@23@@Z 0000000180059070     scheduler.obj
 0004:0000207c       $pdata$4$?steal_task@generic_scheduler@internal@tbb@@QEAAPEAVtask@3@AEAUarena_slot@23@@Z 000000018005907c     scheduler.obj
 0004:00002088       $pdata$5$?steal_task@generic_scheduler@internal@tbb@@QEAAPEAVtask@3@AEAUarena_slot@23@@Z 0000000180059088     scheduler.obj
 0004:00002094       $pdata$6$?steal_task@generic_scheduler@internal@tbb@@QEAAPEAVtask@3@AEAUarena_slot@23@@Z 0000000180059094     scheduler.obj
 0004:000020a0       $pdata$8$?steal_task@generic_scheduler@internal@tbb@@QEAAPEAVtask@3@AEAUarena_slot@23@@Z 00000001800590a0     scheduler.obj
 0004:000020ac       $pdata$?get_mailbox_task@generic_scheduler@internal@tbb@@QEAAPEAVtask@3@XZ 00000001800590ac     scheduler.obj
 0004:000020b8       $pdata$?leave_task_pool@generic_scheduler@internal@tbb@@QEAAXXZ 00000001800590b8     scheduler.obj
 0004:000020c4       $pdata$?create_master@generic_scheduler@internal@tbb@@SAPEAV123@PEAVarena@23@@Z 00000001800590c4     scheduler.obj
 0004:000020d0       $pdata$?cleanup_master@generic_scheduler@internal@tbb@@QEAAX_N@Z 00000001800590d0     scheduler.obj
 0004:000020dc       $pdata$?copy_memory@?$fast_reverse_vector@PEAVtask@tbb@@$0BA@@internal@tbb@@QEBAXPEAPEAVtask@3@@Z 00000001800590dc     scheduler.obj
 0004:000020e8       $pdata$0$?copy_memory@?$fast_reverse_vector@PEAVtask@tbb@@$0BA@@internal@tbb@@QEBAXPEAPEAVtask@3@@Z 00000001800590e8     scheduler.obj
 0004:000020f4       $pdata$1$?copy_memory@?$fast_reverse_vector@PEAVtask@tbb@@$0BA@@internal@tbb@@QEBAXPEAPEAVtask@3@@Z 00000001800590f4     scheduler.obj
 0004:00002100       $pdata$??1?$fast_reverse_vector@PEAVtask@tbb@@$0BA@@internal@tbb@@QEAA@XZ 0000000180059100     scheduler.obj
 0004:0000210c       $pdata$?allocate_scheduler@?$custom_scheduler@UIntelSchedulerTraits@internal@tbb@@@internal@tbb@@SAPEAVgeneric_scheduler@23@AEAVmarket@23@@Z 000000018005910c     scheduler.obj
 0004:00002118       $pdata$?wait_for_all@?$custom_scheduler@UIntelSchedulerTraits@internal@tbb@@@internal@tbb@@EEAAXAEAVtask@3@PEAV43@@Z 0000000180059118     scheduler.obj
 0004:00002124       $pdata$?allocate_scheduler@?$custom_scheduler@UDefaultSchedulerTraits@internal@tbb@@@internal@tbb@@SAPEAVgeneric_scheduler@23@AEAVmarket@23@@Z 0000000180059124     scheduler.obj
 0004:00002130       $pdata$?wait_for_all@?$custom_scheduler@UDefaultSchedulerTraits@internal@tbb@@@internal@tbb@@EEAAXAEAVtask@3@PEAV43@@Z 0000000180059130     scheduler.obj
 0004:0000213c       $pdata$?local_wait_for_all@?$custom_scheduler@UDefaultSchedulerTraits@internal@tbb@@@internal@tbb@@EEAAXAEAVtask@3@PEAV43@@Z 000000018005913c     scheduler.obj
 0004:00002148       $pdata$?receive_or_steal_task@?$custom_scheduler@UDefaultSchedulerTraits@internal@tbb@@@internal@tbb@@UEAAPEAVtask@3@AEA_J@Z 0000000180059148     scheduler.obj
 0004:00002154       $pdata$?local_wait_for_all@?$custom_scheduler@UIntelSchedulerTraits@internal@tbb@@@internal@tbb@@EEAAXAEAVtask@3@PEAV43@@Z 0000000180059154     scheduler.obj
 0004:00002160       $pdata$?receive_or_steal_task@?$custom_scheduler@UIntelSchedulerTraits@internal@tbb@@@internal@tbb@@UEAAPEAVtask@3@AEA_J@Z 0000000180059160     scheduler.obj
 0004:0000216c       $pdata$??$advertise_new_work@$0A@@arena@internal@tbb@@QEAAXXZ 000000018005916c     scheduler.obj
 0004:00002178       $pdata$?tally_completion_of_predecessor@?$custom_scheduler@UIntelSchedulerTraits@internal@tbb@@@internal@tbb@@AEAAXAEAVtask@3@AEAPEAV43@@Z 0000000180059178     scheduler.obj
 0004:00002184       $pdata$0$?tally_completion_of_predecessor@?$custom_scheduler@UIntelSchedulerTraits@internal@tbb@@@internal@tbb@@AEAAXAEAVtask@3@AEAPEAV43@@Z 0000000180059184     scheduler.obj
 0004:00002190       $pdata$1$?tally_completion_of_predecessor@?$custom_scheduler@UIntelSchedulerTraits@internal@tbb@@@internal@tbb@@AEAAXAEAVtask@3@AEAPEAV43@@Z 0000000180059190     scheduler.obj
 0004:0000219c       $pdata$?tally_completion_of_predecessor@?$custom_scheduler@UDefaultSchedulerTraits@internal@tbb@@@internal@tbb@@AEAAXAEAVtask@3@AEAPEAV43@@Z 000000018005919c     scheduler.obj
 0004:000021a8       $pdata$?pop@?$task_stream@$02@internal@tbb@@QEAAPEAVtask@3@HAEAI@Z 00000001800591a8     scheduler.obj
 0004:000021b4       $pdata$?clear@observer_list@internal@tbb@@QEAAXXZ 00000001800591b4     observer_proxy.obj
 0004:000021c0       $pdata$0$?clear@observer_list@internal@tbb@@QEAAXXZ 00000001800591c0     observer_proxy.obj
 0004:000021cc       $pdata$1$?clear@observer_list@internal@tbb@@QEAAXXZ 00000001800591cc     observer_proxy.obj
 0004:000021d8       $pdata$2$?clear@observer_list@internal@tbb@@QEAAXXZ 00000001800591d8     observer_proxy.obj
 0004:000021e4       $pdata$3$?clear@observer_list@internal@tbb@@QEAAXXZ 00000001800591e4     observer_proxy.obj
 0004:000021f0       $pdata$?insert@observer_list@internal@tbb@@QEAAXPEAVobserver_proxy@23@@Z 00000001800591f0     observer_proxy.obj
 0004:000021fc       $pdata$?remove_ref@observer_list@internal@tbb@@QEAAXPEAVobserver_proxy@23@@Z 00000001800591fc     observer_proxy.obj
 0004:00002208       $pdata$0$?remove_ref@observer_list@internal@tbb@@QEAAXPEAVobserver_proxy@23@@Z 0000000180059208     observer_proxy.obj
 0004:00002214       $pdata$1$?remove_ref@observer_list@internal@tbb@@QEAAXPEAVobserver_proxy@23@@Z 0000000180059214     observer_proxy.obj
 0004:00002220       $pdata$?do_notify_entry_observers@observer_list@internal@tbb@@AEAAXAEAPEAVobserver_proxy@23@_N@Z 0000000180059220     observer_proxy.obj
 0004:0000222c       $pdata$?do_notify_exit_observers@observer_list@internal@tbb@@AEAAXPEAVobserver_proxy@23@_N@Z 000000018005922c     observer_proxy.obj
 0004:00002238       $pdata$?observe@task_scheduler_observer_v3@internal@tbb@@QEAAX_N@Z 0000000180059238     observer_proxy.obj
 0004:00002244       $pdata$0$?observe@task_scheduler_observer_v3@internal@tbb@@QEAAX_N@Z 0000000180059244     observer_proxy.obj
 0004:00002250       $pdata$1$?observe@task_scheduler_observer_v3@internal@tbb@@QEAAX_N@Z 0000000180059250     observer_proxy.obj
 0004:0000225c       $pdata$2$?observe@task_scheduler_observer_v3@internal@tbb@@QEAAX_N@Z 000000018005925c     observer_proxy.obj
 0004:00002268       $pdata$3$?observe@task_scheduler_observer_v3@internal@tbb@@QEAAX_N@Z 0000000180059268     observer_proxy.obj
 0004:00002274       $pdata$?max_num_workers@market@internal@tbb@@SAIXZ 0000000180059274     tbb_main.obj
 0004:00002280       $pdata$?add_ref@__TBB_InitOnce@internal@tbb@@SAXXZ 0000000180059280     tbb_main.obj
 0004:0000228c       $pdata$0$?add_ref@__TBB_InitOnce@internal@tbb@@SAXXZ 000000018005928c     tbb_main.obj
 0004:00002298       $pdata$1$?add_ref@__TBB_InitOnce@internal@tbb@@SAXXZ 0000000180059298     tbb_main.obj
 0004:000022a4       $pdata$ITT_DoOneTimeInitialization 00000001800592a4     tbb_main.obj
 0004:000022b0       $pdata$?DoOneTimeInitializations@internal@tbb@@YAXXZ 00000001800592b0     tbb_main.obj
 0004:000022bc       $pdata$DllMain             00000001800592bc     tbb_main.obj
 0004:000022c8       $pdata$?itt_store_pointer_with_release_v3@internal@tbb@@YAXPEAX0@Z 00000001800592c8     tbb_main.obj
 0004:000022d4       $pdata$?itt_load_pointer_with_acquire_v3@internal@tbb@@YAPEAXPEBX@Z 00000001800592d4     tbb_main.obj
 0004:000022e0       $pdata$?default_value@allowed_parallelism_control@internal@tbb@@EEBA_KXZ 00000001800592e0     tbb_main.obj
 0004:000022ec       $pdata$?active_value@allowed_parallelism_control@internal@tbb@@EEBA_KXZ 00000001800592ec     tbb_main.obj
 0004:000022f8       $pdata$?internal_create@global_control@interface9@tbb@@AEAAXXZ 00000001800592f8     tbb_main.obj
 0004:00002304       $pdata$?internal_destroy@global_control@interface9@tbb@@AEAAXXZ 0000000180059304     tbb_main.obj
 0004:00002310       $pdata$?active_value@global_control@interface9@tbb@@CA_KH@Z 0000000180059310     tbb_main.obj
 0004:0000231c       $pdata$?internal_grow_to_at_least@concurrent_vector_base@internal@tbb@@IEAAX_K0P6AXPEAX0@Z@Z 000000018005931c     concurrent_vector_v2.obj
 0004:00002328       $pdata$?extend_segment@helper@concurrent_vector_base@internal@tbb@@CAXAEAV234@@Z 0000000180059328     concurrent_vector_v2.obj
 0004:00002334       $pdata$?internal_reserve@concurrent_vector_base@internal@tbb@@IEAAX_K00@Z 0000000180059334     concurrent_vector_v2.obj
 0004:00002340       $pdata$3$?internal_reserve@concurrent_vector_base@internal@tbb@@IEAAX_K00@Z 0000000180059340     concurrent_vector_v2.obj
 0004:0000234c       $pdata$4$?internal_reserve@concurrent_vector_base@internal@tbb@@IEAAX_K00@Z 000000018005934c     concurrent_vector_v2.obj
 0004:00002358       $pdata$5$?internal_reserve@concurrent_vector_base@internal@tbb@@IEAAX_K00@Z 0000000180059358     concurrent_vector_v2.obj
 0004:00002364       $pdata$6$?internal_reserve@concurrent_vector_base@internal@tbb@@IEAAX_K00@Z 0000000180059364     concurrent_vector_v2.obj
 0004:00002370       $pdata$?internal_copy@concurrent_vector_base@internal@tbb@@IEAAXAEBV123@_KP6AXPEAXPEBX1@Z@Z 0000000180059370     concurrent_vector_v2.obj
 0004:0000237c       $pdata$1$?internal_copy@concurrent_vector_base@internal@tbb@@IEAAXAEBV123@_KP6AXPEAXPEBX1@Z@Z 000000018005937c     concurrent_vector_v2.obj
 0004:00002388       $pdata$3$?internal_copy@concurrent_vector_base@internal@tbb@@IEAAXAEBV123@_KP6AXPEAXPEBX1@Z@Z 0000000180059388     concurrent_vector_v2.obj
 0004:00002394       $pdata$4$?internal_copy@concurrent_vector_base@internal@tbb@@IEAAXAEBV123@_KP6AXPEAXPEBX1@Z@Z 0000000180059394     concurrent_vector_v2.obj
 0004:000023a0       $pdata$5$?internal_copy@concurrent_vector_base@internal@tbb@@IEAAXAEBV123@_KP6AXPEAXPEBX1@Z@Z 00000001800593a0     concurrent_vector_v2.obj
 0004:000023ac       $pdata$?internal_assign@concurrent_vector_base@internal@tbb@@IEAAXAEBV123@_KP6AXPEAX1@ZP6AX2PEBX1@Z5@Z 00000001800593ac     concurrent_vector_v2.obj
 0004:000023b8       $pdata$1$?internal_assign@concurrent_vector_base@internal@tbb@@IEAAXAEBV123@_KP6AXPEAX1@ZP6AX2PEBX1@Z5@Z 00000001800593b8     concurrent_vector_v2.obj
 0004:000023c4       $pdata$2$?internal_assign@concurrent_vector_base@internal@tbb@@IEAAXAEBV123@_KP6AXPEAX1@ZP6AX2PEBX1@Z5@Z 00000001800593c4     concurrent_vector_v2.obj
 0004:000023d0       $pdata$?internal_push_back@concurrent_vector_base@internal@tbb@@IEAAPEAX_KAEA_K@Z 00000001800593d0     concurrent_vector_v2.obj
 0004:000023dc       $pdata$?internal_grow_by@concurrent_vector_base@internal@tbb@@IEAA_K_K0P6AXPEAX0@Z@Z 00000001800593dc     concurrent_vector_v2.obj
 0004:000023e8       $pdata$?internal_grow@concurrent_vector_base@internal@tbb@@IEAAX_K00P6AXPEAX0@Z@Z 00000001800593e8     concurrent_vector_v2.obj
 0004:000023f4       $pdata$?internal_clear@concurrent_vector_base@internal@tbb@@IEAAXP6AXPEAX_K@Z_N@Z 00000001800593f4     concurrent_vector_v2.obj
 0004:00002400       $pdata$0$?internal_clear@concurrent_vector_base@internal@tbb@@IEAAXP6AXPEAX_K@Z_N@Z 0000000180059400     concurrent_vector_v2.obj
 0004:0000240c       $pdata$1$?internal_clear@concurrent_vector_base@internal@tbb@@IEAAXP6AXPEAX_K@Z_N@Z 000000018005940c     concurrent_vector_v2.obj
 0004:00002418       $pdata$2$?internal_clear@concurrent_vector_base@internal@tbb@@IEAAXP6AXPEAX_K@Z_N@Z 0000000180059418     concurrent_vector_v2.obj
 0004:00002424       $pdata$3$?internal_clear@concurrent_vector_base@internal@tbb@@IEAAXP6AXPEAX_K@Z_N@Z 0000000180059424     concurrent_vector_v2.obj
 0004:00002430       $pdata$??1pop_finalizer@micro_queue@internal@tbb@@QEAA@XZ 0000000180059430     concurrent_queue_v2.obj
 0004:0000243c       $pdata$0$??1pop_finalizer@micro_queue@internal@tbb@@QEAA@XZ 000000018005943c     concurrent_queue_v2.obj
 0004:00002448       $pdata$3$??1pop_finalizer@micro_queue@internal@tbb@@QEAA@XZ 0000000180059448     concurrent_queue_v2.obj
 0004:00002454       $pdata$4$??1pop_finalizer@micro_queue@internal@tbb@@QEAA@XZ 0000000180059454     concurrent_queue_v2.obj
 0004:00002460       $pdata$5$??1pop_finalizer@micro_queue@internal@tbb@@QEAA@XZ 0000000180059460     concurrent_queue_v2.obj
 0004:0000246c       $pdata$6$??1pop_finalizer@micro_queue@internal@tbb@@QEAA@XZ 000000018005946c     concurrent_queue_v2.obj
 0004:00002478       $pdata$?push@micro_queue@internal@tbb@@QEAAXPEBX_KAEAVconcurrent_queue_base@23@@Z 0000000180059478     concurrent_queue_v2.obj
 0004:00002484       $pdata$?pop@micro_queue@internal@tbb@@QEAA_NPEAX_KAEAVconcurrent_queue_base@23@@Z 0000000180059484     concurrent_queue_v2.obj
 0004:00002490       $pdata$??0concurrent_queue_base@internal@tbb@@IEAA@_K@Z 0000000180059490     concurrent_queue_v2.obj
 0004:0000249c       $pdata$??_Gconcurrent_queue_base@internal@tbb@@MEAAPEAXI@Z 000000018005949c     concurrent_queue_v2.obj
 0004:000024a8       $pdata$??1concurrent_queue_base@internal@tbb@@MEAA@XZ 00000001800594a8     concurrent_queue_v2.obj
 0004:000024b4       $pdata$?internal_push@concurrent_queue_base@internal@tbb@@IEAAXPEBX@Z 00000001800594b4     concurrent_queue_v2.obj
 0004:000024c0       $pdata$?internal_pop@concurrent_queue_base@internal@tbb@@IEAAXPEAX@Z 00000001800594c0     concurrent_queue_v2.obj
 0004:000024cc       $pdata$?internal_pop_if_present@concurrent_queue_base@internal@tbb@@IEAA_NPEAX@Z 00000001800594cc     concurrent_queue_v2.obj
 0004:000024d8       $pdata$?internal_push_if_not_full@concurrent_queue_base@internal@tbb@@IEAA_NPEBX@Z 00000001800594d8     concurrent_queue_v2.obj
 0004:000024e4       $pdata$??0concurrent_queue_iterator_base@internal@tbb@@IEAA@AEBVconcurrent_queue_base@12@@Z 00000001800594e4     concurrent_queue_v2.obj
 0004:000024f0       $pdata$?assign@concurrent_queue_iterator_base@internal@tbb@@IEAAXAEBV123@@Z 00000001800594f0     concurrent_queue_v2.obj
 0004:000024fc       $pdata$??1concurrent_queue_iterator_base@internal@tbb@@IEAA@XZ 00000001800594fc     concurrent_queue_v2.obj
 0004:00002508       $pdata$?internal_release_writer@spin_rw_mutex@tbb@@CAXPEAV12@@Z 0000000180059508     spin_rw_mutex_v2.obj
 0004:00002514       $pdata$?internal_acquire_reader@spin_rw_mutex@tbb@@CAXPEAV12@@Z 0000000180059514     spin_rw_mutex_v2.obj
 0004:00002520       $pdata$?internal_upgrade@spin_rw_mutex@tbb@@CA_NPEAV12@@Z 0000000180059520     spin_rw_mutex_v2.obj
 0004:0000252c       $pdata$0$?internal_upgrade@spin_rw_mutex@tbb@@CA_NPEAV12@@Z 000000018005952c     spin_rw_mutex_v2.obj
 0004:00002538       $pdata$1$?internal_upgrade@spin_rw_mutex@tbb@@CA_NPEAV12@@Z 0000000180059538     spin_rw_mutex_v2.obj
 0004:00002544       $pdata$?internal_downgrade@spin_rw_mutex@tbb@@CAXPEAV12@@Z 0000000180059544     spin_rw_mutex_v2.obj
 0004:00002550       $pdata$?internal_try_acquire_reader@spin_rw_mutex@tbb@@CA_NPEAV12@@Z 0000000180059550     spin_rw_mutex_v2.obj
 0004:0000255c       $pdata$??$?0AEAPEAUEHExceptionRecord@@_N@?$_Ref_count_obj_alloc@V__ExceptionPtr@@U?$_StaticAllocator@H@@@std@@QEAA@AEBU?$_StaticAllocator@H@@AEAPEAUEHExceptionRecord@@$$QEA_N@Z 000000018005955c     libcpmt:excptptr.obj
 0004:00002568       $pdata$??$allocate_shared@V__ExceptionPtr@@U?$_StaticAllocator@H@@AEAPEAUEHExceptionRecord@@_N@std@@YA?AV?$shared_ptr@V__ExceptionPtr@@@0@AEBU?$_StaticAllocator@H@@AEAPEAUEHExceptionRecord@@$$QEA_N@Z 0000000180059568     libcpmt:excptptr.obj
 0004:00002574       $pdata$??$make_shared@V__ExceptionPtr@@AEAPEAUEHExceptionRecord@@_N@std@@YA?AV?$shared_ptr@V__ExceptionPtr@@@0@AEAPEAUEHExceptionRecord@@$$QEA_N@Z 0000000180059574     libcpmt:excptptr.obj
 0004:00002580       $pdata$??0__ExceptionPtr@@QEAA@PEBUEHExceptionRecord@@_N@Z 0000000180059580     libcpmt:excptptr.obj
 0004:0000258c       $pdata$??0bad_exception@std@@QEAA@AEBV01@@Z 000000018005958c     libcpmt:excptptr.obj
 0004:00002598       $pdata$??1__ExceptionPtr@@QEAA@XZ 0000000180059598     libcpmt:excptptr.obj
 0004:000025a4       $pdata$??4?$shared_ptr@V__ExceptionPtr@@@std@@QEAAAEAV01@$$QEAV01@@Z 00000001800595a4     libcpmt:excptptr.obj
 0004:000025b0       $pdata$??_G?$_Ref_count_obj@V__ExceptionPtr@@@std@@UEAAPEAXI@Z 00000001800595b0     libcpmt:excptptr.obj
 0004:000025b0       $pdata$??_G?$_Ref_count_obj_alloc@V__ExceptionPtr@@U?$_StaticAllocator@H@@@std@@UEAAPEAXI@Z 00000001800595b0     libcpmt:excptptr.obj
 0004:000025bc       $pdata$??_G?$shared_ptr@V__ExceptionPtr@@@std@@QEAAPEAXI@Z 00000001800595bc     libcpmt:excptptr.obj
 0004:000025c8       $pdata$??_G_Ref_count_base@std@@UEAAPEAXI@Z 00000001800595c8     libcpmt:excptptr.obj
 0004:000025d4       $pdata$?_CallCopyCtor@__ExceptionPtr@@AEBAXPEAX0_KQEBU_s_CatchableType@@@Z 00000001800595d4     libcpmt:excptptr.obj
 0004:000025e0       $pdata$?_CopyException@__ExceptionPtr@@SA?AV?$shared_ptr@V__ExceptionPtr@@@std@@PEBXPEBU_s_ThrowInfo@@_N@Z 00000001800595e0     libcpmt:excptptr.obj
 0004:000025ec       $pdata$?_CurrentException@__ExceptionPtr@@SA?AV?$shared_ptr@V__ExceptionPtr@@@std@@XZ 00000001800595ec     libcpmt:excptptr.obj
 0004:000025f8       $pdata$?_Delete_this@?$_Ref_count_obj@V__ExceptionPtr@@@std@@EEAAXXZ 00000001800595f8     libcpmt:excptptr.obj
 0004:00002604       $pdata$?_Delete_this@?$_Ref_count_obj_alloc@V__ExceptionPtr@@U?$_StaticAllocator@H@@@std@@EEAAXXZ 0000000180059604     libcpmt:excptptr.obj
 0004:00002610       $pdata$?_InitBadAllocException@__ExceptionPtr@@CA?AV?$shared_ptr@V__ExceptionPtr@@@std@@XZ 0000000180059610     libcpmt:excptptr.obj
 0004:0000261c       $pdata$?_Reset0@?$_Ptr_base@V__ExceptionPtr@@@std@@QEAAXPEAV__ExceptionPtr@@PEAV_Ref_count_base@2@@Z 000000018005961c     libcpmt:excptptr.obj
 0004:00002628       $pdata$?_RethrowException@__ExceptionPtr@@QEBAXXZ 0000000180059628     libcpmt:excptptr.obj
 0004:00002634       $pdata$?_StaticAlloc@@YAPEAX_K@Z 0000000180059634     libcpmt:excptptr.obj
 0004:00002640       $pdata$?__ExceptionPtrCopy@@YAXPEAXPEBX@Z 0000000180059640     libcpmt:excptptr.obj
 0004:0000264c       $pdata$?__ExceptionPtrCopyException@@YAXPEAXPEBX1@Z 000000018005964c     libcpmt:excptptr.obj
 0004:00002658       $pdata$?__ExceptionPtrCurrentException@@YAXPEAX@Z 0000000180059658     libcpmt:excptptr.obj
 0004:00002664       $pdata$?__ExceptionPtrRethrow@@YAXPEBX@Z 0000000180059664     libcpmt:excptptr.obj
 0004:00002670       $pdata$?_Xlength_error@std@@YAXPEBD@Z 0000000180059670     libcpmt:xthrow.obj
 0004:00002688       $pdata$??_Gtype_info@@UEAAPEAXI@Z 0000000180059688     LIBCMT:std_type_info_static.obj
 0004:00002694       $pdata$__raise_securityfailure 0000000180059694     LIBCMT:gs_report.obj
 0004:000026a0       $pdata$__report_gsfailure  00000001800596a0     LIBCMT:gs_report.obj
 0004:000026ac       $pdata$__report_rangecheckfailure 00000001800596ac     LIBCMT:gs_report.obj
 0004:000026b8       $pdata$__report_securityfailure 00000001800596b8     LIBCMT:gs_report.obj
 0004:000026c4       $pdata$capture_current_context 00000001800596c4     LIBCMT:gs_report.obj
 0004:000026d0       $pdata$capture_previous_context 00000001800596d0     LIBCMT:gs_report.obj
 0004:000026dc       $pdata$??2@YAPEAX_K@Z      00000001800596dc     LIBCMT:new_scalar.obj
 0004:000026e8       $pdata$??_M@YAXPEAX_K1P6AX0@Z@Z 00000001800596e8     LIBCMT:ehvecdtr.obj
 0004:000026f4       $pdata$?__ArrayUnwind@@YAXPEAX_K1P6AX0@Z@Z 00000001800596f4     LIBCMT:ehvecdtr.obj
 0004:00002700       $pdata$??_L@YAXPEAX_K1P6AX0@Z2@Z 0000000180059700     LIBCMT:ehvecctr.obj
 0004:0000270c       $pdata$__scrt_acquire_startup_lock 000000018005970c     LIBCMT:utility.obj
 0004:00002718       $pdata$__scrt_dllmain_after_initialize_c 0000000180059718     LIBCMT:utility.obj
 0004:00002724       $pdata$__scrt_dllmain_before_initialize_c 0000000180059724     LIBCMT:utility.obj
 0004:00002730       $pdata$__scrt_dllmain_crt_thread_attach 0000000180059730     LIBCMT:utility.obj
 0004:0000273c       $pdata$__scrt_dllmain_crt_thread_detach 000000018005973c     LIBCMT:utility.obj
 0004:00002748       $pdata$__scrt_dllmain_exception_filter 0000000180059748     LIBCMT:utility.obj
 0004:00002754       $pdata$__scrt_dllmain_uninitialize_c 0000000180059754     LIBCMT:utility.obj
 0004:00002760       $pdata$__scrt_dllmain_uninitialize_critical 0000000180059760     LIBCMT:utility.obj
 0004:0000276c       $pdata$__scrt_initialize_crt 000000018005976c     LIBCMT:utility.obj
 0004:00002778       $pdata$__scrt_initialize_onexit_tables 0000000180059778     LIBCMT:utility.obj
 0004:00002784       $pdata$__scrt_is_nonwritable_in_current_image 0000000180059784     LIBCMT:utility.obj
 0004:00002790       $pdata$__scrt_release_startup_lock 0000000180059790     LIBCMT:utility.obj
 0004:0000279c       $pdata$__scrt_uninitialize_crt 000000018005979c     LIBCMT:utility.obj
 0004:000027a8       $pdata$_onexit             00000001800597a8     LIBCMT:utility.obj
 0004:000027b4       $pdata$atexit              00000001800597b4     LIBCMT:utility.obj
 0004:000027c0       $pdata$?dllmain_crt_dispatch@@YAHQEAUHINSTANCE__@@KQEAX@Z 00000001800597c0     LIBCMT:dll_dllmain.obj
 0004:000027cc       $pdata$?dllmain_crt_process_attach@@YAHQEAUHINSTANCE__@@QEAX@Z 00000001800597cc     LIBCMT:dll_dllmain.obj
 0004:000027d8       $pdata$?dllmain_crt_process_detach@@YAH_N@Z 00000001800597d8     LIBCMT:dll_dllmain.obj
 0004:000027e4       $pdata$?dllmain_dispatch@@YAHQEAUHINSTANCE__@@KQEAX@Z 00000001800597e4     LIBCMT:dll_dllmain.obj
 0004:000027f0       $pdata$?dllmain_raw@@YAHQEAUHINSTANCE__@@KQEAX@Z 00000001800597f0     LIBCMT:dll_dllmain.obj
 0004:000027fc       $pdata$_DllMainCRTStartup  00000001800597fc     LIBCMT:dll_dllmain.obj
 0004:00002808       $pdata$__GSHandlerCheck    0000000180059808     LIBCMT:_gshandler_.obj
 0004:00002814       $pdata$__GSHandlerCheckCommon 0000000180059814     LIBCMT:_gshandler_.obj
 0004:0000282c       $pdata$??0bad_array_new_length@std@@QEAA@AEBV01@@Z 000000018005982c     LIBCMT:throw_bad_alloc.obj
 0004:00002838       $pdata$?__scrt_throw_std_bad_alloc@@YAXXZ 0000000180059838     LIBCMT:throw_bad_alloc.obj
 0004:00002844       $pdata$?__scrt_throw_std_bad_array_new_length@@YAXXZ 0000000180059844     LIBCMT:throw_bad_alloc.obj
 0004:00002850       $pdata$__isa_available_init 0000000180059850     LIBCMT:_cpu_disp_.obj
 0004:0000285c       $pdata$__scrt_fastfail     000000018005985c     LIBCMT:utility_desktop.obj
 0004:00002868       $pdata$__security_init_cookie 0000000180059868     LIBCMT:gs_support.obj
 0004:00002874       $pdata$__scrt_initialize_default_local_stdio_options 0000000180059874     LIBCMT:default_local_stdio_options.obj
 0004:00002880       $pdata$_RTC_Initialize     0000000180059880     LIBCMT:_initsect_.obj
 0004:0000288c       $pdata$_RTC_Terminate      000000018005988c     LIBCMT:_initsect_.obj
 0004:00002898       $pdata$_purecall           0000000180059898     libvcruntime:purevirt.obj
 0004:000028a4       $pdata$__DestructExceptionObject 00000001800598a4     libvcruntime:frame.obj
 0004:000028b0       $pdata$?CatchIt@@YAXPEAUEHExceptionRecord@@PEA_KPEAU_CONTEXT@@PEAU_xDISPATCHER_CONTEXT@@PEBU_s_FuncInfo@@PEBU_s_HandlerType@@PEBU_s_CatchableType@@PEBU_s_TryBlockMapEntry@@H1EE@Z 00000001800598b0     libvcruntime:frame.obj
 0004:000028bc       $pdata$?ExFilterRethrow@@YAHPEAU_EXCEPTION_POINTERS@@PEAUEHExceptionRecord@@PEAH@Z 00000001800598bc     libvcruntime:frame.obj
 0004:000028c8       $pdata$?FindHandler@@YAXPEAUEHExceptionRecord@@PEA_KPEAU_CONTEXT@@PEAU_xDISPATCHER_CONTEXT@@PEBU_s_FuncInfo@@EH1@Z 00000001800598c8     libvcruntime:frame.obj
 0004:000028d4       $pdata$?FindHandlerForForeignException@@YAXPEAUEHExceptionRecord@@PEA_KPEAU_CONTEXT@@PEAU_xDISPATCHER_CONTEXT@@PEBU_s_FuncInfo@@HH1@Z 00000001800598d4     libvcruntime:frame.obj
 0004:000028e0       $pdata$?IsInExceptionSpec@@YAEPEAUEHExceptionRecord@@PEBU_s_ESTypeList@@@Z 00000001800598e0     libvcruntime:frame.obj
 0004:000028ec       $pdata$__BuildCatchObject  00000001800598ec     libvcruntime:frame.obj
 0004:000028f8       $pdata$__BuildCatchObjectHelper 00000001800598f8     libvcruntime:frame.obj
 0004:00002904       $pdata$__CxxCallCatchBlock 0000000180059904     libvcruntime:frame.obj
 0004:00002910       $pdata$__FrameUnwindFilter 0000000180059910     libvcruntime:frame.obj
 0004:0000291c       $pdata$__FrameUnwindToState 000000018005991c     libvcruntime:frame.obj
 0004:00002928       $pdata$__InternalCxxFrameHandler 0000000180059928     libvcruntime:frame.obj
 0004:00002934       $pdata$__TypeMatch         0000000180059934     libvcruntime:frame.obj
 0004:00002940       $pdata$__current_exception 0000000180059940     libvcruntime:frame.obj
 0004:0000294c       $pdata$__processing_throw  000000018005994c     libvcruntime:frame.obj
 0004:00002958       $pdata$__std_terminate     0000000180059958     libvcruntime:frame.obj
 0004:00002964       $pdata$strrchr             0000000180059964     libvcruntime:strrchr.obj
 0004:00002970       $pdata$__std_exception_copy 0000000180059970     libvcruntime:std_exception.obj
 0004:0000297c       $pdata$__std_exception_destroy 000000018005997c     libvcruntime:std_exception.obj
 0004:00002988       $pdata$__std_type_info_destroy_list 0000000180059988     libvcruntime:std_type_info.obj
 0004:00002994       $pdata$__std_type_info_name 0000000180059994     libvcruntime:std_type_info.obj
 0004:000029a0       $pdata$??0__non_rtti_object@std@@QEAA@AEBV01@@Z 00000001800599a0     libvcruntime:rtti.obj
 0004:000029ac       $pdata$??0bad_typeid@std@@QEAA@AEBV01@@Z 00000001800599ac     libvcruntime:rtti.obj
 0004:000029b8       $pdata$__RTtypeid          00000001800599b8     libvcruntime:rtti.obj
 0004:000029d0       $pdata$_CxxThrowException  00000001800599d0     libvcruntime:throw.obj
 0004:000029dc       $pdata$?_ExecutionInCatch@@YAHPEAU_xDISPATCHER_CONTEXT@@PEBU_s_FuncInfo@@@Z 00000001800599dc     libvcruntime:trnsctrl.obj
 0004:000029e8       $pdata$?_GetEstablisherFrame@@YAPEA_KPEA_KPEAU_xDISPATCHER_CONTEXT@@PEBU_s_FuncInfo@@0@Z 00000001800599e8     libvcruntime:trnsctrl.obj
 0004:000029f4       $pdata$?_GetRangeOfTrysToCheck@@YAPEBU_s_TryBlockMapEntry@@PEA_KPEBU_s_FuncInfo@@HHPEAI2PEAU_xDISPATCHER_CONTEXT@@@Z 00000001800599f4     libvcruntime:trnsctrl.obj
 0004:00002a00       $pdata$?__FrameUnwindToEmptyState@@YAXPEA_KPEAU_xDISPATCHER_CONTEXT@@PEBU_s_FuncInfo@@@Z 0000000180059a00     libvcruntime:trnsctrl.obj
 0004:00002a0c       $pdata$?__SehTransFilter@@YAHPEAU_EXCEPTION_POINTERS@@PEAUEHExceptionRecord@@PEA_KPEAU_CONTEXT@@PEAU_xDISPATCHER_CONTEXT@@PEBU_s_FuncInfo@@PEAH@Z 0000000180059a0c     libvcruntime:trnsctrl.obj
 0004:00002a18       $pdata$_CallSETranslator   0000000180059a18     libvcruntime:trnsctrl.obj
 0004:00002a24       $pdata$_CreateFrameInfo    0000000180059a24     libvcruntime:trnsctrl.obj
 0004:00002a30       $pdata$_FindAndUnlinkFrame 0000000180059a30     libvcruntime:trnsctrl.obj
 0004:00002a3c       $pdata$_GetImageBase       0000000180059a3c     libvcruntime:trnsctrl.obj
 0004:00002a48       $pdata$_GetThrowImageBase  0000000180059a48     libvcruntime:trnsctrl.obj
 0004:00002a54       $pdata$_IsExceptionObjectToBeDestroyed 0000000180059a54     libvcruntime:trnsctrl.obj
 0004:00002a60       $pdata$_SetImageBase       0000000180059a60     libvcruntime:trnsctrl.obj
 0004:00002a6c       $pdata$_SetThrowImageBase  0000000180059a6c     libvcruntime:trnsctrl.obj
 0004:00002a78       $pdata$_UnwindNestedFrames 0000000180059a78     libvcruntime:trnsctrl.obj
 0004:00002a84       $pdata$__CxxFrameHandler3  0000000180059a84     libvcruntime:trnsctrl.obj
 0004:00002a9c       $pdata$__C_specific_handler 0000000180059a9c     libvcruntime:_chandler_.obj
 0004:00002aa8       $pdata$__vcrt_initialize   0000000180059aa8     libvcruntime:initialization.obj
 0004:00002ab4       $pdata$__vcrt_thread_attach 0000000180059ab4     libvcruntime:initialization.obj
 0004:00002ac0       $pdata$__vcrt_thread_detach 0000000180059ac0     libvcruntime:initialization.obj
 0004:00002acc       $pdata$__vcrt_uninitialize 0000000180059acc     libvcruntime:initialization.obj
 0004:00002ad8       $pdata$__vcrt_uninitialize_critical 0000000180059ad8     libvcruntime:initialization.obj
 0004:00002ae4       $pdata$__vcrt_freefls      0000000180059ae4     libvcruntime:per_thread_data.obj
 0004:00002af0       $pdata$__vcrt_freeptd      0000000180059af0     libvcruntime:per_thread_data.obj
 0004:00002afc       $pdata$__vcrt_getptd       0000000180059afc     libvcruntime:per_thread_data.obj
 0004:00002b08       $pdata$__vcrt_getptd_noexit 0000000180059b08     libvcruntime:per_thread_data.obj
 0004:00002b14       $pdata$__vcrt_initialize_ptd 0000000180059b14     libvcruntime:per_thread_data.obj
 0004:00002b20       $pdata$__vcrt_uninitialize_ptd 0000000180059b20     libvcruntime:per_thread_data.obj
 0004:00002b2c       $pdata$?__GetCurrentState@@YAHPEA_KPEAU_xDISPATCHER_CONTEXT@@PEBU_s_FuncInfo@@@Z 0000000180059b2c     libvcruntime:ehstate.obj
 0004:00002b38       $pdata$?__GetUnwindTryBlock@@YAHPEA_KPEAU_xDISPATCHER_CONTEXT@@PEBU_s_FuncInfo@@@Z 0000000180059b38     libvcruntime:ehstate.obj
 0004:00002b44       $pdata$?__SetUnwindTryBlock@@YAXPEA_KPEAU_xDISPATCHER_CONTEXT@@PEBU_s_FuncInfo@@H@Z 0000000180059b44     libvcruntime:ehstate.obj
 0004:00002b50       $pdata$?__StateFromIp@@YAHPEBU_s_FuncInfo@@PEAU_xDISPATCHER_CONTEXT@@_J@Z 0000000180059b50     libvcruntime:ehstate.obj
 0004:00002b98       $pdata$??0DName@@QEAA@AEAPEBDD@Z 0000000180059b98     libvcruntime:undname.obj
 0004:00002ba4       $pdata$??0DName@@QEAA@D@Z  0000000180059ba4     libvcruntime:undname.obj
 0004:00002bb0       $pdata$??0DName@@QEAA@PEAV0@@Z 0000000180059bb0     libvcruntime:undname.obj
 0004:00002bbc       $pdata$??0DName@@QEAA@PEBD@Z 0000000180059bbc     libvcruntime:undname.obj
 0004:00002bc8       $pdata$??0DName@@QEAA@W4DNameStatus@@@Z 0000000180059bc8     libvcruntime:undname.obj
 0004:00002bd4       $pdata$??0DName@@QEAA@_J@Z 0000000180059bd4     libvcruntime:undname.obj
 0004:00002be0       $pdata$??0DName@@QEAA@_K@Z 0000000180059be0     libvcruntime:undname.obj
 0004:00002bec       $pdata$??0pcharNode@@QEAA@PEBDH@Z 0000000180059bec     libvcruntime:undname.obj
 0004:00002bf8       $pdata$??4DName@@QEAAAEAV0@PEBD@Z 0000000180059bf8     libvcruntime:undname.obj
 0004:00002c04       $pdata$??4DName@@QEAAAEAV0@W4DNameStatus@@@Z 0000000180059c04     libvcruntime:undname.obj
 0004:00002c10       $pdata$??AReplicator@@QEBA?AVDName@@H@Z 0000000180059c10     libvcruntime:undname.obj
 0004:00002c1c       $pdata$??BUnDecorator@@QEAAPEADXZ 0000000180059c1c     libvcruntime:undname.obj
 0004:00002c28       $pdata$??YDName@@QEAAAEAV0@AEBV0@@Z 0000000180059c28     libvcruntime:undname.obj
 0004:00002c34       $pdata$??YDName@@QEAAAEAV0@D@Z 0000000180059c34     libvcruntime:undname.obj
 0004:00002c40       $pdata$??YDName@@QEAAAEAV0@PEBD@Z 0000000180059c40     libvcruntime:undname.obj
 0004:00002c4c       $pdata$??YDName@@QEAAAEAV0@W4DNameStatus@@@Z 0000000180059c4c     libvcruntime:undname.obj
 0004:00002c58       $pdata$??YReplicator@@QEAAAEAV0@AEBVDName@@@Z 0000000180059c58     libvcruntime:undname.obj
 0004:00002c64       $pdata$?append@DName@@AEAAXPEAVDNameNode@@@Z 0000000180059c64     libvcruntime:undname.obj
 0004:00002c70       $pdata$?composeDeclaration@UnDecorator@@CA?AVDName@@AEBV2@@Z 0000000180059c70     libvcruntime:undname.obj
 0004:00002c7c       $pdata$?doPchar@DName@@AEAAXPEBDH@Z 0000000180059c7c     libvcruntime:undname.obj
 0004:00002c88       $pdata$?getArgumentList@UnDecorator@@CA?AVDName@@XZ 0000000180059c88     libvcruntime:undname.obj
 0004:00002c94       $pdata$?getArgumentTypes@UnDecorator@@CA?AVDName@@XZ 0000000180059c94     libvcruntime:undname.obj
 0004:00002ca0       $pdata$?getArrayType@UnDecorator@@CA?AVDName@@AEBV2@@Z 0000000180059ca0     libvcruntime:undname.obj
 0004:00002cac       $pdata$?getBasedType@UnDecorator@@CA?AVDName@@XZ 0000000180059cac     libvcruntime:undname.obj
 0004:00002cb8       $pdata$?getBasicDataType@UnDecorator@@CA?AVDName@@AEBV2@@Z 0000000180059cb8     libvcruntime:undname.obj
 0004:00002cc4       $pdata$?getCallingConvention@UnDecorator@@CA?AVDName@@XZ 0000000180059cc4     libvcruntime:undname.obj
 0004:00002cd0       $pdata$?getDataIndirectType@UnDecorator@@CA?AVDName@@AEBV2@PEBD0H@Z 0000000180059cd0     libvcruntime:undname.obj
 0004:00002cdc       $pdata$?getDataType@UnDecorator@@CA?AVDName@@PEAV2@@Z 0000000180059cdc     libvcruntime:undname.obj
 0004:00002ce8       $pdata$?getDecoratedName@UnDecorator@@CA?AVDName@@XZ 0000000180059ce8     libvcruntime:undname.obj
 0004:00002cf4       $pdata$?getDimension@UnDecorator@@CA?AVDName@@_N@Z 0000000180059cf4     libvcruntime:undname.obj
 0004:00002d00       $pdata$?getDispatchTarget@UnDecorator@@CA?AVDName@@XZ 0000000180059d00     libvcruntime:undname.obj
 0004:00002d0c       $pdata$?getECSUDataType@UnDecorator@@CA?AVDName@@XZ 0000000180059d0c     libvcruntime:undname.obj
 0004:00002d18       $pdata$?getEnumType@UnDecorator@@CA?AVDName@@XZ 0000000180059d18     libvcruntime:undname.obj
 0004:00002d24       $pdata$?getExtendedDataIndirectType@UnDecorator@@CA?AVDName@@AEAPEBDAEA_NH@Z 0000000180059d24     libvcruntime:undname.obj
 0004:00002d30       $pdata$?getExternalDataType@UnDecorator@@CA?AVDName@@AEBV2@@Z 0000000180059d30     libvcruntime:undname.obj
 0004:00002d3c       $pdata$?getFunctionIndirectType@UnDecorator@@CA?AVDName@@AEBV2@@Z 0000000180059d3c     libvcruntime:undname.obj
 0004:00002d48       $pdata$?getLastChar@pDNameNode@@UEBADXZ 0000000180059d48     libvcruntime:undname.obj
 0004:00002d54       $pdata$?getLastChar@pairNode@@UEBADXZ 0000000180059d54     libvcruntime:undname.obj
 0004:00002d60       $pdata$?getMemory@_HeapManager@@QEAAPEAX_KH@Z 0000000180059d60     libvcruntime:undname.obj
 0004:00002d6c       $pdata$?getOperatorName@UnDecorator@@CA?AVDName@@_NPEA_N@Z 0000000180059d6c     libvcruntime:undname.obj
 0004:00002d78       $pdata$?getPrimaryDataType@UnDecorator@@CA?AVDName@@AEBV2@@Z 0000000180059d78     libvcruntime:undname.obj
 0004:00002d84       $pdata$?getPtrRefDataType@UnDecorator@@CA?AVDName@@AEBV2@H@Z 0000000180059d84     libvcruntime:undname.obj
 0004:00002d90       $pdata$?getPtrRefType@UnDecorator@@CA?AVDName@@AEBV2@0PEBD@Z 0000000180059d90     libvcruntime:undname.obj
 0004:00002d9c       $pdata$?getRestrictionSpec@UnDecorator@@CA?AVDName@@XZ 0000000180059d9c     libvcruntime:undname.obj
 0004:00002da8       $pdata$?getReturnType@UnDecorator@@CA?AVDName@@PEAV2@@Z 0000000180059da8     libvcruntime:undname.obj
 0004:00002db4       $pdata$?getScope@UnDecorator@@CA?AVDName@@XZ 0000000180059db4     libvcruntime:undname.obj
 0004:00002dc0       $pdata$?getScopedName@UnDecorator@@CA?AVDName@@XZ 0000000180059dc0     libvcruntime:undname.obj
 0004:00002dcc       $pdata$?getSignedDimension@UnDecorator@@CA?AVDName@@XZ 0000000180059dcc     libvcruntime:undname.obj
 0004:00002dd8       $pdata$?getString@DName@@QEBAPEADPEADH@Z 0000000180059dd8     libvcruntime:undname.obj
 0004:00002de4       $pdata$?getString@pDNameNode@@UEBAPEADPEAD0@Z 0000000180059de4     libvcruntime:undname.obj
 0004:00002df0       $pdata$?getString@pairNode@@UEBAPEADPEAD0@Z 0000000180059df0     libvcruntime:undname.obj
 0004:00002dfc       $pdata$?getStringEncoding@UnDecorator@@CA?AVDName@@PEADH@Z 0000000180059dfc     libvcruntime:undname.obj
 0004:00002e08       $pdata$?getSymbolName@UnDecorator@@CA?AVDName@@XZ 0000000180059e08     libvcruntime:undname.obj
 0004:00002e14       $pdata$?getTemplateArgumentList@UnDecorator@@CA?AVDName@@XZ 0000000180059e14     libvcruntime:undname.obj
 0004:00002e20       $pdata$?getTemplateConstant@UnDecorator@@CA?AVDName@@XZ 0000000180059e20     libvcruntime:undname.obj
 0004:00002e2c       $pdata$?getTemplateName@UnDecorator@@CA?AVDName@@_N@Z 0000000180059e2c     libvcruntime:undname.obj
 0004:00002e38       $pdata$?getThrowTypes@UnDecorator@@CA?AVDName@@XZ 0000000180059e38     libvcruntime:undname.obj
 0004:00002e44       $pdata$?getTypeEncoding@UnDecorator@@CAHXZ 0000000180059e44     libvcruntime:undname.obj
 0004:00002e50       $pdata$?getVfTableType@UnDecorator@@CA?AVDName@@AEBV2@@Z 0000000180059e50     libvcruntime:undname.obj
 0004:00002e5c       $pdata$?getZName@UnDecorator@@CA?AVDName@@_N0@Z 0000000180059e5c     libvcruntime:undname.obj
 0004:00002e68       $pdata$?length@pDNameNode@@UEBAHXZ 0000000180059e68     libvcruntime:undname.obj
 0004:00002e74       $pdata$?length@pairNode@@UEBAHXZ 0000000180059e74     libvcruntime:undname.obj
 0004:00002e80       $pdata$__unDName           0000000180059e80     libvcruntime:undname.obj
 0004:00002e8c       $pdata$sprintf_s           0000000180059e8c     libvcruntime:undname.obj
 0004:00002e98       $pdata$__vcrt_initialize_locks 0000000180059e98     libvcruntime:locks.obj
 0004:00002ea4       $pdata$__vcrt_uninitialize_locks 0000000180059ea4     libvcruntime:locks.obj
 0004:00002eb0       $pdata$?try_get_function@@YAPEAXW4function_id@?A0x679b24ab@@QEBDQEBW4module_id@2@2@Z 0000000180059eb0     libvcruntime:winapi_downlevel.obj
 0004:00002ebc       $pdata$__vcrt_FlsAlloc     0000000180059ebc     libvcruntime:winapi_downlevel.obj
 0004:00002ec8       $pdata$__vcrt_FlsFree      0000000180059ec8     libvcruntime:winapi_downlevel.obj
 0004:00002ed4       $pdata$__vcrt_FlsGetValue  0000000180059ed4     libvcruntime:winapi_downlevel.obj
 0004:00002ee0       $pdata$__vcrt_FlsSetValue  0000000180059ee0     libvcruntime:winapi_downlevel.obj
 0004:00002eec       $pdata$__vcrt_InitializeCriticalSectionEx 0000000180059eec     libvcruntime:winapi_downlevel.obj
 0004:00002ef8       $pdata$__vcrt_uninitialize_winapi_thunks 0000000180059ef8     libvcruntime:winapi_downlevel.obj
 0004:00002f10       $pdata$strncpy_s           0000000180059f10     libucrt:strncpy_s.obj
 0004:00002f1c       $pdata$_wcsdup             0000000180059f1c     libucrt:wcsdup.obj
 0004:00002f28       $pdata$_strdup             0000000180059f28     libucrt:strdup.obj
 0004:00002f34       $pdata$??$thread_start@P6AIPEAX@Z@@YAKQEAX@Z 0000000180059f34     libucrt:thread.obj
 0004:00002f40       $pdata$?common_end_thread@@YAXI@Z 0000000180059f40     libucrt:thread.obj
 0004:00002f4c       $pdata$?create_thread_parameter@@YAPEAU__acrt_thread_parameter@@QEAX0@Z 0000000180059f4c     libucrt:thread.obj
 0004:00002f58       $pdata$_beginthreadex      0000000180059f58     libucrt:thread.obj
 0004:00002f64       $pdata$_endthreadex        0000000180059f64     libucrt:thread.obj
 0004:00002f70       $pdata$__acrt_errno_map_os_error 0000000180059f70     libucrt:errno.obj
 0004:00002f7c       $pdata$__doserrno          0000000180059f7c     libucrt:errno.obj
 0004:00002f88       $pdata$_errno              0000000180059f88     libucrt:errno.obj
 0004:00002f94       $pdata$?common_exit@@YAXHW4_crt_exit_cleanup_mode@@W4_crt_exit_return_mode@@@Z 0000000180059f94     libucrt:exit.obj
 0004:00002fa0       $pdata$?exit_or_terminate_process@@YAXI@Z 0000000180059fa0     libucrt:exit.obj
 0004:00002fac       $pdata$?try_cor_exit_process@@YAXI@Z 0000000180059fac     libucrt:exit.obj
 0004:00002fb8       $pdata$__acrt_initialize_stdio 0000000180059fb8     libucrt:_file.obj
 0004:00002fc4       $pdata$__acrt_uninitialize_stdio 0000000180059fc4     libucrt:_file.obj
 0004:00002fd0       $pdata$??$?RV<lambda_aa279a7bcb127014629d5b1d62c7325d>@@AEAV<lambda_0a64b6a4deda75c01876f29c44fc5eb3>@@V<lambda_3323e69fbefe9d1a11713e670d47cdfa>@@@?$__crt_seh_guarded_call@H@@QEAAH$$QEAV<lambda_aa279a7bcb127014629d5b1d62c7325d>@@AEAV<lambda_0a64b6a4deda75c01876f29c44fc5eb3>@@$$QEAV<lambda_3323e69fbefe9d1a11713e670d47cdfa>@@@Z 0000000180059fd0     libucrt:output.obj
 0004:00002fdc       $pdata$??$common_vsprintf@Vformat_validation_base@__crt_stdio_output@@D@@YAH_KQEAD0QEBDQEAU__crt_locale_pointers@@1@Z 0000000180059fdc     libucrt:output.obj
 0004:00002fe8       $pdata$??$ensure_buffer_is_big_enough@D@formatting_buffer@__crt_stdio_output@@QEAA_N_K@Z 0000000180059fe8     libucrt:output.obj
 0004:00002ff4       $pdata$??$type_case_integer_parse_into_buffer@I@?$output_processor@DV?$string_output_adapter@D@__crt_stdio_output@@V?$standard_base@DV?$string_output_adapter@D@__crt_stdio_output@@@2@@__crt_stdio_output@@AEAAXII_N@Z 0000000180059ff4     libucrt:output.obj
 0004:00002ff4       $pdata$??$type_case_integer_parse_into_buffer@I@?$output_processor@DV?$stream_output_adapter@D@__crt_stdio_output@@V?$standard_base@DV?$stream_output_adapter@D@__crt_stdio_output@@@2@@__crt_stdio_output@@AEAAXII_N@Z 0000000180059ff4     libucrt:output.obj
 0004:00002ff4       $pdata$??$type_case_integer_parse_into_buffer@I@?$output_processor@DV?$string_output_adapter@D@__crt_stdio_output@@V?$format_validation_base@DV?$string_output_adapter@D@__crt_stdio_output@@@2@@__crt_stdio_output@@AEAAXII_N@Z 0000000180059ff4     libucrt:output.obj
 0004:00003000       $pdata$??$type_case_integer_parse_into_buffer@_K@?$output_processor@DV?$stream_output_adapter@D@__crt_stdio_output@@V?$standard_base@DV?$stream_output_adapter@D@__crt_stdio_output@@@2@@__crt_stdio_output@@AEAAX_KI_N@Z 000000018005a000     libucrt:output.obj
 0004:00003000       $pdata$??$type_case_integer_parse_into_buffer@_K@?$output_processor@DV?$string_output_adapter@D@__crt_stdio_output@@V?$standard_base@DV?$string_output_adapter@D@__crt_stdio_output@@@2@@__crt_stdio_output@@AEAAX_KI_N@Z 000000018005a000     libucrt:output.obj
 0004:00003000       $pdata$??$type_case_integer_parse_into_buffer@_K@?$output_processor@DV?$string_output_adapter@D@__crt_stdio_output@@V?$format_validation_base@DV?$string_output_adapter@D@__crt_stdio_output@@@2@@__crt_stdio_output@@AEAAX_KI_N@Z 000000018005a000     libucrt:output.obj
 0004:0000300c       $pdata$??$write_multiple_characters@V?$stream_output_adapter@D@__crt_stdio_output@@D@__crt_stdio_output@@YAXAEBV?$stream_output_adapter@D@0@DHQEAH@Z 000000018005a00c     libucrt:output.obj
 0004:00003018       $pdata$??$write_multiple_characters@V?$string_output_adapter@D@__crt_stdio_output@@D@__crt_stdio_output@@YAXAEBV?$string_output_adapter@D@0@DHQEAH@Z 000000018005a018     libucrt:output.obj
 0004:00003024       $pdata$??0?$output_processor@DV?$string_output_adapter@D@__crt_stdio_output@@V?$standard_base@DV?$string_output_adapter@D@__crt_stdio_output@@@2@@__crt_stdio_output@@QEAA@AEBV?$string_output_adapter@D@1@_KQEBDQEAU__crt_locale_pointers@@QEAD@Z 000000018005a024     libucrt:output.obj
 0004:00003024       $pdata$??0?$output_processor@DV?$string_output_adapter@D@__crt_stdio_output@@V?$format_validation_base@DV?$string_output_adapter@D@__crt_stdio_output@@@2@@__crt_stdio_output@@QEAA@AEBV?$string_output_adapter@D@1@_KQEBDQEAU__crt_locale_pointers@@QEAD@Z 000000018005a024     libucrt:output.obj
 0004:00003024       $pdata$??0?$output_processor@DV?$stream_output_adapter@D@__crt_stdio_output@@V?$standard_base@DV?$stream_output_adapter@D@__crt_stdio_output@@@2@@__crt_stdio_output@@QEAA@AEBV?$stream_output_adapter@D@1@_KQEBDQEAU__crt_locale_pointers@@QEAD@Z 000000018005a024     libucrt:output.obj
 0004:00003030       $pdata$??0_LocaleUpdate@@QEAA@QEAU__crt_locale_pointers@@@Z 000000018005a030     libucrt:output.obj
 0004:0000303c       $pdata$??R<lambda_0a64b6a4deda75c01876f29c44fc5eb3>@@QEBAHXZ 000000018005a03c     libucrt:output.obj
 0004:00003048       $pdata$?force_decimal_point@__crt_stdio_output@@YAXPEADQEAU__crt_locale_pointers@@@Z 000000018005a048     libucrt:output.obj
 0004:00003054       $pdata$?parse_int_from_format_string@?$output_processor@DV?$string_output_adapter@D@__crt_stdio_output@@V?$standard_base@DV?$string_output_adapter@D@__crt_stdio_output@@@2@@__crt_stdio_output@@AEAA_NQEAH@Z 000000018005a054     libucrt:output.obj
 0004:00003054       $pdata$?parse_int_from_format_string@?$output_processor@DV?$stream_output_adapter@D@__crt_stdio_output@@V?$standard_base@DV?$stream_output_adapter@D@__crt_stdio_output@@@2@@__crt_stdio_output@@AEAA_NQEAH@Z 000000018005a054     libucrt:output.obj
 0004:00003054       $pdata$?parse_int_from_format_string@?$output_processor@DV?$string_output_adapter@D@__crt_stdio_output@@V?$format_validation_base@DV?$string_output_adapter@D@__crt_stdio_output@@@2@@__crt_stdio_output@@AEAA_NQEAH@Z 000000018005a054     libucrt:output.obj
 0004:00003060       $pdata$?process@?$output_processor@DV?$stream_output_adapter@D@__crt_stdio_output@@V?$standard_base@DV?$stream_output_adapter@D@__crt_stdio_output@@@2@@__crt_stdio_output@@QEAAHXZ 000000018005a060     libucrt:output.obj
 0004:0000306c       $pdata$?process@?$output_processor@DV?$string_output_adapter@D@__crt_stdio_output@@V?$format_validation_base@DV?$string_output_adapter@D@__crt_stdio_output@@@2@@__crt_stdio_output@@QEAAHXZ 000000018005a06c     libucrt:output.obj
 0004:00003078       $pdata$?process@?$output_processor@DV?$string_output_adapter@D@__crt_stdio_output@@V?$standard_base@DV?$string_output_adapter@D@__crt_stdio_output@@@2@@__crt_stdio_output@@QEAAHXZ 000000018005a078     libucrt:output.obj
 0004:00003084       $pdata$?state_case_normal@?$output_processor@DV?$stream_output_adapter@D@__crt_stdio_output@@V?$standard_base@DV?$stream_output_adapter@D@__crt_stdio_output@@@2@@__crt_stdio_output@@AEAA_NXZ 000000018005a084     libucrt:output.obj
 0004:00003090       $pdata$?state_case_normal@?$output_processor@DV?$string_output_adapter@D@__crt_stdio_output@@V?$format_validation_base@DV?$string_output_adapter@D@__crt_stdio_output@@@2@@__crt_stdio_output@@AEAA_NXZ 000000018005a090     libucrt:output.obj
 0004:00003090       $pdata$?state_case_normal@?$output_processor@DV?$string_output_adapter@D@__crt_stdio_output@@V?$standard_base@DV?$string_output_adapter@D@__crt_stdio_output@@@2@@__crt_stdio_output@@AEAA_NXZ 000000018005a090     libucrt:output.obj
 0004:0000309c       $pdata$?state_case_normal_tchar@?$output_processor@DV?$stream_output_adapter@D@__crt_stdio_output@@V?$standard_base@DV?$stream_output_adapter@D@__crt_stdio_output@@@2@@__crt_stdio_output@@AEAA_ND@Z 000000018005a09c     libucrt:output.obj
 0004:000030a8       $pdata$?state_case_normal_tchar@?$output_processor@DV?$string_output_adapter@D@__crt_stdio_output@@V?$format_validation_base@DV?$string_output_adapter@D@__crt_stdio_output@@@2@@__crt_stdio_output@@AEAA_ND@Z 000000018005a0a8     libucrt:output.obj
 0004:000030a8       $pdata$?state_case_normal_tchar@?$output_processor@DV?$string_output_adapter@D@__crt_stdio_output@@V?$standard_base@DV?$string_output_adapter@D@__crt_stdio_output@@@2@@__crt_stdio_output@@AEAA_ND@Z 000000018005a0a8     libucrt:output.obj
 0004:000030b4       $pdata$?state_case_size@?$output_processor@DV?$stream_output_adapter@D@__crt_stdio_output@@V?$standard_base@DV?$stream_output_adapter@D@__crt_stdio_output@@@2@@__crt_stdio_output@@AEAA_NXZ 000000018005a0b4     libucrt:output.obj
 0004:000030c0       $pdata$?state_case_size@?$output_processor@DV?$string_output_adapter@D@__crt_stdio_output@@V?$standard_base@DV?$string_output_adapter@D@__crt_stdio_output@@@2@@__crt_stdio_output@@AEAA_NXZ 000000018005a0c0     libucrt:output.obj
 0004:000030c0       $pdata$?state_case_size@?$output_processor@DV?$string_output_adapter@D@__crt_stdio_output@@V?$format_validation_base@DV?$string_output_adapter@D@__crt_stdio_output@@@2@@__crt_stdio_output@@AEAA_NXZ 000000018005a0c0     libucrt:output.obj
 0004:000030cc       $pdata$?state_case_type@?$output_processor@DV?$stream_output_adapter@D@__crt_stdio_output@@V?$standard_base@DV?$stream_output_adapter@D@__crt_stdio_output@@@2@@__crt_stdio_output@@AEAA_NXZ 000000018005a0cc     libucrt:output.obj
 0004:000030d8       $pdata$?state_case_type@?$output_processor@DV?$string_output_adapter@D@__crt_stdio_output@@V?$format_validation_base@DV?$string_output_adapter@D@__crt_stdio_output@@@2@@__crt_stdio_output@@AEAA_NXZ 000000018005a0d8     libucrt:output.obj
 0004:000030d8       $pdata$?state_case_type@?$output_processor@DV?$string_output_adapter@D@__crt_stdio_output@@V?$standard_base@DV?$string_output_adapter@D@__crt_stdio_output@@@2@@__crt_stdio_output@@AEAA_NXZ 000000018005a0d8     libucrt:output.obj
 0004:000030e4       $pdata$?type_case_Z@?$output_processor@DV?$stream_output_adapter@D@__crt_stdio_output@@V?$standard_base@DV?$stream_output_adapter@D@__crt_stdio_output@@@2@@__crt_stdio_output@@AEAA_NXZ 000000018005a0e4     libucrt:output.obj
 0004:000030e4       $pdata$?type_case_Z@?$output_processor@DV?$string_output_adapter@D@__crt_stdio_output@@V?$format_validation_base@DV?$string_output_adapter@D@__crt_stdio_output@@@2@@__crt_stdio_output@@AEAA_NXZ 000000018005a0e4     libucrt:output.obj
 0004:000030e4       $pdata$?type_case_Z@?$output_processor@DV?$string_output_adapter@D@__crt_stdio_output@@V?$standard_base@DV?$string_output_adapter@D@__crt_stdio_output@@@2@@__crt_stdio_output@@AEAA_NXZ 000000018005a0e4     libucrt:output.obj
 0004:000030f0       $pdata$?type_case_a@?$output_processor@DV?$string_output_adapter@D@__crt_stdio_output@@V?$standard_base@DV?$string_output_adapter@D@__crt_stdio_output@@@2@@__crt_stdio_output@@AEAA_NXZ 000000018005a0f0     libucrt:output.obj
 0004:000030f0       $pdata$?type_case_a@?$output_processor@DV?$stream_output_adapter@D@__crt_stdio_output@@V?$standard_base@DV?$stream_output_adapter@D@__crt_stdio_output@@@2@@__crt_stdio_output@@AEAA_NXZ 000000018005a0f0     libucrt:output.obj
 0004:000030f0       $pdata$?type_case_a@?$output_processor@DV?$string_output_adapter@D@__crt_stdio_output@@V?$format_validation_base@DV?$string_output_adapter@D@__crt_stdio_output@@@2@@__crt_stdio_output@@AEAA_NXZ 000000018005a0f0     libucrt:output.obj
 0004:000030fc       $pdata$?type_case_c_tchar@?$output_processor@DV?$string_output_adapter@D@__crt_stdio_output@@V?$format_validation_base@DV?$string_output_adapter@D@__crt_stdio_output@@@2@@__crt_stdio_output@@AEAA_ND@Z 000000018005a0fc     libucrt:output.obj
 0004:000030fc       $pdata$?type_case_c_tchar@?$output_processor@DV?$string_output_adapter@D@__crt_stdio_output@@V?$standard_base@DV?$string_output_adapter@D@__crt_stdio_output@@@2@@__crt_stdio_output@@AEAA_ND@Z 000000018005a0fc     libucrt:output.obj
 0004:000030fc       $pdata$?type_case_c_tchar@?$output_processor@DV?$stream_output_adapter@D@__crt_stdio_output@@V?$standard_base@DV?$stream_output_adapter@D@__crt_stdio_output@@@2@@__crt_stdio_output@@AEAA_ND@Z 000000018005a0fc     libucrt:output.obj
 0004:00003108       $pdata$?type_case_integer@?$output_processor@DV?$stream_output_adapter@D@__crt_stdio_output@@V?$standard_base@DV?$stream_output_adapter@D@__crt_stdio_output@@@2@@__crt_stdio_output@@AEAA_NI_N@Z 000000018005a108     libucrt:output.obj
 0004:00003108       $pdata$?type_case_integer@?$output_processor@DV?$string_output_adapter@D@__crt_stdio_output@@V?$standard_base@DV?$string_output_adapter@D@__crt_stdio_output@@@2@@__crt_stdio_output@@AEAA_NI_N@Z 000000018005a108     libucrt:output.obj
 0004:00003108       $pdata$?type_case_integer@?$output_processor@DV?$string_output_adapter@D@__crt_stdio_output@@V?$format_validation_base@DV?$string_output_adapter@D@__crt_stdio_output@@@2@@__crt_stdio_output@@AEAA_NI_N@Z 000000018005a108     libucrt:output.obj
 0004:00003114       $pdata$?type_case_n@?$output_processor@DV?$stream_output_adapter@D@__crt_stdio_output@@V?$standard_base@DV?$stream_output_adapter@D@__crt_stdio_output@@@2@@__crt_stdio_output@@AEAA_NXZ 000000018005a114     libucrt:output.obj
 0004:00003114       $pdata$?type_case_n@?$output_processor@DV?$string_output_adapter@D@__crt_stdio_output@@V?$format_validation_base@DV?$string_output_adapter@D@__crt_stdio_output@@@2@@__crt_stdio_output@@AEAA_NXZ 000000018005a114     libucrt:output.obj
 0004:00003114       $pdata$?type_case_n@?$output_processor@DV?$string_output_adapter@D@__crt_stdio_output@@V?$standard_base@DV?$string_output_adapter@D@__crt_stdio_output@@@2@@__crt_stdio_output@@AEAA_NXZ 000000018005a114     libucrt:output.obj
 0004:00003120       $pdata$?type_case_s@?$output_processor@DV?$stream_output_adapter@D@__crt_stdio_output@@V?$standard_base@DV?$stream_output_adapter@D@__crt_stdio_output@@@2@@__crt_stdio_output@@AEAA_NXZ 000000018005a120     libucrt:output.obj
 0004:00003120       $pdata$?type_case_s@?$output_processor@DV?$string_output_adapter@D@__crt_stdio_output@@V?$format_validation_base@DV?$string_output_adapter@D@__crt_stdio_output@@@2@@__crt_stdio_output@@AEAA_NXZ 000000018005a120     libucrt:output.obj
 0004:00003120       $pdata$?type_case_s@?$output_processor@DV?$string_output_adapter@D@__crt_stdio_output@@V?$standard_base@DV?$string_output_adapter@D@__crt_stdio_output@@@2@@__crt_stdio_output@@AEAA_NXZ 000000018005a120     libucrt:output.obj
 0004:0000312c       $pdata$?validate_stream_is_ansi_if_required@?$__acrt_stdio_char_traits@D@@SA_NQEAU_iobuf@@@Z 000000018005a12c     libucrt:output.obj
 0004:00003138       $pdata$?write_stored_string_tchar@?$output_processor@DV?$stream_output_adapter@D@__crt_stdio_output@@V?$standard_base@DV?$stream_output_adapter@D@__crt_stdio_output@@@2@@__crt_stdio_output@@AEAA_ND@Z 000000018005a138     libucrt:output.obj
 0004:00003144       $pdata$?write_stored_string_tchar@?$output_processor@DV?$string_output_adapter@D@__crt_stdio_output@@V?$standard_base@DV?$string_output_adapter@D@__crt_stdio_output@@@2@@__crt_stdio_output@@AEAA_ND@Z 000000018005a144     libucrt:output.obj
 0004:00003144       $pdata$?write_stored_string_tchar@?$output_processor@DV?$string_output_adapter@D@__crt_stdio_output@@V?$format_validation_base@DV?$string_output_adapter@D@__crt_stdio_output@@@2@@__crt_stdio_output@@AEAA_ND@Z 000000018005a144     libucrt:output.obj
 0004:00003150       $pdata$?write_string@?$stream_output_adapter@D@__crt_stdio_output@@QEBAXQEBDHQEAH1@Z 000000018005a150     libucrt:output.obj
 0004:0000315c       $pdata$?write_string@?$string_output_adapter@D@__crt_stdio_output@@QEBAXQEBDHQEAH1@Z 000000018005a15c     libucrt:output.obj
 0004:00003168       $pdata$__stdio_common_vfprintf 000000018005a168     libucrt:output.obj
 0004:00003174       $pdata$__stdio_common_vsprintf 000000018005a174     libucrt:output.obj
 0004:00003180       $pdata$__stdio_common_vsprintf_s 000000018005a180     libucrt:output.obj
 0004:0000318c       $pdata$abort               000000018005a18c     libucrt:abort.obj
 0004:00003198       $pdata$__acrt_stdio_flush_nolock 000000018005a198     libucrt:fflush.obj
 0004:000031a4       $pdata$_fflush_nolock      000000018005a1a4     libucrt:fflush.obj
 0004:000031b0       $pdata$common_flush_all    000000018005a1b0     libucrt:fflush.obj
 0004:000031bc       $pdata$fflush              000000018005a1bc     libucrt:fflush.obj
 0004:000031c8       $pdata$??$?RV<lambda_a81aa23bb2c9577c1e55b9d0b57d9de4>@@AEAV<lambda_9a20e10065b92b5193c3597a66cba9d4>@@V<lambda_cb3a421ff86d8a5f008440ee6b28fa9c>@@@?$__crt_seh_guarded_call@H@@QEAAH$$QEAV<lambda_a81aa23bb2c9577c1e55b9d0b57d9de4>@@AEAV<lambda_9a20e10065b92b5193c3597a66cba9d4>@@$$QEAV<lambda_cb3a421ff86d8a5f008440ee6b28fa9c>@@@Z 000000018005a1c8     libucrt:fputs.obj
 0004:000031d4       $pdata$??R<lambda_9a20e10065b92b5193c3597a66cba9d4>@@QEBAHXZ 000000018005a1d4     libucrt:fputs.obj
 0004:000031e0       $pdata$fputs               000000018005a1e0     libucrt:fputs.obj
 0004:000031ec       $pdata$strerror            000000018005a1ec     libucrt:strerror.obj
 0004:000031f8       $pdata$??$common_getenv@D@@YAPEADQEBD@Z 000000018005a1f8     libucrt:getenv.obj
 0004:00003204       $pdata$??$common_getenv_nolock@D@@YAPEADQEBD@Z 000000018005a204     libucrt:getenv.obj
 0004:00003210       $pdata$terminate           000000018005a210     libucrt:terminate.obj
 0004:0000321c       $pdata$_callnewh           000000018005a21c     libucrt:new_handler.obj
 0004:00003228       $pdata$_query_new_handler  000000018005a228     libucrt:new_handler.obj
 0004:00003234       $pdata$_seh_filter_exe     000000018005a234     libucrt:exception_filter.obj
 0004:00003240       $pdata$??$parse_command_line@D@@YAXPEADPEAPEAD0PEA_K2@Z 000000018005a240     libucrt:argv_parsing.obj
 0004:0000324c       $pdata$__acrt_allocate_buffer_for_argv 000000018005a24c     libucrt:argv_parsing.obj
 0004:00003258       $pdata$_configure_narrow_argv 000000018005a258     libucrt:argv_parsing.obj
 0004:00003264       $pdata$??$common_get_or_create_environment_nolock@D@@YAPEAPEADXZ 000000018005a264     libucrt:environment_initialization.obj
 0004:00003270       $pdata$??$common_initialize_environment_nolock@D@@YAHXZ 000000018005a270     libucrt:environment_initialization.obj
 0004:0000327c       $pdata$??$create_environment@D@@YAQEAPEADQEAD@Z 000000018005a27c     libucrt:environment_initialization.obj
 0004:00003288       $pdata$??$free_environment@D@@YAXQEAPEAD@Z 000000018005a288     libucrt:environment_initialization.obj
 0004:00003288       $pdata$??$free_environment@_W@@YAXQEAPEA_W@Z 000000018005a288     libucrt:environment_initialization.obj
 0004:00003294       $pdata$??$initialize_environment_by_cloning_nolock@D@@YAHXZ 000000018005a294     libucrt:environment_initialization.obj
 0004:000032a0       $pdata$??$uninitialize_environment_internal@D@@YAXAEAPEAPEAD@Z 000000018005a2a0     libucrt:environment_initialization.obj
 0004:000032ac       $pdata$??$uninitialize_environment_internal@_W@@YAXAEAPEAPEA_W@Z 000000018005a2ac     libucrt:environment_initialization.obj
 0004:000032b8       $pdata$__dcrt_uninitialize_environments_nolock 000000018005a2b8     libucrt:environment_initialization.obj
 0004:000032c4       $pdata$??$?RV<lambda_b8c45f8f788dd370798f47cfe8ac3a86>@@AEAV<lambda_4e60a939b0d047cfe11ddc22648dfba9>@@V<lambda_332c3edc96d0294ec56c57d38c1cdfd5>@@@?$__crt_seh_guarded_call@H@@QEAAH$$QEAV<lambda_b8c45f8f788dd370798f47cfe8ac3a86>@@AEAV<lambda_4e60a939b0d047cfe11ddc22648dfba9>@@$$QEAV<lambda_332c3edc96d0294ec56c57d38c1cdfd5>@@@Z 000000018005a2c4     libucrt:onexit.obj
 0004:000032d0       $pdata$??$?RV<lambda_e24bbb7b643b32fcea6fa61b31d4c984>@@AEAV<lambda_275893d493268fdec8709772e3fcec0e>@@V<lambda_9d71df4d7cf3f480f8d633942495c3b0>@@@?$__crt_seh_guarded_call@H@@QEAAH$$QEAV<lambda_e24bbb7b643b32fcea6fa61b31d4c984>@@AEAV<lambda_275893d493268fdec8709772e3fcec0e>@@$$QEAV<lambda_9d71df4d7cf3f480f8d633942495c3b0>@@@Z 000000018005a2d0     libucrt:onexit.obj
 0004:000032dc       $pdata$??R<lambda_4e60a939b0d047cfe11ddc22648dfba9>@@QEBAHXZ 000000018005a2dc     libucrt:onexit.obj
 0004:000032e8       $pdata$_execute_onexit_table 000000018005a2e8     libucrt:onexit.obj
 0004:000032f4       $pdata$_register_onexit_function 000000018005a2f4     libucrt:onexit.obj
 0004:00003300       $pdata$initialize_c        000000018005a300     libucrt:initialization.obj
 0004:0000330c       $pdata$uninitialize_environment 000000018005a30c     libucrt:initialization.obj
 0004:00003318       $pdata$initialize_pointers 000000018005a318     libucrt:initialization.obj
 0004:00003324       $pdata$uninitialize_allocated_memory 000000018005a324     libucrt:initialization.obj
 0004:00003330       $pdata$__acrt_thread_attach 000000018005a330     libucrt:initialization.obj
 0004:0000333c       $pdata$__acrt_thread_detach 000000018005a33c     libucrt:initialization.obj
 0004:00003348       $pdata$__acrt_uninitialize_critical 000000018005a348     libucrt:initialization.obj
 0004:00003354       $pdata$_initterm           000000018005a354     libucrt:initterm.obj
 0004:00003360       $pdata$_initterm_e         000000018005a360     libucrt:initterm.obj
 0004:0000336c       $pdata$strcpy_s            000000018005a36c     libucrt:strcpy_s.obj
 0004:00003378       $pdata$_free_base          000000018005a378     libucrt:free_base.obj
 0004:00003384       $pdata$_malloc_base        000000018005a384     libucrt:malloc_base.obj
 0004:00003390       $pdata$_calloc_base        000000018005a390     libucrt:calloc_base.obj
 0004:0000339c       $pdata$??$parse_integer@KV?$c_string_character_source@D@__crt_strtox@@@__crt_strtox@@YAKQEAU__crt_locale_pointers@@V?$c_string_character_source@D@0@H_N@Z 000000018005a39c     libucrt:atox.obj
 0004:000033a8       $pdata$atol                000000018005a3a8     libucrt:atox.obj
 0004:000033b4       $pdata$__acrt_call_reportfault 000000018005a3b4     libucrt:invalid_parameter.obj
 0004:000033c0       $pdata$_invalid_parameter  000000018005a3c0     libucrt:invalid_parameter.obj
 0004:000033cc       $pdata$_invalid_parameter_noinfo 000000018005a3cc     libucrt:invalid_parameter.obj
 0004:000033d8       $pdata$_invoke_watson      000000018005a3d8     libucrt:invalid_parameter.obj
 0004:000033e4       $pdata$wcscpy_s            000000018005a3e4     libucrt:wcscpy_s.obj
 0004:000033f0       $pdata$??$?RV<lambda_46352004c1216016012b18bd6f87e700>@@AEAV<lambda_3bd07e1a1191394380780325891bf33f>@@V<lambda_334532d3f185bcaa59b5be82d7d22bff>@@@?$__crt_seh_guarded_call@X@@QEAAX$$QEAV<lambda_46352004c1216016012b18bd6f87e700>@@AEAV<lambda_3bd07e1a1191394380780325891bf33f>@@$$QEAV<lambda_334532d3f185bcaa59b5be82d7d22bff>@@@Z 000000018005a3f0     libucrt:per_thread_data.obj
 0004:000033fc       $pdata$??$?RV<lambda_5e887d1dcbef67a5eb4283622ba103bf>@@AEAV<lambda_4466841279450cc726390878d4a41900>@@V<lambda_341c25c0346d94847f1f3c463c57e077>@@@?$__crt_seh_guarded_call@X@@QEAAX$$QEAV<lambda_5e887d1dcbef67a5eb4283622ba103bf>@@AEAV<lambda_4466841279450cc726390878d4a41900>@@$$QEAV<lambda_341c25c0346d94847f1f3c463c57e077>@@@Z 000000018005a3fc     libucrt:per_thread_data.obj
 0004:00003408       $pdata$??$?RV<lambda_72d1df2b273a38828b1ce30cbf4cdab5>@@AEAV<lambda_876a65b173b8412d3a47c70a915b0cf4>@@V<lambda_41932305e351933ebe8f8be3ed8bb5dc>@@@?$__crt_seh_guarded_call@X@@QEAAX$$QEAV<lambda_72d1df2b273a38828b1ce30cbf4cdab5>@@AEAV<lambda_876a65b173b8412d3a47c70a915b0cf4>@@$$QEAV<lambda_41932305e351933ebe8f8be3ed8bb5dc>@@@Z 000000018005a408     libucrt:per_thread_data.obj
 0004:00003414       $pdata$??$?RV<lambda_fb3a7dec4e47f37f22dae91bb15c9095>@@AEAV<lambda_698284760c8add0bfb0756c19673e34b>@@V<lambda_dfb8eca1e75fef3034a8fb18dd509707>@@@?$__crt_seh_guarded_call@X@@QEAAX$$QEAV<lambda_fb3a7dec4e47f37f22dae91bb15c9095>@@AEAV<lambda_698284760c8add0bfb0756c19673e34b>@@$$QEAV<lambda_dfb8eca1e75fef3034a8fb18dd509707>@@@Z 000000018005a414     libucrt:per_thread_data.obj
 0004:00003420       $pdata$?construct_ptd_array@@YAXQEAU__acrt_ptd@@@Z 000000018005a420     libucrt:per_thread_data.obj
 0004:0000342c       $pdata$?destroy_fls@@YAXPEAX@Z 000000018005a42c     libucrt:per_thread_data.obj
 0004:00003438       $pdata$?destroy_ptd_array@@YAXQEAU__acrt_ptd@@@Z 000000018005a438     libucrt:per_thread_data.obj
 0004:00003444       $pdata$?replace_current_thread_locale_nolock@@YAXQEAU__acrt_ptd@@QEAU__crt_locale_data@@@Z 000000018005a444     libucrt:per_thread_data.obj
 0004:00003450       $pdata$__acrt_freeptd      000000018005a450     libucrt:per_thread_data.obj
 0004:0000345c       $pdata$__acrt_getptd       000000018005a45c     libucrt:per_thread_data.obj
 0004:00003468       $pdata$__acrt_getptd_noexit 000000018005a468     libucrt:per_thread_data.obj
 0004:00003474       $pdata$__acrt_initialize_ptd 000000018005a474     libucrt:per_thread_data.obj
 0004:00003480       $pdata$__acrt_uninitialize_ptd 000000018005a480     libucrt:per_thread_data.obj
 0004:0000348c       $pdata$?try_get_function@@YAPEAXW4function_id@?A0x63058377@@QEBDQEBW4module_id@2@2@Z 000000018005a48c     libucrt:winapi_thunks.obj
 0004:00003498       $pdata$__acrt_CompareStringEx 000000018005a498     libucrt:winapi_thunks.obj
 0004:000034a4       $pdata$__acrt_FlsAlloc     000000018005a4a4     libucrt:winapi_thunks.obj
 0004:000034b0       $pdata$__acrt_FlsFree      000000018005a4b0     libucrt:winapi_thunks.obj
 0004:000034bc       $pdata$__acrt_FlsGetValue  000000018005a4bc     libucrt:winapi_thunks.obj
 0004:000034c8       $pdata$__acrt_FlsSetValue  000000018005a4c8     libucrt:winapi_thunks.obj
 0004:000034d4       $pdata$__acrt_InitializeCriticalSectionEx 000000018005a4d4     libucrt:winapi_thunks.obj
 0004:000034e0       $pdata$__acrt_LCMapStringEx 000000018005a4e0     libucrt:winapi_thunks.obj
 0004:000034ec       $pdata$__acrt_LocaleNameToLCID 000000018005a4ec     libucrt:winapi_thunks.obj
 0004:000034f8       $pdata$__acrt_RoInitialize 000000018005a4f8     libucrt:winapi_thunks.obj
 0004:00003504       $pdata$__acrt_RoUninitialize 000000018005a504     libucrt:winapi_thunks.obj
 0004:00003510       $pdata$__acrt_initialize_winapi_thunks 000000018005a510     libucrt:winapi_thunks.obj
 0004:0000351c       $pdata$__acrt_is_packaged_app 000000018005a51c     libucrt:winapi_thunks.obj
 0004:00003528       $pdata$__acrt_uninitialize_winapi_thunks 000000018005a528     libucrt:winapi_thunks.obj
 0004:00003534       $pdata$__acrt_initialize_locks 000000018005a534     libucrt:locks.obj
 0004:00003540       $pdata$__acrt_uninitialize_locks 000000018005a540     libucrt:locks.obj
 0004:0000354c       $pdata$_fcloseall          000000018005a54c     libucrt:closeall.obj
 0004:00003558       $pdata$__acrt_stdio_free_buffer_nolock 000000018005a558     libucrt:_freebuf.obj
 0004:00003564       $pdata$?initialize_inherited_file_handles_nolock@@YAXXZ 000000018005a564     libucrt:ioinit.obj
 0004:00003570       $pdata$?initialize_stdio_handles_nolock@@YAXXZ 000000018005a570     libucrt:ioinit.obj
 0004:0000357c       $pdata$__acrt_initialize_lowio 000000018005a57c     libucrt:ioinit.obj
 0004:00003588       $pdata$__acrt_uninitialize_lowio 000000018005a588     libucrt:ioinit.obj
 0004:00003594       $pdata$isdigit             000000018005a594     libucrt:_ctype.obj
 0004:000035a0       $pdata$?internal_isupper_l@@YA_NHQEAU__crt_locale_pointers@@@Z 000000018005a5a0     libucrt:tolower_toupper.obj
 0004:000035ac       $pdata$_tolower_l          000000018005a5ac     libucrt:tolower_toupper.obj
 0004:000035b8       $pdata$tolower             000000018005a5b8     libucrt:tolower_toupper.obj
 0004:000035c4       $pdata$strtol              000000018005a5c4     libucrt:strtox.obj
 0004:000035d0       $pdata$_mbtowc_l           000000018005a5d0     libucrt:mbtowc.obj
 0004:000035dc       $pdata$_wctomb_s_l         000000018005a5dc     libucrt:wctomb.obj
 0004:000035e8       $pdata$wctomb_s            000000018005a5e8     libucrt:wctomb.obj
 0004:000035f4       $pdata$strnlen             000000018005a5f4     libucrt:strnlen.obj
 0004:00003600       $pdata$wcsnlen             000000018005a600     libucrt:strnlen.obj
 0004:0000360c       $pdata$__acrt_update_locale_info 000000018005a60c     libucrt:locale_update.obj
 0004:00003618       $pdata$__acrt_update_multibyte_info 000000018005a618     libucrt:locale_update.obj
 0004:00003624       $pdata$?fp_format_a@@YAHQEBNPEAD_KQEAD2H_NIQEAU__crt_locale_pointers@@@Z 000000018005a624     libucrt:cvt.obj
 0004:00003630       $pdata$?fp_format_e@@YAHQEBNQEAD_K12H_NIQEAU__crt_locale_pointers@@@Z 000000018005a630     libucrt:cvt.obj
 0004:0000363c       $pdata$?fp_format_e_internal@@YAHQEAD_KH_NIQEAU_strflt@@2QEAU__crt_locale_pointers@@@Z 000000018005a63c     libucrt:cvt.obj
 0004:00003648       $pdata$?fp_format_f_internal@@YAHQEAD_KHQEAU_strflt@@_NQEAU__crt_locale_pointers@@@Z 000000018005a648     libucrt:cvt.obj
 0004:00003654       $pdata$?fp_format_g@@YAHQEBNQEAD_K12H_NIQEAU__crt_locale_pointers@@@Z 000000018005a654     libucrt:cvt.obj
 0004:00003660       $pdata$?fp_format_nan_or_infinity@@YAHW4__acrt_fp_class@@_NPEAD_K1@Z 000000018005a660     libucrt:cvt.obj
 0004:0000366c       $pdata$__acrt_fp_format    000000018005a66c     libucrt:cvt.obj
 0004:00003678       $pdata$_fileno             000000018005a678     libucrt:fileno.obj
 0004:00003684       $pdata$__acrt_stdio_begin_temporary_buffering_nolock 000000018005a684     libucrt:_sftbuf.obj
 0004:00003690       $pdata$__acrt_stdio_end_temporary_buffering_nolock 000000018005a690     libucrt:_sftbuf.obj
 0004:0000369c       $pdata$__acrt_uninitialize_locale 000000018005a69c     libucrt:wsetlocale.obj
 0004:000036a8       $pdata$??$?RV<lambda_c36588078e9f5dfd39652860aa6b3aaf>@@AEAV<lambda_ec61778202f4f5fc7e7711acc23c3bca>@@V<lambda_dc9d2797ccde5d239b4a0efae8ebd7db>@@@?$__crt_seh_guarded_call@P6AXH@Z@@QEAAP6AXH@Z$$QEAV<lambda_c36588078e9f5dfd39652860aa6b3aaf>@@AEAV<lambda_ec61778202f4f5fc7e7711acc23c3bca>@@$$QEAV<lambda_dc9d2797ccde5d239b4a0efae8ebd7db>@@@Z 000000018005a6a8     libucrt:signal.obj
 0004:000036b4       $pdata$__acrt_get_sigabrt_handler 000000018005a6b4     libucrt:signal.obj
 0004:000036c0       $pdata$raise               000000018005a6c0     libucrt:signal.obj
 0004:000036cc       $pdata$??$?RV<lambda_b521505b218e5242e90febf6bfebc422>@@AEAV<lambda_6978c1fb23f02e42e1d9e99668cc68aa>@@V<lambda_314360699dd331753a4119843814e9a7>@@@?$__crt_seh_guarded_call@H@@QEAAH$$QEAV<lambda_b521505b218e5242e90febf6bfebc422>@@AEAV<lambda_6978c1fb23f02e42e1d9e99668cc68aa>@@$$QEAV<lambda_314360699dd331753a4119843814e9a7>@@@Z 000000018005a6cc     libucrt:commit.obj
 0004:000036d8       $pdata$_commit             000000018005a6d8     libucrt:commit.obj
 0004:000036e4       $pdata$?write_double_translated_ansi_nolock@@YA?AUwrite_result@?A0x9c548279@@HQEBDI@Z 000000018005a6e4     libucrt:write.obj
 0004:000036f0       $pdata$?write_text_ansi_nolock@@YA?AUwrite_result@?A0x9c548279@@HQEBDI@Z 000000018005a6f0     libucrt:write.obj
 0004:000036fc       $pdata$?write_text_utf16le_nolock@@YA?AUwrite_result@?A0x9c548279@@HQEBDI@Z 000000018005a6fc     libucrt:write.obj
 0004:00003708       $pdata$?write_text_utf8_nolock@@YA?AUwrite_result@?A0x9c548279@@HQEBDI@Z 000000018005a708     libucrt:write.obj
 0004:00003714       $pdata$_write              000000018005a714     libucrt:write.obj
 0004:00003720       $pdata$_write_nolock       000000018005a720     libucrt:write.obj
 0004:0000372c       $pdata$_fwrite_nolock      000000018005a72c     libucrt:fwrite.obj
 0004:00003738       $pdata$_strnicoll_l        000000018005a738     libucrt:strnicol.obj
 0004:00003744       $pdata$??$common_expand_argv_wildcards@D@@YAHQEAPEADQEAPEAPEAD@Z 000000018005a744     libucrt:argv_wildcards.obj
 0004:00003750       $pdata$??$copy_and_add_argument_to_buffer@D@@YAHQEBD0_KAEAV?$argument_list@D@?A0xca0879c4@@@Z 000000018005a750     libucrt:argv_wildcards.obj
 0004:0000375c       $pdata$??$expand_argument_wildcards@D@@YAHQEAD0AEAV?$argument_list@D@?A0xca0879c4@@@Z 000000018005a75c     libucrt:argv_wildcards.obj
 0004:00003768       $pdata$?expand_if_necessary@?$argument_list@D@?A0xca0879c4@@AEAAHXZ 000000018005a768     libucrt:argv_wildcards.obj
 0004:00003774       $pdata$??$?RV<lambda_99476a1ad63dd22509b5d3e65b0ffc95>@@AEAV<lambda_ad1ced32f4ac17aa236e5ef05d6b3b7c>@@V<lambda_f7424dd8d45958661754dc4f2697e9c3>@@@?$__crt_seh_guarded_call@X@@QEAAX$$QEAV<lambda_99476a1ad63dd22509b5d3e65b0ffc95>@@AEAV<lambda_ad1ced32f4ac17aa236e5ef05d6b3b7c>@@$$QEAV<lambda_f7424dd8d45958661754dc4f2697e9c3>@@@Z 000000018005a774     libucrt:mbctype.obj
 0004:00003780       $pdata$??R<lambda_ad1ced32f4ac17aa236e5ef05d6b3b7c>@@QEBAXXZ 000000018005a780     libucrt:mbctype.obj
 0004:0000378c       $pdata$?getSystemCP@@YAHH@Z 000000018005a78c     libucrt:mbctype.obj
 0004:00003798       $pdata$?setSBCS@@YAXPEAU__crt_multibyte_data@@@Z 000000018005a798     libucrt:mbctype.obj
 0004:000037a4       $pdata$?setSBUpLow@@YAXPEAU__crt_multibyte_data@@@Z 000000018005a7a4     libucrt:mbctype.obj
 0004:000037b0       $pdata$?setmbcp_internal@@YAHH_N@Z 000000018005a7b0     libucrt:mbctype.obj
 0004:000037bc       $pdata$__acrt_initialize_multibyte 000000018005a7bc     libucrt:mbctype.obj
 0004:000037c8       $pdata$__acrt_update_thread_multibyte_data 000000018005a7c8     libucrt:mbctype.obj
 0004:000037d4       $pdata$_setmbcp_nolock     000000018005a7d4     libucrt:mbctype.obj
 0004:000037e0       $pdata$?x_ismbbtype_l@@YAHPEAU__crt_locale_pointers@@IHH@Z 000000018005a7e0     libucrt:ismbbyte.obj
 0004:000037ec       $pdata$__acrt_initialize_command_line 000000018005a7ec     libucrt:argv_data.obj
 0004:000037f8       $pdata$__dcrt_get_narrow_environment_from_os 000000018005a7f8     libucrt:get_environment_from_os.obj
 0004:00003804       $pdata$??$common_set_variable_in_environment_nolock@D@@YAHQEADH@Z 000000018005a804     libucrt:setenv.obj
 0004:00003810       $pdata$??$copy_environment@D@@YAPEAPEADQEAPEAD@Z 000000018005a810     libucrt:setenv.obj
 0004:0000381c       $pdata$_recalloc_base      000000018005a81c     libucrt:recalloc.obj
 0004:00003828       $pdata$__acrt_initialize_heap 000000018005a828     libucrt:heap_handle.obj
 0004:00003834       $pdata$__acrt_execute_initializers 000000018005a834     libucrt:shared_initialization.obj
 0004:00003840       $pdata$__acrt_execute_uninitializers 000000018005a840     libucrt:shared_initialization.obj
 0004:0000384c       $pdata$__acrt_invoke_user_matherr 000000018005a84c     libucrt:matherr.obj
 0004:00003858       $pdata$__pctype_func       000000018005a858     libucrt:ctype.obj
 0004:00003864       $pdata$_isctype_l          000000018005a864     libucrt:isctype.obj
 0004:00003870       $pdata$__acrt_free_locale  000000018005a870     libucrt:locale_refcounting.obj
 0004:0000387c       $pdata$__acrt_locale_free_lc_time_if_unreferenced 000000018005a87c     libucrt:locale_refcounting.obj
 0004:00003888       $pdata$__acrt_release_locale_ref 000000018005a888     libucrt:locale_refcounting.obj
 0004:00003894       $pdata$__acrt_update_thread_locale_data 000000018005a894     libucrt:locale_refcounting.obj
 0004:000038a0       $pdata$_updatetlocinfoEx_nolock 000000018005a8a0     libucrt:locale_refcounting.obj
 0004:000038ac       $pdata$?GetTableIndexFromLocaleName@@YAHPEB_W@Z 000000018005a8ac     libucrt:lcidtoname_downlevel.obj
 0004:000038b8       $pdata$__acrt_DownlevelLocaleNameToLCID 000000018005a8b8     libucrt:lcidtoname_downlevel.obj
 0004:000038c4       $pdata$_fclose_nolock      000000018005a8c4     libucrt:fclose.obj
 0004:000038d0       $pdata$fclose              000000018005a8d0     libucrt:fclose.obj
 0004:000038dc       $pdata$__acrt_lowio_create_handle_array 000000018005a8dc     libucrt:osfinfo.obj
 0004:000038e8       $pdata$__acrt_lowio_destroy_handle_array 000000018005a8e8     libucrt:osfinfo.obj
 0004:000038f4       $pdata$__acrt_lowio_ensure_fh_exists 000000018005a8f4     libucrt:osfinfo.obj
 0004:00003900       $pdata$_free_osfhnd        000000018005a900     libucrt:osfinfo.obj
 0004:0000390c       $pdata$_get_osfhandle      000000018005a90c     libucrt:osfinfo.obj
 0004:00003918       $pdata$_isleadbyte_l       000000018005a918     libucrt:_wctype.obj
 0004:00003924       $pdata$?__acrt_LCMapStringA_stat@@YAHPEAU__crt_locale_pointers@@PEB_WKPEBDHPEADHHH@Z 000000018005a924     libucrt:lcmapstringa.obj
 0004:00003930       $pdata$__acrt_LCMapStringA 000000018005a930     libucrt:lcmapstringa.obj
 0004:0000393c       $pdata$__acrt_fp_strflt_to_string 000000018005a93c     libucrt:_fptostr.obj
 0004:00003948       $pdata$?divide@__crt_strtox@@YA_KAEAUbig_integer@1@AEBU21@@Z 000000018005a948     libucrt:cfout.obj
 0004:00003954       $pdata$5$?divide@__crt_strtox@@YA_KAEAUbig_integer@1@AEBU21@@Z 000000018005a954     libucrt:cfout.obj
 0004:00003960       $pdata$6$?divide@__crt_strtox@@YA_KAEAUbig_integer@1@AEBU21@@Z 000000018005a960     libucrt:cfout.obj
 0004:0000396c       $pdata$__acrt_fltout       000000018005a96c     libucrt:cfout.obj
 0004:00003978       $pdata$memcpy_s            000000018005a978     libucrt:cfout.obj
 0004:00003984       $pdata$??$write_buffer_nolock@D@@YA_NDV__crt_stdio_stream@@@Z 000000018005a984     libucrt:_flsbuf.obj
 0004:00003990       $pdata$__acrt_stdio_flush_and_write_narrow_nolock 000000018005a990     libucrt:_flsbuf.obj
 0004:0000399c       $pdata$_isatty             000000018005a99c     libucrt:isatty.obj
 0004:000039a8       $pdata$__acrt_locale_free_monetary 000000018005a9a8     libucrt:initmon.obj
 0004:000039b4       $pdata$__acrt_locale_free_numeric 000000018005a9b4     libucrt:initnum.obj
 0004:000039c0       $pdata$?free_crt_array_internal@@YAXQEAPEBX_K@Z 000000018005a9c0     libucrt:inittime.obj
 0004:000039cc       $pdata$__acrt_locale_free_time 000000018005a9cc     libucrt:inittime.obj
 0004:000039d8       $pdata$__acrt_GetStringTypeA 000000018005a9d8     libucrt:getstringtypea.obj
 0004:000039e4       $pdata$??$common_lseek@_J@@YA_JH_JH@Z 000000018005a9e4     libucrt:lseek.obj
 0004:000039f0       $pdata$??$common_lseek_nolock@_J@@YA_JH_JH@Z 000000018005a9f0     libucrt:lseek.obj
 0004:000039fc       $pdata$_putwch_nolock      000000018005a9fc     libucrt:putwch.obj
 0004:00003a08       $pdata$_strnicmp           000000018005aa08     libucrt:strnicmp.obj
 0004:00003a14       $pdata$_strnicmp_l         000000018005aa14     libucrt:strnicmp.obj
 0004:00003a20       $pdata$?InternalCompareStringA@@YAHPEAU__crt_locale_pointers@@PEB_WKPEBDH2HH@Z 000000018005aa20     libucrt:comparestringa.obj
 0004:00003a2c       $pdata$__acrt_CompareStringA 000000018005aa2c     libucrt:comparestringa.obj
 0004:00003a38       $pdata$?shortsort@@YAXPEAD0_KP6AHPEBX2@Z@Z 000000018005aa38     libucrt:qsort.obj
 0004:00003a44       $pdata$2$?shortsort@@YAXPEAD0_KP6AHPEBX2@Z@Z 000000018005aa44     libucrt:qsort.obj
 0004:00003a50       $pdata$3$?shortsort@@YAXPEAD0_KP6AHPEBX2@Z@Z 000000018005aa50     libucrt:qsort.obj
 0004:00003a5c       $pdata$qsort               000000018005aa5c     libucrt:qsort.obj
 0004:00003a68       $pdata$4$qsort             000000018005aa68     libucrt:qsort.obj
 0004:00003a74       $pdata$5$qsort             000000018005aa74     libucrt:qsort.obj
 0004:00003a80       $pdata$strpbrk             000000018005aa80     libucrt:strpbrk.obj
 0004:00003a8c       $pdata$_mbsdec_l           000000018005aa8c     libucrt:mbsdec.obj
 0004:00003a98       $pdata$?initialize_multibyte@@YAHXZ 000000018005aa98     libucrt:multibyte_initializer.obj
 0004:00003aa4       $pdata$_msize              000000018005aaa4     libucrt:msize.obj
 0004:00003ab0       $pdata$_realloc_base       000000018005aab0     libucrt:realloc_base.obj
 0004:00003abc       $pdata$??$?RV<lambda_bfedae4ebbf01fab1bb6dcc6a9e276e0>@@AEAV<lambda_2fe9b910cf3cbf4a0ab98a02ba45b3ec>@@V<lambda_237c231691f317818eb88cc1d5d642d6>@@@?$__crt_seh_guarded_call@H@@QEAAH$$QEAV<lambda_bfedae4ebbf01fab1bb6dcc6a9e276e0>@@AEAV<lambda_2fe9b910cf3cbf4a0ab98a02ba45b3ec>@@$$QEAV<lambda_237c231691f317818eb88cc1d5d642d6>@@@Z 000000018005aabc     libucrt:close.obj
 0004:00003ac8       $pdata$_close              000000018005aac8     libucrt:close.obj
 0004:00003ad4       $pdata$_close_nolock       000000018005aad4     libucrt:close.obj
 0004:00003ae0       $pdata$fegetenv            000000018005aae0     libucrt:fegetenv.obj
 0004:00003aec       $pdata$fesetenv            000000018005aaec     libucrt:fesetenv.obj
 0004:00003af8       $pdata$feholdexcept        000000018005aaf8     libucrt:feholdexcept.obj
 0004:00003b10       $pdata$__acrt_stdio_allocate_buffer_nolock 000000018005ab10     libucrt:_getbuf.obj
 0004:00003b1c       $pdata$__dcrt_lowio_initialize_console_output 000000018005ab1c     libucrt:initcon.obj
 0004:00003b28       $pdata$__dcrt_terminate_console_output 000000018005ab28     libucrt:initcon.obj
 0004:00003b34       $pdata$_getfpcontrolword   000000018005ab34     libucrt:_fenvutils.obj
 0004:00003b40       $pdata$_getfpstatusword    000000018005ab40     libucrt:_fenvutils.obj
 0004:00003b4c       $pdata$_setfpstatusword    000000018005ab4c     libucrt:_fenvutils.obj
 0004:00003b58       $pdata$_clearfp            000000018005ab58     libucrt:ieee.obj
 0004:00003b64       $pdata$common_control87    000000018005ab64     libucrt:ieee.obj
 0004:00003b70       $pdata$_call_matherr       000000018005ab70     libucrt:libm_error.obj
 0004:00003b7c       $pdata$_exception_enabled  000000018005ab7c     libucrt:libm_error.obj
 0004:00003b88       $pdata$_handle_error       000000018005ab88     libucrt:libm_error.obj
 0004:00003b94       $pdata$__acrt_initialize_fma3 000000018005ab94     libucrt:fma3_available.obj
 0004:00003ba0       $pdata$_log10_special      000000018005aba0     libucrt:log_special.obj
 0004:00003bac       $pdata$_log_special_common 000000018005abac     libucrt:log_special.obj
 0004:00003bc4       $pdata$_raise_exc          000000018005abc4     libucrt:fpexcept.obj
 0004:00003bd0       $pdata$_raise_exc_ex       000000018005abd0     libucrt:fpexcept.obj
 0004:00003bdc       $pdata$_set_errno_from_matherr 000000018005abdc     libucrt:fpexcept.obj
 0004:00003be8       $pdata$_clrfp              000000018005abe8     libucrt:fpctrl.obj
 0004:00003bf4       $pdata$_ctrlfp             000000018005abf4     libucrt:fpctrl.obj
 0004:00003c00       $pdata$_set_statfp         000000018005ac00     libucrt:fpctrl.obj
 0004:00003c0c       $pdata$_statfp             000000018005ac0c     libucrt:fpctrl.obj
 0004:00003c18       $pdata$_IsNonwritableInCurrentImage 000000018005ac18     LIBCMT:pesect.obj
 0004:00003c30       $pdata$strchr              000000018005ac30     libvcruntime:strchr.obj
 0004:00003c3c       $pdata$__GSHandlerCheck_EH 000000018005ac3c     LIBCMT:gshandlereh.obj
 0004:00003c54       $pdata$?catch$2@?0??push@micro_queue@internal@tbb@@QEAAXPEBX_KAEAVconcurrent_queue_base_v3@23@W4copy_specifics@423@@Z@4HA 000000018005ac54     concurrent_queue.obj
 0004:00003c60       $pdata$?catch$3@?0??push@micro_queue@internal@tbb@@QEAAXPEBX_KAEAVconcurrent_queue_base_v3@23@W4copy_specifics@423@@Z@4HA 000000018005ac60     concurrent_queue.obj
 0004:00003c6c       $pdata$?catch$0@?0??assign@micro_queue@internal@tbb@@QEAAAEAU123@AEBU123@AEAVconcurrent_queue_base_v3@23@W4copy_specifics@423@@Z@4HA 000000018005ac6c     concurrent_queue.obj
 0004:00003c78       $pdata$?catch$6@?0??internal_insert_item@concurrent_queue_base_v3@internal@tbb@@IEAAXPEBXW4copy_specifics@123@@Z@4HA 000000018005ac78     concurrent_queue.obj
 0004:00003c84       $pdata$?catch$5@?0??internal_insert_item@concurrent_queue_base_v3@internal@tbb@@IEAAXPEBXW4copy_specifics@123@@Z@4HA 000000018005ac84     concurrent_queue.obj
 0004:00003c90       $pdata$?catch$8@?0??internal_pop@concurrent_queue_base_v3@internal@tbb@@IEAAXPEAX@Z@4HA 000000018005ac90     concurrent_queue.obj
 0004:00003c9c       $pdata$?catch$7@?0??internal_pop@concurrent_queue_base_v3@internal@tbb@@IEAAXPEAX@Z@4HA 000000018005ac9c     concurrent_queue.obj
 0004:00003ca8       $pdata$?catch$4@?0??internal_compact@concurrent_vector_base_v3@internal@tbb@@IEAAPEAX_KPEAXP6AX10@ZP6AX1PEBX0@Z@Z@4HA 000000018005aca8     concurrent_vector.obj
 0004:00003cb4       $pdata$?dtor$0@?0??add_filter@pipeline@tbb@@QEAAXAEAVfilter@2@@Z@4HA 000000018005acb4     pipeline.obj
 0004:00003cc0       $pdata$?dtor$1@?0??add_filter@pipeline@tbb@@QEAAXAEAVfilter@2@@Z@4HA 000000018005acc0     pipeline.obj
 0004:00003ccc       $pdata$?dtor$2@?0??add_filter@pipeline@tbb@@QEAAXAEAVfilter@2@@Z@4HA 000000018005accc     pipeline.obj
 0004:00003cd8       $pdata$?dtor$3@?0??add_filter@pipeline@tbb@@QEAAXAEAVfilter@2@@Z@4HA 000000018005acd8     pipeline.obj
 0004:00003ce4       $pdata$?dtor$0@?0???0private_server@rml@internal@tbb@@QEAA@AEAVtbb_client@123@@Z@4HA 000000018005ace4     private_server.obj
 0004:00003cf0       $pdata$?catch$0@?0??register_pending_exception@task_group_context@tbb@@QEAAXXZ@4HA 000000018005acf0     task_group_context.obj
 0004:00003cfc       $pdata$?catch$1@?0??register_pending_exception@task_group_context@tbb@@QEAAXXZ@4HA 000000018005acfc     task_group_context.obj
 0004:00003d08       $pdata$?catch$2@?0??register_pending_exception@task_group_context@tbb@@QEAAXXZ@4HA 000000018005ad08     task_group_context.obj
 0004:00003d14       $pdata$?dtor$0@?0??create_rml_server@governor@internal@tbb@@CAPEAVtbb_server@rml@23@AEAVtbb_client@523@@Z@4HA 000000018005ad14     governor.obj
 0004:00003d20       $pdata$?dtor$1@?0??global_market@market@internal@tbb@@CAAEAV123@_NI_K@Z@4HA 000000018005ad20     market.obj
 0004:00003d2c       $pdata$?dtor$0@?0??allocate_arena@arena@internal@tbb@@SAAEAV123@AEAVmarket@23@II@Z@4HA 000000018005ad2c     arena.obj
 0004:00003d38       $pdata$?catch$16@?0??internal_execute@task_arena_base@internal@interface7@tbb@@IEBAXAEAVdelegate_base@234@@Z@4HA 000000018005ad38     arena.obj
 0004:00003d44       $pdata$?dtor$0@?0??initialize@?$task_stream@$02@internal@tbb@@QEAAXI@Z@4HA 000000018005ad44     arena.obj
 0004:00003d50       $pdata$?dtor$0@?0??allocate_scheduler@?$custom_scheduler@UIntelSchedulerTraits@internal@tbb@@@internal@tbb@@SAPEAVgeneric_scheduler@23@AEAVmarket@23@@Z@4HA 000000018005ad50     scheduler.obj
 0004:00003d50       $pdata$?dtor$0@?0??allocate_scheduler@?$custom_scheduler@UDefaultSchedulerTraits@internal@tbb@@@internal@tbb@@SAPEAVgeneric_scheduler@23@AEAVmarket@23@@Z@4HA 000000018005ad50     scheduler.obj
 0004:00003d5c       $pdata$?catch$4@?0??local_wait_for_all@?$custom_scheduler@UDefaultSchedulerTraits@internal@tbb@@@internal@tbb@@EEAAXAEAVtask@3@PEAV43@@Z@4HA 000000018005ad5c     scheduler.obj
 0004:00003d68       $pdata$?catch$5@?0??local_wait_for_all@?$custom_scheduler@UDefaultSchedulerTraits@internal@tbb@@@internal@tbb@@EEAAXAEAVtask@3@PEAV43@@Z@4HA 000000018005ad68     scheduler.obj
 0004:00003d74       $pdata$?catch$6@?0??local_wait_for_all@?$custom_scheduler@UDefaultSchedulerTraits@internal@tbb@@@internal@tbb@@EEAAXAEAVtask@3@PEAV43@@Z@4HA 000000018005ad74     scheduler.obj
 0004:00003d80       $pdata$?catch$4@?0??local_wait_for_all@?$custom_scheduler@UIntelSchedulerTraits@internal@tbb@@@internal@tbb@@EEAAXAEAVtask@3@PEAV43@@Z@4HA 000000018005ad80     scheduler.obj
 0004:00003d8c       $pdata$?catch$5@?0??local_wait_for_all@?$custom_scheduler@UIntelSchedulerTraits@internal@tbb@@@internal@tbb@@EEAAXAEAVtask@3@PEAV43@@Z@4HA 000000018005ad8c     scheduler.obj
 0004:00003d98       $pdata$?catch$6@?0??local_wait_for_all@?$custom_scheduler@UIntelSchedulerTraits@internal@tbb@@@internal@tbb@@EEAAXAEAVtask@3@PEAV43@@Z@4HA 000000018005ad98     scheduler.obj
 0004:00003da4       $pdata$?dtor$1@?0???$?0AEAPEAUEHExceptionRecord@@_N@?$_Ref_count_obj_alloc@V__ExceptionPtr@@U?$_StaticAllocator@H@@@std@@QEAA@AEBU?$_StaticAllocator@H@@AEAPEAUEHExceptionRecord@@$$QEA_N@Z@4HA 000000018005ada4     libcpmt:excptptr.obj
 0004:00003db0       $pdata$?dtor$11@?0???$allocate_shared@V__ExceptionPtr@@U?$_StaticAllocator@H@@AEAPEAUEHExceptionRecord@@_N@std@@YA?AV?$shared_ptr@V__ExceptionPtr@@@0@AEBU?$_StaticAllocator@H@@AEAPEAUEHExceptionRecord@@$$QEA_N@Z@4HA 000000018005adb0     libcpmt:excptptr.obj
 0004:00003dbc       $pdata$?catch$18@?0???$allocate_shared@V__ExceptionPtr@@U?$_StaticAllocator@H@@AEAPEAUEHExceptionRecord@@_N@std@@YA?AV?$shared_ptr@V__ExceptionPtr@@@0@AEBU?$_StaticAllocator@H@@AEAPEAUEHExceptionRecord@@$$QEA_N@Z@4HA 000000018005adbc     libcpmt:excptptr.obj
 0004:00003dc8       $pdata$?dtor$0@?0???$make_shared@V__ExceptionPtr@@AEAPEAUEHExceptionRecord@@_N@std@@YA?AV?$shared_ptr@V__ExceptionPtr@@@0@AEAPEAUEHExceptionRecord@@$$QEA_N@Z@4HA 000000018005adc8     libcpmt:excptptr.obj
 0004:00003dd4       $pdata$?dtor$5@?0???$make_shared@V__ExceptionPtr@@AEAPEAUEHExceptionRecord@@_N@std@@YA?AV?$shared_ptr@V__ExceptionPtr@@@0@AEAPEAUEHExceptionRecord@@$$QEA_N@Z@4HA 000000018005add4     libcpmt:excptptr.obj
 0004:00003de0       $pdata$?catch$0@?0??_CallCopyCtor@__ExceptionPtr@@AEBAXPEAX0_KQEBU_s_CatchableType@@@Z@4HA 000000018005ade0     libcpmt:excptptr.obj
 0004:00003dec       $pdata$?catch$3@?0??_CopyException@__ExceptionPtr@@SA?AV?$shared_ptr@V__ExceptionPtr@@@std@@PEBXPEBU_s_ThrowInfo@@_N@Z@4HA 000000018005adec     libcpmt:excptptr.obj
 0004:00003df8       $pdata$?catch$4@?0??_CopyException@__ExceptionPtr@@SA?AV?$shared_ptr@V__ExceptionPtr@@@std@@PEBXPEBU_s_ThrowInfo@@_N@Z@4HA 000000018005adf8     libcpmt:excptptr.obj
 0004:00003e04       $pdata$?catch$6@?0??_CurrentException@__ExceptionPtr@@SA?AV?$shared_ptr@V__ExceptionPtr@@@std@@XZ@4HA 000000018005ae04     libcpmt:excptptr.obj
 0004:00003e10       $pdata$?catch$5@?0??_CurrentException@__ExceptionPtr@@SA?AV?$shared_ptr@V__ExceptionPtr@@@std@@XZ@4HA 000000018005ae10     libcpmt:excptptr.obj
 0004:00003e1c       $pdata$?fin$0@?0???_M@YAXPEAX_K1P6AX0@Z@Z@4HA 000000018005ae1c     LIBCMT:ehvecdtr.obj
 0004:00003e28       $pdata$?filt$0@?0??__ArrayUnwind@@YAXPEAX_K1P6AX0@Z@Z@4HA 000000018005ae28     LIBCMT:ehvecdtr.obj
 0004:00003e34       $pdata$?fin$0@?0???_L@YAXPEAX_K1P6AX0@Z2@Z@4HA 000000018005ae34     LIBCMT:ehvecctr.obj
 0004:00003e40       $pdata$__scrt_is_nonwritable_in_current_image$filt$0 000000018005ae40     LIBCMT:utility.obj
 0004:00003e4c       $pdata$?fin$0@?0??dllmain_crt_process_attach@@YAHQEAUHINSTANCE__@@QEAX@Z@4HA 000000018005ae4c     LIBCMT:dll_dllmain.obj
 0004:00003e58       $pdata$?fin$0@?0??dllmain_crt_process_detach@@YAH_N@Z@4HA 000000018005ae58     LIBCMT:dll_dllmain.obj
 0004:00003e64       $pdata$?filt$0@?0??dllmain_dispatch@@YAHQEAUHINSTANCE__@@KQEAX@Z@4HA 000000018005ae64     LIBCMT:dll_dllmain.obj
 0004:00003e70       $pdata$__CxxCallCatchBlock$filt$0 000000018005ae70     libvcruntime:frame.obj
 0004:00003e7c       $pdata$__CxxCallCatchBlock$fin$1 000000018005ae7c     libvcruntime:frame.obj
 0004:00003e88       $pdata$__DestructExceptionObject$filt$0 000000018005ae88     libvcruntime:frame.obj
 0004:00003e94       $pdata$__FrameUnwindToState$filt$0 000000018005ae94     libvcruntime:frame.obj
 0004:00003ea0       $pdata$__FrameUnwindToState$fin$1 000000018005aea0     libvcruntime:frame.obj
 0004:00003eac       $pdata$_CallSETranslator$filt$0 000000018005aeac     libvcruntime:trnsctrl.obj
 0004:00003eb8       $pdata$__unDName$fin$0     000000018005aeb8     libvcruntime:undname.obj
 0004:00003ec4       $pdata$?filt$0@?0???$thread_start@P6AIPEAX@Z@@YAKQEAX@Z@4HA 000000018005aec4     libucrt:thread.obj
 0004:00003ed0       $pdata$?filt$0@?0??common_exit@@YAXHW4_crt_exit_cleanup_mode@@W4_crt_exit_return_mode@@@Z@4HA 000000018005aed0     libucrt:exit.obj
 0004:00003edc       $pdata$?fin$1@?0??common_exit@@YAXHW4_crt_exit_cleanup_mode@@W4_crt_exit_return_mode@@@Z@4HA 000000018005aedc     libucrt:exit.obj
 0004:00003ee8       $pdata$?fin$0@?0???$?RV<lambda_a81aa23bb2c9577c1e55b9d0b57d9de4>@@AEAV<lambda_9a20e10065b92b5193c3597a66cba9d4>@@V<lambda_cb3a421ff86d8a5f008440ee6b28fa9c>@@@?$__crt_seh_guarded_call@H@@QEAAH$$QEAV<lambda_a81aa23bb2c9577c1e55b9d0b57d9de4>@@AEAV<lambda_9a20e10065b92b5193c3597a66cba9d4>@@$$QEAV<lambda_cb3a421ff86d8a5f008440ee6b28fa9c>@@@Z@4HA 000000018005aee8     libucrt:fputs.obj
 0004:00003ee8       $pdata$?fin$0@?0???$?RV<lambda_aa279a7bcb127014629d5b1d62c7325d>@@AEAV<lambda_0a64b6a4deda75c01876f29c44fc5eb3>@@V<lambda_3323e69fbefe9d1a11713e670d47cdfa>@@@?$__crt_seh_guarded_call@H@@QEAAH$$QEAV<lambda_aa279a7bcb127014629d5b1d62c7325d>@@AEAV<lambda_0a64b6a4deda75c01876f29c44fc5eb3>@@$$QEAV<lambda_3323e69fbefe9d1a11713e670d47cdfa>@@@Z@4HA 000000018005aee8     libucrt:output.obj
 0004:00003ef4       $pdata$common_flush_all$fin$0 000000018005aef4     libucrt:fflush.obj
 0004:00003f00       $pdata$common_flush_all$fin$1 000000018005af00     libucrt:fflush.obj
 0004:00003f0c       $pdata$fflush$fin$0        000000018005af0c     libucrt:fflush.obj
 0004:00003f0c       $pdata$fclose$fin$0        000000018005af0c     libucrt:fclose.obj
 0004:00003f18       $pdata$?fin$0@?0???$common_getenv@D@@YAPEADQEBD@Z@4HA 000000018005af18     libucrt:getenv.obj
 0004:00003f24       $pdata$_query_new_handler$fin$0 000000018005af24     libucrt:new_handler.obj
 0004:00003f30       $pdata$?fin$0@?0???$?RV<lambda_e24bbb7b643b32fcea6fa61b31d4c984>@@AEAV<lambda_275893d493268fdec8709772e3fcec0e>@@V<lambda_9d71df4d7cf3f480f8d633942495c3b0>@@@?$__crt_seh_guarded_call@H@@QEAAH$$QEAV<lambda_e24bbb7b643b32fcea6fa61b31d4c984>@@AEAV<lambda_275893d493268fdec8709772e3fcec0e>@@$$QEAV<lambda_9d71df4d7cf3f480f8d633942495c3b0>@@@Z@4HA 000000018005af30     libucrt:onexit.obj
 0004:00003f3c       $pdata$?fin$0@?0???$?RV<lambda_99476a1ad63dd22509b5d3e65b0ffc95>@@AEAV<lambda_ad1ced32f4ac17aa236e5ef05d6b3b7c>@@V<lambda_f7424dd8d45958661754dc4f2697e9c3>@@@?$__crt_seh_guarded_call@X@@QEAAX$$QEAV<lambda_99476a1ad63dd22509b5d3e65b0ffc95>@@AEAV<lambda_ad1ced32f4ac17aa236e5ef05d6b3b7c>@@$$QEAV<lambda_f7424dd8d45958661754dc4f2697e9c3>@@@Z@4HA 000000018005af3c     libucrt:mbctype.obj
 0004:00003f3c       $pdata$?fin$0@?0???$?RV<lambda_46352004c1216016012b18bd6f87e700>@@AEAV<lambda_3bd07e1a1191394380780325891bf33f>@@V<lambda_334532d3f185bcaa59b5be82d7d22bff>@@@?$__crt_seh_guarded_call@X@@QEAAX$$QEAV<lambda_46352004c1216016012b18bd6f87e700>@@AEAV<lambda_3bd07e1a1191394380780325891bf33f>@@$$QEAV<lambda_334532d3f185bcaa59b5be82d7d22bff>@@@Z@4HA 000000018005af3c     libucrt:per_thread_data.obj
 0004:00003f3c       $pdata$?fin$0@?0???$?RV<lambda_72d1df2b273a38828b1ce30cbf4cdab5>@@AEAV<lambda_876a65b173b8412d3a47c70a915b0cf4>@@V<lambda_41932305e351933ebe8f8be3ed8bb5dc>@@@?$__crt_seh_guarded_call@X@@QEAAX$$QEAV<lambda_72d1df2b273a38828b1ce30cbf4cdab5>@@AEAV<lambda_876a65b173b8412d3a47c70a915b0cf4>@@$$QEAV<lambda_41932305e351933ebe8f8be3ed8bb5dc>@@@Z@4HA 000000018005af3c     libucrt:per_thread_data.obj
 0004:00003f3c       $pdata$?fin$0@?0???$?RV<lambda_b8c45f8f788dd370798f47cfe8ac3a86>@@AEAV<lambda_4e60a939b0d047cfe11ddc22648dfba9>@@V<lambda_332c3edc96d0294ec56c57d38c1cdfd5>@@@?$__crt_seh_guarded_call@H@@QEAAH$$QEAV<lambda_b8c45f8f788dd370798f47cfe8ac3a86>@@AEAV<lambda_4e60a939b0d047cfe11ddc22648dfba9>@@$$QEAV<lambda_332c3edc96d0294ec56c57d38c1cdfd5>@@@Z@4HA 000000018005af3c     libucrt:onexit.obj
 0004:00003f3c       $pdata$?fin$0@?0???$?RV<lambda_fb3a7dec4e47f37f22dae91bb15c9095>@@AEAV<lambda_698284760c8add0bfb0756c19673e34b>@@V<lambda_dfb8eca1e75fef3034a8fb18dd509707>@@@?$__crt_seh_guarded_call@X@@QEAAX$$QEAV<lambda_fb3a7dec4e47f37f22dae91bb15c9095>@@AEAV<lambda_698284760c8add0bfb0756c19673e34b>@@$$QEAV<lambda_dfb8eca1e75fef3034a8fb18dd509707>@@@Z@4HA 000000018005af3c     libucrt:per_thread_data.obj
 0004:00003f3c       $pdata$?fin$0@?0???$?RV<lambda_5e887d1dcbef67a5eb4283622ba103bf>@@AEAV<lambda_4466841279450cc726390878d4a41900>@@V<lambda_341c25c0346d94847f1f3c463c57e077>@@@?$__crt_seh_guarded_call@X@@QEAAX$$QEAV<lambda_5e887d1dcbef67a5eb4283622ba103bf>@@AEAV<lambda_4466841279450cc726390878d4a41900>@@$$QEAV<lambda_341c25c0346d94847f1f3c463c57e077>@@@Z@4HA 000000018005af3c     libucrt:per_thread_data.obj
 0004:00003f3c       $pdata$?fin$0@?0???$?RV<lambda_c36588078e9f5dfd39652860aa6b3aaf>@@AEAV<lambda_ec61778202f4f5fc7e7711acc23c3bca>@@V<lambda_dc9d2797ccde5d239b4a0efae8ebd7db>@@@?$__crt_seh_guarded_call@P6AXH@Z@@QEAAP6AXH@Z$$QEAV<lambda_c36588078e9f5dfd39652860aa6b3aaf>@@AEAV<lambda_ec61778202f4f5fc7e7711acc23c3bca>@@$$QEAV<lambda_dc9d2797ccde5d239b4a0efae8ebd7db>@@@Z@4HA 000000018005af3c     libucrt:signal.obj
 0004:00003f48       $pdata$_fcloseall$fin$0    000000018005af48     libucrt:closeall.obj
 0004:00003f54       $pdata$__acrt_uninitialize_locale$fin$0 000000018005af54     libucrt:wsetlocale.obj
 0004:00003f54       $pdata$__acrt_update_thread_locale_data$fin$0 000000018005af54     libucrt:locale_refcounting.obj
 0004:00003f60       $pdata$raise$fin$0         000000018005af60     libucrt:signal.obj
 0004:00003f6c       $pdata$?fin$0@?0???$common_lseek@_J@@YA_JH_JH@Z@4HA 000000018005af6c     libucrt:lseek.obj
 0004:00003f6c       $pdata$_write$fin$0        000000018005af6c     libucrt:write.obj
 0004:00003f78       $pdata$__acrt_update_thread_multibyte_data$fin$0 000000018005af78     libucrt:mbctype.obj
 0004:00003f84       $pdata$__acrt_lowio_ensure_fh_exists$fin$0 000000018005af84     libucrt:osfinfo.obj
 0004:00003f84       $pdata$__acrt_initialize_lowio$fin$0 000000018005af84     libucrt:ioinit.obj
 0004:00003f90       $pdata$?fin$0@?0???$?RV<lambda_b521505b218e5242e90febf6bfebc422>@@AEAV<lambda_6978c1fb23f02e42e1d9e99668cc68aa>@@V<lambda_314360699dd331753a4119843814e9a7>@@@?$__crt_seh_guarded_call@H@@QEAAH$$QEAV<lambda_b521505b218e5242e90febf6bfebc422>@@AEAV<lambda_6978c1fb23f02e42e1d9e99668cc68aa>@@$$QEAV<lambda_314360699dd331753a4119843814e9a7>@@@Z@4HA 000000018005af90     libucrt:commit.obj
 0004:00003f90       $pdata$?fin$0@?0???$?RV<lambda_bfedae4ebbf01fab1bb6dcc6a9e276e0>@@AEAV<lambda_2fe9b910cf3cbf4a0ab98a02ba45b3ec>@@V<lambda_237c231691f317818eb88cc1d5d642d6>@@@?$__crt_seh_guarded_call@H@@QEAAH$$QEAV<lambda_bfedae4ebbf01fab1bb6dcc6a9e276e0>@@AEAV<lambda_2fe9b910cf3cbf4a0ab98a02ba45b3ec>@@$$QEAV<lambda_237c231691f317818eb88cc1d5d642d6>@@@Z@4HA 000000018005af90     libucrt:close.obj
 0004:00003f9c       $pdata$_ctrlfp$filt$0      000000018005af9c     libucrt:fpctrl.obj
 0004:00003f9c       $pdata$common_control87$filt$0 000000018005af9c     libucrt:ieee.obj
 0004:00003fa8       $pdata$_IsNonwritableInCurrentImage$filt$0 000000018005afa8     LIBCMT:pesect.obj
 0004:00003fa8       $pdata$__RTtypeid$filt$0   000000018005afa8     libvcruntime:rtti.obj
 0004:00003fb4       $pdata$??__F?m_badAllocExceptionPtr@__ExceptionPtr@@0V?$shared_ptr@V__ExceptionPtr@@@std@@A@@YAXXZ 000000018005afb4     libcpmt:excptptr.obj
 0005:00000000       __guard_fids__beginthreadex 000000018005b000     libucrt:thread.obj
 0005:00000004       __guard_fids__             000000018005b004     libucrt:initialization.obj
 0005:00000064       __guard_fids___acrt_initialize_ptd 000000018005b064     libucrt:per_thread_data.obj
 0005:00000068       __guard_fids__             000000018005b068     libucrt:stdio_initializer.obj
 0005:0000006c       __guard_fids__             000000018005b06c     libucrt:stdio_initializer.obj
 0005:00000070       __guard_fids_??$expand_argument_wildcards@D@@YAHQEAD0AEAV?$argument_list@D@?A0xca0879c4@@@Z 000000018005b070     libucrt:argv_wildcards.obj
 0005:00000074       __guard_fids__             000000018005b074     libucrt:locale_initializer.obj
 0005:00000078       __guard_fids__             000000018005b078     libucrt:multibyte_initializer.obj
 0005:0000007c       __guard_fids__             000000018005b07c     libucrt:console_output_initializer.obj
 0005:00000080       __guard_fids__             000000018005b080     libucrt:fma3_initializer.obj
 0005:00000084       __guard_fids_??__E?m_badAllocExceptionPtr@__ExceptionPtr@@0V?$shared_ptr@V__ExceptionPtr@@@std@@A@@YAXXZ 000000018005b084     libcpmt:excptptr.obj
 0005:00000088       __guard_fids__             000000018005b088     libcpmt:excptptr.obj
 0005:00000090       __guard_fids__             000000018005b090     libcpmt:excptptr.obj
 0005:00000098       __guard_fids__             000000018005b098     libcpmt:excptptr.obj
 0005:000000a0       __guard_fids__             000000018005b0a0     libcpmt:excptptr.obj
 0005:000000b0       __guard_fids__             000000018005b0b0     libcpmt:excptptr.obj
 0005:000000c0       __guard_fids__             000000018005b0c0     libcpmt:excptptr.obj
 0005:000000d0       __guard_fids__             000000018005b0d0     libcpmt:excptptr.obj
 0005:000000d4       __guard_fids__             000000018005b0d4     libcpmt:xthrow.obj
 0005:000000dc       __guard_fids__             000000018005b0dc     libcpmt:xthrow.obj
 0005:000000e4       __guard_fids__             000000018005b0e4     libcpmt:xthrow.obj
 0005:000000ec       __guard_fids__             000000018005b0ec     libcpmt:xthrow.obj
 0005:000000f4       __guard_fids__             000000018005b0f4     libcpmt:xthrow.obj
 0005:000000fc       __guard_fids__             000000018005b0fc     LIBCMT:std_type_info_static.obj
 0005:00000100       __guard_fids_?dllmain_crt_process_attach@@YAHQEAUHINSTANCE__@@QEAX@Z 000000018005b100     LIBCMT:dll_dllmain.obj
 0005:00000108       __guard_fids_?dllmain_dispatch@@YAHQEAUHINSTANCE__@@KQEAX@Z 000000018005b108     LIBCMT:dll_dllmain.obj
 0005:0000010c       __guard_fids__             000000018005b10c     LIBCMT:throw_bad_alloc.obj
 0005:00000114       __guard_fids__             000000018005b114     LIBCMT:guard_support.obj
 0005:00000118       __guard_fids__             000000018005b118     libvcruntime:frame.obj
 0005:0000011c       __guard_fids___std_type_info_name 000000018005b11c     libvcruntime:std_type_info.obj
 0005:00000124       __guard_fids__             000000018005b124     libvcruntime:rtti.obj
 0005:0000012c       __guard_fids__             000000018005b12c     libvcruntime:rtti.obj
 0005:00000134       __guard_fids__UnwindNestedFrames 000000018005b134     libvcruntime:trnsctrl.obj
 0005:00000138       __guard_fids___vcrt_initialize_ptd 000000018005b138     libvcruntime:per_thread_data.obj
 0005:0000013c       __guard_fids__             000000018005b13c     libvcruntime:undname.obj
 0005:00000148       __guard_fids__             000000018005b148     libvcruntime:undname.obj
 0005:00000154       __guard_fids__             000000018005b154     libvcruntime:undname.obj
 0005:00000160       __guard_fids__             000000018005b160     libvcruntime:undname.obj
 0005:0000016c       __guard_fids__             000000018005b16c     libvcruntime:undname.obj
 0006:000000a0       $R000000                   000000018005c0a0     tbb_resource.res
 0006:00000478       $R0003D8                   000000018005c478     tbb_resource.res
